Certificate:
    Data:
        Version: 3 (0x2)
        Serial Number:
            5b:25:24:95:1a:7a:20:0f:25:6c:66:d1:5a:08:37:0e
        Signature Algorithm: sha256WithRSAEncryption
        Issuer: CN=IotSchool Sub CA
        Validity
            Not Before: Apr 19 12:38:06 2023 GMT
            Not After : Apr 18 12:38:06 2024 GMT
        Subject: C=DE, ST=Bavaria, O=IoT School, OU=PKI Services, CN=A20AE29D770A2A40C9234C0D1998A4AE52B147B698F706DE/emailAddress=iotschool@maibornwolff.de
        Subject Public Key Info:
            Public Key Algorithm: rsaEncryption
                Public-Key: (2048 bit)
                Modulus:
                    00:d4:1c:d5:4b:d6:ad:e0:57:cf:14:0e:8f:01:df:
                    b2:f3:78:cd:4c:e4:28:5e:21:16:33:27:44:06:3f:
                    56:d9:87:89:87:cf:aa:a2:a0:f7:64:48:b4:70:e7:
                    2b:7a:91:f4:3e:3f:19:61:f9:2d:39:0f:fd:7f:4d:
                    8c:e6:5f:09:e6:ab:ef:33:6d:f3:9b:c9:38:be:45:
                    e0:12:a4:9f:5f:a1:04:fb:55:b2:4d:bc:4b:40:be:
                    93:06:9b:e7:30:a4:a7:c0:17:8b:b5:29:c5:9a:21:
                    2b:87:12:61:2c:6a:8b:85:93:83:ce:43:e6:83:65:
                    a4:cf:32:2e:eb:5c:4f:d5:14:78:5c:3f:dd:16:31:
                    12:a1:a5:6f:bb:6a:0f:68:1b:06:60:ff:aa:a1:87:
                    31:38:bb:66:f1:82:ce:2a:e0:10:e5:e4:69:03:0e:
                    87:72:61:20:71:b8:4d:9f:b5:5b:ab:2d:bc:ed:1e:
                    b3:e0:f6:34:be:39:81:fe:b3:21:8e:da:2b:08:a4:
                    d9:28:89:85:09:d5:f0:55:c4:aa:15:3d:a6:7b:7a:
                    78:1d:50:c7:07:80:7c:f4:71:c3:3e:ee:9d:0c:f6:
                    c5:14:a2:16:45:fb:e4:84:de:16:91:f2:a1:fa:b8:
                    4f:16:5f:1b:e9:e2:d2:5f:69:53:5b:88:16:14:c1:
                    41:43
                Exponent: 65537 (0x10001)
        X509v3 extensions:
            X509v3 Authority Key Identifier: 
                0D:27:BF:AE:E6:F3:23:DB:01:CF:4A:CD:DC:62:56:B8:3B:8A:38:D2
            X509v3 Basic Constraints: critical
                CA:FALSE
            X509v3 Extended Key Usage: 
                TLS Web Client Authentication
            X509v3 Key Usage: critical
                Digital Signature
            X509v3 Subject Key Identifier: 
                22:5B:95:80:35:AF:A2:32:44:56:4E:FC:68:90:DE:15:E6:F7:92:99
            X509v3 Subject Alternative Name: 
                DNS:A20AE29D770A2A40C9234C0D1998A4AE52B147B698F706DE
    Signature Algorithm: sha256WithRSAEncryption
    Signature Value:
        7e:a6:bb:12:19:c7:d4:42:f0:88:ab:9c:40:b0:36:86:74:65:
        db:af:73:d4:7c:ed:00:a3:1e:0c:cb:40:61:92:37:59:67:96:
        e3:ae:b1:3e:ca:e1:15:8d:6b:17:28:2d:6a:13:6b:90:68:9b:
        34:83:52:fd:04:e2:b4:ed:93:79:e1:f2:27:8c:8a:3f:39:5d:
        a0:46:15:35:e4:91:6b:de:66:9e:73:f6:d1:a0:b8:27:41:93:
        43:7b:76:53:de:2f:b4:8a:ef:0b:63:cb:03:d4:b3:bc:52:f8:
        3d:60:2e:a4:fe:77:b5:f0:78:5e:86:27:7a:43:23:66:82:2a:
        19:f1:38:6d:8a:60:d9:fa:96:b0:bc:c5:0d:ab:e9:fb:f5:2b:
        fb:3b:88:72:d5:6f:4f:1d:1e:b6:3d:37:51:a1:07:5b:42:8e:
        2e:35:58:f9:c6:fa:cd:83:35:b0:04:af:a2:73:33:8a:5c:2b:
        c1:7f:9e:93:1f:a2:e3:e5:25:3b:9a:82:65:aa:4c:08:ac:8e:
        db:79:f9:85:72:0e:01:ba:86:de:6f:99:56:8e:3f:32:7e:65:
        e0:9f:5d:fe:d8:f0:7d:98:ce:52:1f:26:d2:0c:d3:d2:8c:1f:
        56:57:39:58:5b:5f:12:a0:9d:27:c2:8c:8f:2b:03:4f:4c:ee:
        fd:a8:6b:b9
-----BEGIN CERTIFICATE-----
MIIECjCCAvKgAwIBAgIQWyUklRp6IA8lbGbRWgg3DjANBgkqhkiG9w0BAQsFADAb
MRkwFwYDVQQDDBBJb3RTY2hvb2wgU3ViIENBMB4XDTIzMDQxOTEyMzgwNloXDTI0
MDQxODEyMzgwNlowgbAxCzAJBgNVBAYTAkRFMRAwDgYDVQQIDAdCYXZhcmlhMRMw
EQYDVQQKDApJb1QgU2Nob29sMRUwEwYDVQQLDAxQS0kgU2VydmljZXMxOTA3BgNV
BAMMMEEyMEFFMjlENzcwQTJBNDBDOTIzNEMwRDE5OThBNEFFNTJCMTQ3QjY5OEY3
MDZERTEoMCYGCSqGSIb3DQEJARYZaW90c2Nob29sQG1haWJvcm53b2xmZi5kZTCC
ASIwDQYJKoZIhvcNAQEBBQADggEPADCCAQoCggEBANQc1UvWreBXzxQOjwHfsvN4
zUzkKF4hFjMnRAY/VtmHiYfPqqKg92RItHDnK3qR9D4/GWH5LTkP/X9NjOZfCear
7zNt85vJOL5F4BKkn1+hBPtVsk28S0C+kwab5zCkp8AXi7UpxZohK4cSYSxqi4WT
g85D5oNlpM8yLutcT9UUeFw/3RYxEqGlb7tqD2gbBmD/qqGHMTi7ZvGCzirgEOXk
aQMOh3JhIHG4TZ+1W6stvO0es+D2NL45gf6zIY7aKwik2SiJhQnV8FXEqhU9pnt6
eB1QxweAfPRxwz7unQz2xRSiFkX75ITeFpHyofq4TxZfG+ni0l9pU1uIFhTBQUMC
AwEAAaOBszCBsDAfBgNVHSMEGDAWgBQNJ7+u5vMj2wHPSs3cYla4O4o40jAMBgNV
HRMBAf8EAjAAMBMGA1UdJQQMMAoGCCsGAQUFBwMCMA4GA1UdDwEB/wQEAwIHgDAd
BgNVHQ4EFgQUIluVgDWvojJEVk78aJDeFeb3kpkwOwYDVR0RBDQwMoIwQTIwQUUy
OUQ3NzBBMkE0MEM5MjM0QzBEMTk5OEE0QUU1MkIxNDdCNjk4RjcwNkRFMA0GCSqG
SIb3DQEBCwUAA4IBAQB+prsSGcfUQvCIq5xAsDaGdGXbr3PUfO0Aox4My0BhkjdZ
Z5bjrrE+yuEVjWsXKC1qE2uQaJs0g1L9BOK07ZN54fInjIo/OV2gRhU15JFr3mae
c/bRoLgnQZNDe3ZT3i+0iu8LY8sD1LO8Uvg9YC6k/ne18Hhehid6QyNmgioZ8Tht
imDZ+pawvMUNq+n79Sv7O4hy1W9PHR62PTdRoQdbQo4uNVj5xvrNgzWwBK+iczOK
XCvBf56TH6Lj5SU7moJlqkwIrI7befmFcg4Buobeb5lWjj8yfmXgn13+2PB9mM5S
HybSDNPSjB9WVzlYW18SoJ0nwoyPKwNPTO79qGu5
-----END CERTIFICATE-----
