Certificate:
    Data:
        Version: 3 (0x2)
        Serial Number:
            c6:b4:90:81:c7:9e:83:91:90:cc:17:42:30:ce:e0:08
        Signature Algorithm: sha256WithRSAEncryption
        Issuer: CN=IotSchool Root CA
        Validity
            Not Before: Apr 25 13:59:18 2023 GMT
            Not After : Apr 22 13:59:18 2033 GMT
        Subject: CN=IotSchool Sub CA
        Subject Public Key Info:
            Public Key Algorithm: rsaEncryption
                Public-Key: (2048 bit)
                Modulus:
                    00:ba:3b:6c:b1:4d:f4:fa:11:c1:83:92:ba:4b:5a:
                    cb:c6:7a:44:1a:af:c9:a9:3d:55:69:36:a1:46:81:
                    90:e3:46:c6:c5:5d:7e:00:e1:6f:b5:5a:b2:de:f9:
                    f0:18:57:c1:f5:08:9a:44:15:4c:bb:81:32:e4:53:
                    18:55:75:7f:e2:27:55:77:97:67:06:41:c3:3e:39:
                    4a:b6:df:fe:cf:0c:83:ee:2b:fd:d8:46:db:9b:c1:
                    a0:15:41:de:dd:05:9d:bd:58:60:1d:c7:55:54:3d:
                    24:73:f6:f7:12:62:7f:67:c8:ef:b5:e6:a7:ff:ef:
                    c4:69:e0:d8:fa:af:64:23:d7:40:78:f8:28:f3:4e:
                    3e:c1:3e:ff:63:42:47:bc:9b:14:f6:d3:71:73:e6:
                    f0:e7:22:98:1e:0e:c7:0e:aa:ce:cd:42:f0:9b:a2:
                    26:cc:ee:c4:11:18:57:4b:0b:fe:1c:ce:35:0a:45:
                    cd:5a:81:c5:ab:a3:6f:60:ff:bd:3f:f1:46:dc:3c:
                    57:2c:ef:06:46:26:53:4d:51:49:df:9b:69:f9:0e:
                    1a:5c:34:3e:70:d3:3f:7e:ee:bc:a7:97:4a:50:e2:
                    42:18:69:26:06:3c:c6:9d:66:b0:8b:14:c5:4b:2b:
                    8a:4e:bf:72:4f:8b:f6:19:82:66:45:81:84:a3:af:
                    e5:2f
                Exponent: 65537 (0x10001)
        X509v3 extensions:
            X509v3 Authority Key Identifier: 
                9C:C6:5F:2E:18:33:EE:D4:16:2C:1F:E3:71:F8:98:EA:D5:22:19:EC
            X509v3 Basic Constraints: critical
                CA:TRUE, pathlen:0
            X509v3 Extended Key Usage: 
                TLS Web Client Authentication, TLS Web Server Authentication
            X509v3 Key Usage: critical
                Certificate Sign, CRL Sign
            X509v3 Subject Key Identifier: 
                DE:F2:6B:16:6D:A0:13:2B:86:F6:8D:DD:FE:FC:91:37:B9:FE:C9:A9
    Signature Algorithm: sha256WithRSAEncryption
    Signature Value:
        75:08:41:16:56:90:72:45:d2:b1:9a:61:71:cc:5e:cf:7e:24:
        ad:6f:aa:3c:6c:8f:09:3f:50:da:8a:2a:f4:5b:a5:2a:63:00:
        68:c1:8f:e1:01:9a:6f:c7:48:81:e6:83:d2:b9:fc:51:75:ff:
        94:25:ad:b0:4e:96:ba:4d:39:27:8d:c7:57:82:6c:8e:b1:c4:
        56:c0:30:6b:e2:32:f2:31:01:c1:f1:4d:b5:01:69:47:30:38:
        62:41:11:bb:21:01:13:c6:fd:d0:2c:ba:4c:81:79:64:60:dd:
        70:fd:f6:72:a1:ac:03:4a:1a:0d:62:8e:32:3e:f6:4a:15:53:
        1c:f2:b4:20:99:2b:c9:34:e4:83:74:77:fb:fc:15:0a:ec:58:
        27:cf:a0:ef:12:f3:dc:02:89:5c:e4:3a:f6:c3:70:e5:07:03:
        c7:a0:cd:1a:3d:62:f8:a2:32:cd:74:00:3a:02:71:a2:18:d9:
        3c:88:7b:8f:2e:fe:b6:20:37:5f:c8:1f:ef:ee:4a:f0:1a:e0:
        04:b0:c6:4e:ba:f2:85:e0:94:9a:2c:03:9d:8b:3f:bd:04:9b:
        11:5a:44:4c:9e:ae:cb:de:9e:10:b1:ba:8e:96:f9:20:f4:0e:
        18:81:62:b1:bb:e0:6d:2e:59:0b:62:41:cb:a0:24:01:1f:2f:
        4a:cd:fb:ed
-----BEGIN CERTIFICATE-----
MIIDSTCCAjGgAwIBAgIRAMa0kIHHnoORkMwXQjDO4AgwDQYJKoZIhvcNAQELBQAw
HDEaMBgGA1UEAwwRSW90U2Nob29sIFJvb3QgQ0EwHhcNMjMwNDI1MTM1OTE4WhcN
MzMwNDIyMTM1OTE4WjAbMRkwFwYDVQQDDBBJb3RTY2hvb2wgU3ViIENBMIIBIjAN
BgkqhkiG9w0BAQEFAAOCAQ8AMIIBCgKCAQEAujtssU30+hHBg5K6S1rLxnpEGq/J
qT1VaTahRoGQ40bGxV1+AOFvtVqy3vnwGFfB9QiaRBVMu4Ey5FMYVXV/4idVd5dn
BkHDPjlKtt/+zwyD7iv92Ebbm8GgFUHe3QWdvVhgHcdVVD0kc/b3EmJ/Z8jvtean
/+/EaeDY+q9kI9dAePgo804+wT7/Y0JHvJsU9tNxc+bw5yKYHg7HDqrOzULwm6Im
zO7EERhXSwv+HM41CkXNWoHFq6NvYP+9P/FG3DxXLO8GRiZTTVFJ35tp+Q4aXDQ+
cNM/fu68p5dKUOJCGGkmBjzGnWawixTFSyuKTr9yT4v2GYJmRYGEo6/lLwIDAQAB
o4GGMIGDMB8GA1UdIwQYMBaAFJzGXy4YM+7UFiwf43H4mOrVIhnsMBIGA1UdEwEB
/wQIMAYBAf8CAQAwHQYDVR0lBBYwFAYIKwYBBQUHAwIGCCsGAQUFBwMBMA4GA1Ud
DwEB/wQEAwIBBjAdBgNVHQ4EFgQU3vJrFm2gEyuG9o3d/vyRN7n+yakwDQYJKoZI
hvcNAQELBQADggEBAHUIQRZWkHJF0rGaYXHMXs9+JK1vqjxsjwk/UNqKKvRbpSpj
AGjBj+EBmm/HSIHmg9K5/FF1/5QlrbBOlrpNOSeNx1eCbI6xxFbAMGviMvIxAcHx
TbUBaUcwOGJBEbshARPG/dAsukyBeWRg3XD99nKhrANKGg1ijjI+9koVUxzytCCZ
K8k05IN0d/v8FQrsWCfPoO8S89wCiVzkOvbDcOUHA8egzRo9YviiMs10ADoCcaIY
2TyIe48u/rYgN1/IH+/uSvAa4ASwxk668oXglJosA52LP70EmxFaREyersvenhCx
uo6W+SD0DhiBYrG74G0uWQtiQcugJAEfL0rN++0=
-----END CERTIFICATE-----
