Certificate:
    Data:
        Version: 3 (0x2)
        Serial Number:
            bf:60:70:de:ff:a3:49:5d:dd:55:cf:f2:1a:0b:18:e5
        Signature Algorithm: sha256WithRSAEncryption
        Issuer: CN=IotSchool Root CA
        Validity
            Not Before: Apr 25 14:19:49 2023 GMT
            Not After : Apr 22 14:19:49 2033 GMT
        Subject: CN=IotSchool Sub CA
        Subject Public Key Info:
            Public Key Algorithm: rsaEncryption
                Public-Key: (2048 bit)
                Modulus:
                    00:ca:5e:d9:d4:51:2e:1f:39:30:8c:f7:32:0b:18:
                    55:ee:ba:ec:fb:c2:78:9b:b4:38:11:60:16:52:98:
                    62:f8:0f:39:10:c2:4c:2d:b5:63:32:49:1f:e5:1c:
                    8a:22:b1:7b:02:a9:f1:25:dd:7c:7c:cd:b3:db:1c:
                    99:e2:57:53:39:db:fc:0a:92:6a:08:86:5d:97:7f:
                    5d:32:8c:e7:f0:17:aa:27:3b:51:5f:59:5c:fc:cb:
                    b5:1d:60:54:ed:bc:36:f8:4d:ab:27:59:04:c8:1e:
                    92:d6:f0:2b:c1:a1:89:bc:5b:a1:36:42:99:d9:ad:
                    a4:f5:ee:ae:5f:e9:36:08:f6:41:51:cf:d2:66:09:
                    b0:c9:53:55:d0:61:0c:a7:7e:e5:aa:08:b4:07:87:
                    30:d4:82:d8:7f:58:ca:50:af:a7:95:8d:5f:8d:4d:
                    5a:7c:a5:13:10:f1:20:21:47:51:10:34:11:eb:5b:
                    7c:9e:f7:63:27:89:8c:19:ba:37:8a:d5:c0:8c:0b:
                    11:e3:30:94:e7:d2:e6:13:50:2d:ef:b5:ba:22:82:
                    c9:71:ff:96:f6:08:9c:6d:82:c6:9d:d4:3d:97:f4:
                    fb:3f:74:0f:b7:1f:60:49:2e:5e:f1:e3:fa:e1:b4:
                    7f:27:bb:7a:f6:5d:ae:f8:de:73:1a:6e:e3:d0:2b:
                    32:3d
                Exponent: 65537 (0x10001)
        X509v3 extensions:
            X509v3 Authority Key Identifier: 
                9C:C6:5F:2E:18:33:EE:D4:16:2C:1F:E3:71:F8:98:EA:D5:22:19:EC
            X509v3 Basic Constraints: critical
                CA:TRUE, pathlen:0
            X509v3 Extended Key Usage: 
                TLS Web Client Authentication, TLS Web Server Authentication
            X509v3 Key Usage: critical
                Certificate Sign, CRL Sign
            X509v3 Subject Key Identifier: 
                12:4F:18:DE:F3:2F:A2:0E:9C:21:B9:D5:16:C1:68:94:41:1F:AD:AC
    Signature Algorithm: sha256WithRSAEncryption
    Signature Value:
        3d:64:8c:25:00:53:11:f5:1d:2c:84:a8:44:da:d1:94:cd:df:
        21:ff:f7:7f:66:95:fc:76:63:df:22:1d:f5:9e:ad:3c:ba:ff:
        6d:b5:e1:2d:14:4d:80:92:dc:70:0c:17:95:d8:e5:94:13:5d:
        b5:7f:0f:0a:4c:8d:81:e0:c7:f7:b5:30:c4:7f:13:46:21:e1:
        d0:bc:5c:18:1f:86:3a:2c:12:26:82:77:94:76:f1:2c:62:4b:
        9d:0f:98:f9:ea:ae:18:8b:5c:b9:c8:f4:ef:78:8b:c8:11:62:
        0d:1a:b7:76:fd:69:d4:33:c5:2e:2d:d3:27:75:dd:8a:ed:13:
        d3:25:e0:71:e8:11:3c:71:bb:a0:f6:90:e2:c8:ff:cf:b1:6a:
        47:2d:41:fe:ae:c4:d5:aa:d4:12:bc:fc:b3:3f:78:97:9e:03:
        39:44:3d:8b:d6:19:e6:a2:f8:2f:fa:0d:1f:4e:64:05:5b:b9:
        0a:19:2a:50:ba:6e:84:8c:57:6d:31:b4:65:58:20:af:72:b8:
        49:ea:15:41:43:eb:c6:6b:48:53:7b:3f:c1:a4:dd:7c:2b:7e:
        c2:21:c3:92:03:66:ec:39:1e:23:ea:92:6e:ed:f2:f8:02:51:
        71:3b:ab:15:d9:46:5b:46:bc:4f:f5:3b:09:fc:cc:31:b7:39:
        38:cb:be:09
-----BEGIN CERTIFICATE-----
MIIDSTCCAjGgAwIBAgIRAL9gcN7/o0ld3VXP8hoLGOUwDQYJKoZIhvcNAQELBQAw
HDEaMBgGA1UEAwwRSW90U2Nob29sIFJvb3QgQ0EwHhcNMjMwNDI1MTQxOTQ5WhcN
MzMwNDIyMTQxOTQ5WjAbMRkwFwYDVQQDDBBJb3RTY2hvb2wgU3ViIENBMIIBIjAN
BgkqhkiG9w0BAQEFAAOCAQ8AMIIBCgKCAQEAyl7Z1FEuHzkwjPcyCxhV7rrs+8J4
m7Q4EWAWUphi+A85EMJMLbVjMkkf5RyKIrF7AqnxJd18fM2z2xyZ4ldTOdv8CpJq
CIZdl39dMozn8BeqJztRX1lc/Mu1HWBU7bw2+E2rJ1kEyB6S1vArwaGJvFuhNkKZ
2a2k9e6uX+k2CPZBUc/SZgmwyVNV0GEMp37lqgi0B4cw1ILYf1jKUK+nlY1fjU1a
fKUTEPEgIUdREDQR61t8nvdjJ4mMGbo3itXAjAsR4zCU59LmE1At77W6IoLJcf+W
9gicbYLGndQ9l/T7P3QPtx9gSS5e8eP64bR/J7t69l2u+N5zGm7j0CsyPQIDAQAB
o4GGMIGDMB8GA1UdIwQYMBaAFJzGXy4YM+7UFiwf43H4mOrVIhnsMBIGA1UdEwEB
/wQIMAYBAf8CAQAwHQYDVR0lBBYwFAYIKwYBBQUHAwIGCCsGAQUFBwMBMA4GA1Ud
DwEB/wQEAwIBBjAdBgNVHQ4EFgQUEk8Y3vMvog6cIbnVFsFolEEfrawwDQYJKoZI
hvcNAQELBQADggEBAD1kjCUAUxH1HSyEqETa0ZTN3yH/939mlfx2Y98iHfWerTy6
/2214S0UTYCS3HAMF5XY5ZQTXbV/DwpMjYHgx/e1MMR/E0Yh4dC8XBgfhjosEiaC
d5R28SxiS50PmPnqrhiLXLnI9O94i8gRYg0at3b9adQzxS4t0yd13YrtE9Ml4HHo
ETxxu6D2kOLI/8+xakctQf6uxNWq1BK8/LM/eJeeAzlEPYvWGeai+C/6DR9OZAVb
uQoZKlC6boSMV20xtGVYIK9yuEnqFUFD68ZrSFN7P8Gk3XwrfsIhw5IDZuw5HiPq
km7t8vgCUXE7qxXZRltGvE/1Own8zDG3OTjLvgk=
-----END CERTIFICATE-----
