Certificate:
    Data:
        Version: 3 (0x2)
        Serial Number:
            08:b9:85:87:a0:de:d4:3b:b1:96:5a:04:4b:2c:e9:5a
        Signature Algorithm: sha256WithRSAEncryption
        Issuer: CN=IotSchool Root CA
        Validity
            Not Before: Apr 25 14:34:46 2023 GMT
            Not After : Apr 22 14:34:46 2033 GMT
        Subject: CN=IotSchool Sub CA
        Subject Public Key Info:
            Public Key Algorithm: rsaEncryption
                Public-Key: (2048 bit)
                Modulus:
                    00:c8:86:30:d4:22:5a:90:ec:64:a0:1c:92:23:e0:
                    bb:91:43:ec:11:86:43:7b:9c:5c:74:7d:45:b7:a0:
                    f8:63:83:94:5a:6e:cb:ba:ba:82:60:d4:1d:87:9f:
                    4e:ca:c9:91:41:14:e5:98:91:f8:aa:d3:98:38:46:
                    f5:e3:fb:f6:bc:ca:f0:2f:4d:2e:07:83:00:fd:a8:
                    01:a6:fc:dc:1f:30:3b:b0:51:e3:66:19:37:bc:b4:
                    31:b1:8e:1f:18:ed:7c:2f:69:5f:5c:c5:3e:93:dc:
                    ba:71:80:50:d1:c3:18:1e:72:75:24:f9:26:ab:91:
                    6a:7c:14:23:49:bf:e8:39:f8:1f:b7:e1:85:6c:e7:
                    6a:fd:ed:5f:cf:78:5f:4a:4e:97:82:80:fb:2d:02:
                    14:9a:d3:8f:1f:d8:06:78:f4:0c:99:85:59:f0:b2:
                    e6:70:f2:db:e1:16:5e:c0:c7:fd:ad:37:80:92:ce:
                    c3:7d:ad:0a:87:b8:3e:70:d0:65:24:5b:af:90:c6:
                    34:96:67:c8:11:27:23:d7:f0:85:dd:5b:5b:a8:d6:
                    66:7f:f4:13:2b:22:bf:24:13:30:5f:6f:80:2f:9a:
                    81:c5:d5:96:c3:47:be:cf:3c:f7:5c:d5:11:ea:68:
                    73:43:e6:99:76:eb:48:91:c6:12:21:17:a7:ba:66:
                    ac:69
                Exponent: 65537 (0x10001)
        X509v3 extensions:
            X509v3 Authority Key Identifier: 
                9C:C6:5F:2E:18:33:EE:D4:16:2C:1F:E3:71:F8:98:EA:D5:22:19:EC
            X509v3 Basic Constraints: critical
                CA:TRUE, pathlen:0
            X509v3 Extended Key Usage: 
                TLS Web Client Authentication, TLS Web Server Authentication
            X509v3 Key Usage: critical
                Certificate Sign, CRL Sign
            X509v3 Subject Key Identifier: 
                AC:D6:0C:39:4E:A1:00:ED:C1:45:39:97:6D:46:1F:E2:58:CB:7C:08
    Signature Algorithm: sha256WithRSAEncryption
    Signature Value:
        2f:e8:a6:86:a5:49:28:07:b3:9b:fe:eb:f7:00:42:b8:2c:56:
        fb:d2:b2:8f:03:68:07:76:a1:83:67:d2:2c:8b:a0:16:f0:cd:
        04:0e:7e:3c:c0:28:29:a8:d7:e1:00:96:0d:35:6e:d4:c8:97:
        bf:2c:7a:4e:34:20:c9:ff:31:bb:c9:35:0b:19:68:12:8e:28:
        00:61:cf:a6:75:d4:ad:71:9e:0f:2b:6f:3a:39:3a:bd:f9:d9:
        18:c1:1a:e5:99:ff:7d:fd:bc:57:89:75:b0:54:57:74:0a:ae:
        21:5d:71:02:94:80:99:53:a9:41:c9:cd:0a:27:03:86:75:94:
        f4:eb:fe:38:ae:95:67:99:4b:fb:ae:b2:49:84:ab:db:d5:eb:
        ec:8c:98:63:47:d6:3c:57:98:af:9c:48:d2:63:0c:10:2e:dd:
        d4:ca:b9:f5:29:be:d8:29:02:3a:af:11:8d:f9:5c:26:e7:48:
        a1:cd:c3:ac:9f:87:34:d6:ee:3f:55:f5:c1:1d:ea:52:cf:72:
        f2:75:d6:d1:e2:a2:4f:15:f3:09:3b:e1:f1:93:f9:ff:b1:09:
        8b:65:e7:81:f4:3d:fa:5e:99:db:19:00:d2:a7:95:23:bb:4f:
        02:8a:c2:ff:11:fd:99:2c:9a:b7:24:98:fc:94:26:e6:42:a5:
        3f:38:8a:e8
-----BEGIN CERTIFICATE-----
MIIDSDCCAjCgAwIBAgIQCLmFh6De1DuxlloESyzpWjANBgkqhkiG9w0BAQsFADAc
MRowGAYDVQQDDBFJb3RTY2hvb2wgUm9vdCBDQTAeFw0yMzA0MjUxNDM0NDZaFw0z
MzA0MjIxNDM0NDZaMBsxGTAXBgNVBAMMEElvdFNjaG9vbCBTdWIgQ0EwggEiMA0G
CSqGSIb3DQEBAQUAA4IBDwAwggEKAoIBAQDIhjDUIlqQ7GSgHJIj4LuRQ+wRhkN7
nFx0fUW3oPhjg5Rabsu6uoJg1B2Hn07KyZFBFOWYkfiq05g4RvXj+/a8yvAvTS4H
gwD9qAGm/NwfMDuwUeNmGTe8tDGxjh8Y7XwvaV9cxT6T3LpxgFDRwxgecnUk+Sar
kWp8FCNJv+g5+B+34YVs52r97V/PeF9KTpeCgPstAhSa048f2AZ49AyZhVnwsuZw
8tvhFl7Ax/2tN4CSzsN9rQqHuD5w0GUkW6+QxjSWZ8gRJyPX8IXdW1uo1mZ/9BMr
Ir8kEzBfb4AvmoHF1ZbDR77PPPdc1RHqaHND5pl260iRxhIhF6e6ZqxpAgMBAAGj
gYYwgYMwHwYDVR0jBBgwFoAUnMZfLhgz7tQWLB/jcfiY6tUiGewwEgYDVR0TAQH/
BAgwBgEB/wIBADAdBgNVHSUEFjAUBggrBgEFBQcDAgYIKwYBBQUHAwEwDgYDVR0P
AQH/BAQDAgEGMB0GA1UdDgQWBBSs1gw5TqEA7cFFOZdtRh/iWMt8CDANBgkqhkiG
9w0BAQsFAAOCAQEAL+imhqVJKAezm/7r9wBCuCxW+9KyjwNoB3ahg2fSLIugFvDN
BA5+PMAoKajX4QCWDTVu1MiXvyx6TjQgyf8xu8k1CxloEo4oAGHPpnXUrXGeDytv
Ojk6vfnZGMEa5Zn/ff28V4l1sFRXdAquIV1xApSAmVOpQcnNCicDhnWU9Ov+OK6V
Z5lL+66ySYSr29Xr7IyYY0fWPFeYr5xI0mMMEC7d1Mq59Sm+2CkCOq8RjflcJudI
oc3DrJ+HNNbuP1X1wR3qUs9y8nXW0eKiTxXzCTvh8ZP5/7EJi2XngfQ9+l6Z2xkA
0qeVI7tPAorC/xH9mSyatySY/JQm5kKlPziK6A==
-----END CERTIFICATE-----
