Certificate:
    Data:
        Version: 3 (0x2)
        Serial Number:
            a1:72:b0:04:7b:80:07:55:f6:93:4d:86:f0:02:2d:fa
        Signature Algorithm: sha256WithRSAEncryption
        Issuer: CN=IotSchool Root CA
        Validity
            Not Before: Apr 25 14:51:56 2023 GMT
            Not After : Apr 22 14:51:56 2033 GMT
        Subject: CN=IotSchool Sub CA
        Subject Public Key Info:
            Public Key Algorithm: rsaEncryption
                Public-Key: (2048 bit)
                Modulus:
                    00:93:b7:d4:a5:4c:f7:4c:23:15:1a:7c:1c:92:f7:
                    4e:06:fe:bc:91:9c:bd:87:00:af:85:55:d0:e7:f1:
                    57:89:54:7c:b1:3b:b1:27:d2:0a:bc:6b:8c:a1:06:
                    6d:f6:0b:e1:9f:08:00:53:d2:c6:ca:02:7a:98:15:
                    3f:22:fc:74:58:2c:fe:04:b8:bc:e4:93:02:b7:55:
                    28:4f:15:81:b5:b5:96:35:ca:91:cc:29:31:f3:22:
                    f3:7a:2e:90:52:89:dd:0c:be:ad:31:4b:8b:00:b2:
                    02:79:c7:89:4b:bd:8e:1d:10:14:c9:0c:b0:02:d6:
                    ec:2c:f9:57:62:18:87:84:61:c9:c7:8d:3f:17:33:
                    63:0b:17:2e:05:a5:6b:0a:9d:fa:f4:19:6f:3a:12:
                    ca:de:19:7e:dc:bf:e7:c3:d1:b7:ab:3d:3d:24:74:
                    18:99:86:d0:33:50:72:2b:c2:6b:14:b1:e8:cb:6a:
                    83:ca:54:78:1b:12:91:79:65:28:0b:c4:0d:d8:d0:
                    11:88:3b:a8:03:5b:cb:d8:ee:78:f9:2d:b3:7d:57:
                    fd:a2:d2:4c:3a:a5:33:1c:14:db:a3:fd:e3:97:10:
                    dc:46:01:06:60:63:d7:e8:5d:4d:8c:bf:86:06:49:
                    78:9e:b4:34:0c:3f:52:91:9c:dd:1d:93:7d:a8:c0:
                    06:d9
                Exponent: 65537 (0x10001)
        X509v3 extensions:
            X509v3 Authority Key Identifier: 
                9C:C6:5F:2E:18:33:EE:D4:16:2C:1F:E3:71:F8:98:EA:D5:22:19:EC
            X509v3 Basic Constraints: critical
                CA:TRUE, pathlen:0
            X509v3 Extended Key Usage: 
                TLS Web Client Authentication, TLS Web Server Authentication
            X509v3 Key Usage: critical
                Certificate Sign, CRL Sign
            X509v3 Subject Key Identifier: 
                FC:81:CB:FD:37:F7:2F:F7:35:55:C8:41:45:D9:B3:7F:29:7A:61:EC
    Signature Algorithm: sha256WithRSAEncryption
    Signature Value:
        7c:90:45:28:5c:31:15:5c:b0:4d:8b:25:e8:64:23:f3:1b:7d:
        35:e8:7d:3c:ca:48:e7:ad:d3:15:c9:36:b1:65:b6:0b:3a:91:
        94:9a:bf:01:fa:79:18:3c:65:44:d4:65:84:80:69:3e:07:ed:
        a0:05:68:79:c0:dd:d6:c2:ee:c8:56:db:d0:d6:b7:6d:84:83:
        5d:a3:60:ff:6d:1f:73:67:13:f7:82:a4:24:69:b1:25:9a:be:
        5c:ea:37:be:14:89:dc:63:90:27:2e:35:12:ae:b4:20:1f:07:
        72:b6:76:63:80:77:9b:07:36:78:aa:3d:1d:2c:b2:58:f6:f5:
        a7:e4:ff:e2:16:6d:27:1b:30:76:d6:d3:14:ca:a0:6d:40:84:
        59:14:06:4a:46:57:5a:9f:3d:2e:ee:99:b9:be:61:09:93:71:
        d8:81:ab:3d:fb:f8:88:28:45:a9:db:7b:00:d2:cb:96:5d:d0:
        ef:d4:08:aa:fb:ab:38:5c:b4:0b:3a:0b:8c:82:c4:66:cc:74:
        5c:bf:91:a5:0f:ed:51:c2:60:cb:a5:ea:93:d3:d9:1c:f7:6a:
        65:2f:14:5c:eb:67:45:20:3d:c9:4a:16:d3:f2:92:2f:16:b6:
        9c:62:b0:13:94:3c:ba:2a:af:40:28:c5:cb:cb:c2:63:f1:f1:
        42:c3:7c:9a
-----BEGIN CERTIFICATE-----
MIIDSTCCAjGgAwIBAgIRAKFysAR7gAdV9pNNhvACLfowDQYJKoZIhvcNAQELBQAw
HDEaMBgGA1UEAwwRSW90U2Nob29sIFJvb3QgQ0EwHhcNMjMwNDI1MTQ1MTU2WhcN
MzMwNDIyMTQ1MTU2WjAbMRkwFwYDVQQDDBBJb3RTY2hvb2wgU3ViIENBMIIBIjAN
BgkqhkiG9w0BAQEFAAOCAQ8AMIIBCgKCAQEAk7fUpUz3TCMVGnwckvdOBv68kZy9
hwCvhVXQ5/FXiVR8sTuxJ9IKvGuMoQZt9gvhnwgAU9LGygJ6mBU/Ivx0WCz+BLi8
5JMCt1UoTxWBtbWWNcqRzCkx8yLzei6QUondDL6tMUuLALICeceJS72OHRAUyQyw
AtbsLPlXYhiHhGHJx40/FzNjCxcuBaVrCp369BlvOhLK3hl+3L/nw9G3qz09JHQY
mYbQM1ByK8JrFLHoy2qDylR4GxKReWUoC8QN2NARiDuoA1vL2O54+S2zfVf9otJM
OqUzHBTbo/3jlxDcRgEGYGPX6F1NjL+GBkl4nrQ0DD9SkZzdHZN9qMAG2QIDAQAB
o4GGMIGDMB8GA1UdIwQYMBaAFJzGXy4YM+7UFiwf43H4mOrVIhnsMBIGA1UdEwEB
/wQIMAYBAf8CAQAwHQYDVR0lBBYwFAYIKwYBBQUHAwIGCCsGAQUFBwMBMA4GA1Ud
DwEB/wQEAwIBBjAdBgNVHQ4EFgQU/IHL/Tf3L/c1VchBRdmzfyl6YewwDQYJKoZI
hvcNAQELBQADggEBAHyQRShcMRVcsE2LJehkI/MbfTXofTzKSOet0xXJNrFltgs6
kZSavwH6eRg8ZUTUZYSAaT4H7aAFaHnA3dbC7shW29DWt22Eg12jYP9tH3NnE/eC
pCRpsSWavlzqN74UidxjkCcuNRKutCAfB3K2dmOAd5sHNniqPR0sslj29afk/+IW
bScbMHbW0xTKoG1AhFkUBkpGV1qfPS7umbm+YQmTcdiBqz37+IgoRanbewDSy5Zd
0O/UCKr7qzhctAs6C4yCxGbMdFy/kaUP7VHCYMul6pPT2Rz3amUvFFzrZ0UgPclK
FtPyki8WtpxisBOUPLoqr0AoxcvLwmPx8ULDfJo=
-----END CERTIFICATE-----
