Certificate:
    Data:
        Version: 3 (0x2)
        Serial Number:
            4f:fd:f8:c3:d7:35:6c:4d:46:76:34:77:1e:09:39:a5
        Signature Algorithm: sha256WithRSAEncryption
        Issuer: CN=IotSchool Root CA
        Validity
            Not Before: Apr 25 19:07:46 2023 GMT
            Not After : Apr 22 19:07:46 2033 GMT
        Subject: CN=IotSchool Sub CA
        Subject Public Key Info:
            Public Key Algorithm: rsaEncryption
                Public-Key: (2048 bit)
                Modulus:
                    00:a0:e8:1f:e9:f8:2f:89:33:f1:79:f3:23:19:b4:
                    7a:c6:1c:71:02:94:e0:2c:f6:4c:be:fe:82:34:ed:
                    91:0f:7c:3e:0f:52:7b:68:3c:b8:29:30:ec:48:95:
                    14:67:b9:46:df:4a:b2:8a:3d:2c:82:16:fe:48:15:
                    7d:90:10:fd:21:f0:0b:c9:fc:49:52:3f:72:83:03:
                    40:f7:1a:0b:cb:d6:ae:31:e0:82:74:80:f1:0c:dc:
                    98:04:2b:61:04:4c:b5:a7:90:49:23:cf:fb:8b:b1:
                    18:b0:20:c0:d3:1f:07:74:e2:24:3b:18:e9:43:0a:
                    b7:4e:cf:22:05:ed:f8:82:d4:62:f8:e9:ac:04:49:
                    67:ee:04:f3:9a:75:08:33:11:19:00:5a:ad:ee:26:
                    f7:7d:82:fd:c6:b4:ee:5e:27:0e:6f:65:88:1f:de:
                    59:2a:36:7f:a5:ef:58:ba:fc:6c:c5:8f:65:09:1b:
                    2d:f3:f5:f2:9e:37:4e:46:e1:d2:10:f3:65:e7:6e:
                    56:5b:b6:30:ed:c7:03:e4:46:cd:2e:d2:25:09:3d:
                    d6:62:b1:8f:68:e3:3e:08:82:60:47:08:64:ac:56:
                    17:a8:c2:a8:a0:0a:2a:42:ef:1e:7e:bd:a2:54:8d:
                    e0:19:2e:7c:82:b7:70:0a:49:ac:3b:34:b2:87:a8:
                    85:e9
                Exponent: 65537 (0x10001)
        X509v3 extensions:
            X509v3 Authority Key Identifier: 
                9C:C6:5F:2E:18:33:EE:D4:16:2C:1F:E3:71:F8:98:EA:D5:22:19:EC
            X509v3 Basic Constraints: critical
                CA:TRUE, pathlen:0
            X509v3 Extended Key Usage: 
                TLS Web Client Authentication, TLS Web Server Authentication
            X509v3 Key Usage: critical
                Certificate Sign, CRL Sign
            X509v3 Subject Key Identifier: 
                DF:63:E8:C5:AC:13:9F:03:B6:48:72:56:65:FD:34:26:BB:CE:27:F5
    Signature Algorithm: sha256WithRSAEncryption
    Signature Value:
        47:5e:b8:42:2b:9f:e1:c4:9f:74:d6:29:3a:bb:f2:5b:90:21:
        37:31:e0:38:d6:eb:f4:e8:de:8f:6e:0b:fa:6a:b4:3b:22:d7:
        5d:de:df:f7:1b:69:6c:0a:f6:ac:8f:95:02:b5:db:c7:a0:b3:
        ba:83:b0:ae:c1:ce:10:b1:a4:fc:17:2a:fe:34:1d:cc:30:c0:
        e9:f9:55:6c:64:04:67:2d:1e:97:f8:8b:d4:e0:91:6a:c3:5a:
        30:b8:4d:d0:e4:85:00:75:74:72:bd:17:67:11:3d:eb:95:74:
        c5:23:42:51:69:68:8b:8d:f4:5a:60:97:80:28:47:bc:90:69:
        c3:8d:c8:3b:8f:41:22:cb:5c:6b:11:c0:ad:39:b4:c1:7c:e5:
        67:45:68:2d:7a:77:56:85:91:5c:f2:eb:55:a1:c2:bc:d7:6d:
        53:92:db:9d:9e:4b:0d:c4:cf:81:49:09:45:d4:37:9e:ec:32:
        33:32:65:ae:ee:66:f0:47:55:64:21:c9:d9:b7:da:78:7e:06:
        f2:98:60:49:84:69:28:df:0e:21:35:00:62:e2:aa:94:46:a2:
        e0:b1:0c:84:bc:34:5d:be:6d:f4:90:0e:80:17:89:03:48:64:
        58:61:55:0c:03:7c:53:91:66:28:42:8e:2b:6f:e0:29:73:6e:
        df:c6:01:db
-----BEGIN CERTIFICATE-----
MIIDSDCCAjCgAwIBAgIQT/34w9c1bE1GdjR3Hgk5pTANBgkqhkiG9w0BAQsFADAc
MRowGAYDVQQDDBFJb3RTY2hvb2wgUm9vdCBDQTAeFw0yMzA0MjUxOTA3NDZaFw0z
MzA0MjIxOTA3NDZaMBsxGTAXBgNVBAMMEElvdFNjaG9vbCBTdWIgQ0EwggEiMA0G
CSqGSIb3DQEBAQUAA4IBDwAwggEKAoIBAQCg6B/p+C+JM/F58yMZtHrGHHEClOAs
9ky+/oI07ZEPfD4PUntoPLgpMOxIlRRnuUbfSrKKPSyCFv5IFX2QEP0h8AvJ/ElS
P3KDA0D3GgvL1q4x4IJ0gPEM3JgEK2EETLWnkEkjz/uLsRiwIMDTHwd04iQ7GOlD
CrdOzyIF7fiC1GL46awESWfuBPOadQgzERkAWq3uJvd9gv3GtO5eJw5vZYgf3lkq
Nn+l71i6/GzFj2UJGy3z9fKeN05G4dIQ82XnblZbtjDtxwPkRs0u0iUJPdZisY9o
4z4IgmBHCGSsVheowqigCipC7x5+vaJUjeAZLnyCt3AKSaw7NLKHqIXpAgMBAAGj
gYYwgYMwHwYDVR0jBBgwFoAUnMZfLhgz7tQWLB/jcfiY6tUiGewwEgYDVR0TAQH/
BAgwBgEB/wIBADAdBgNVHSUEFjAUBggrBgEFBQcDAgYIKwYBBQUHAwEwDgYDVR0P
AQH/BAQDAgEGMB0GA1UdDgQWBBTfY+jFrBOfA7ZIclZl/TQmu84n9TANBgkqhkiG
9w0BAQsFAAOCAQEAR164Qiuf4cSfdNYpOrvyW5AhNzHgONbr9Ojej24L+mq0OyLX
Xd7f9xtpbAr2rI+VArXbx6CzuoOwrsHOELGk/Bcq/jQdzDDA6flVbGQEZy0el/iL
1OCRasNaMLhN0OSFAHV0cr0XZxE965V0xSNCUWloi430WmCXgChHvJBpw43IO49B
IstcaxHArTm0wXzlZ0VoLXp3VoWRXPLrVaHCvNdtU5LbnZ5LDcTPgUkJRdQ3nuwy
MzJlru5m8EdVZCHJ2bfaeH4G8phgSYRpKN8OITUAYuKqlEai4LEMhLw0Xb5t9JAO
gBeJA0hkWGFVDAN8U5FmKEKOK2/gKXNu38YB2w==
-----END CERTIFICATE-----
