Certificate:
    Data:
        Version: 3 (0x2)
        Serial Number:
            eb:22:6e:5f:78:9c:1d:5c:3a:c8:6f:0f:44:6d:3d:0e
        Signature Algorithm: sha256WithRSAEncryption
        Issuer: CN=IotSchool Root CA
        Validity
            Not Before: Apr 25 14:11:14 2023 GMT
            Not After : Apr 22 14:11:14 2033 GMT
        Subject: CN=IotSchool Sub CA
        Subject Public Key Info:
            Public Key Algorithm: rsaEncryption
                Public-Key: (2048 bit)
                Modulus:
                    00:cf:b3:15:8d:4c:d8:11:bb:5f:53:98:cb:aa:73:
                    e1:e2:dd:f8:ff:52:06:87:91:0c:dd:dd:41:93:6a:
                    5f:4d:28:85:13:dd:84:41:5b:5f:d1:b3:ed:e9:88:
                    47:d2:0e:8c:e7:1d:18:07:9b:31:e4:9a:47:40:2b:
                    71:9c:4f:72:ae:d5:a8:52:88:eb:19:83:75:69:76:
                    b7:d3:a8:b9:2a:7b:8e:77:d8:e4:65:00:3e:94:83:
                    4a:98:27:cb:c4:98:72:2f:a5:e5:ae:1e:7c:9f:ab:
                    21:08:a0:ab:fd:bd:f4:b4:3f:e9:9b:ce:1b:11:3f:
                    8a:bb:43:07:5e:a9:c9:6b:c0:2a:ae:c6:17:d5:f1:
                    0a:27:87:55:ac:73:bc:af:81:72:64:c9:ea:63:c1:
                    23:0a:fb:67:f5:dc:99:b0:b2:15:ff:c1:93:eb:7d:
                    90:5e:e9:3b:05:08:35:70:7a:22:54:ff:8d:3d:47:
                    00:af:f6:c6:84:da:8c:a7:57:a8:0a:27:2c:08:9c:
                    c1:5c:65:86:43:74:a1:18:66:48:90:8b:ab:67:a5:
                    9f:bd:5f:68:32:f3:2c:18:e1:29:2e:17:c3:b6:b3:
                    83:72:aa:2a:33:04:28:6d:4a:a9:33:45:fd:12:4d:
                    16:05:06:41:05:95:69:cf:50:71:60:82:46:39:92:
                    49:29
                Exponent: 65537 (0x10001)
        X509v3 extensions:
            X509v3 Authority Key Identifier: 
                9C:C6:5F:2E:18:33:EE:D4:16:2C:1F:E3:71:F8:98:EA:D5:22:19:EC
            X509v3 Basic Constraints: critical
                CA:TRUE, pathlen:0
            X509v3 Extended Key Usage: 
                TLS Web Client Authentication, TLS Web Server Authentication
            X509v3 Key Usage: critical
                Certificate Sign, CRL Sign
            X509v3 Subject Key Identifier: 
                5E:77:03:42:93:A9:5C:99:EB:A5:E5:1C:7B:9F:4A:1A:B7:D9:7E:F5
    Signature Algorithm: sha256WithRSAEncryption
    Signature Value:
        91:a0:67:f9:39:5a:f0:89:da:bd:9d:0d:45:80:77:70:c4:d8:
        8f:1e:39:1a:b7:60:bd:87:3c:04:b1:61:a8:40:2c:a1:f0:19:
        ad:c6:69:ac:25:a2:8e:7c:02:90:53:d5:92:ef:71:7c:a3:47:
        a9:b1:71:02:d2:02:8b:98:97:90:01:a8:6b:e4:7f:af:9d:4d:
        b5:88:f3:4e:8f:7c:0a:68:98:37:5f:61:26:ef:10:a3:9d:6f:
        a2:a2:c6:e6:a7:c1:ce:8d:5c:71:98:ce:7a:29:d1:ce:d6:15:
        8c:68:98:65:db:43:fd:f0:d2:fa:b0:eb:d3:c0:2a:f2:11:36:
        25:84:ce:02:02:42:f2:59:92:2f:39:04:0c:f5:c8:00:45:90:
        66:9b:c6:b5:13:76:5c:f1:69:1d:4d:d6:e7:42:95:e6:f5:63:
        09:4d:e2:68:44:73:fc:57:2a:d7:2f:b1:06:20:b1:63:f5:91:
        ae:cc:15:c9:c5:d9:4a:d2:dd:5f:d8:3c:90:c2:97:12:2f:80:
        68:76:56:0e:12:d6:5c:ee:8c:62:6d:43:42:0c:06:f7:09:ad:
        40:6a:c3:1f:aa:bf:74:f5:14:c9:74:bb:b2:fe:4e:c6:3d:88:
        8e:3a:99:78:3c:35:1e:38:0f:50:95:e8:e9:41:4c:9a:3c:03:
        b1:ec:ce:e1
-----BEGIN CERTIFICATE-----
MIIDSTCCAjGgAwIBAgIRAOsibl94nB1cOshvD0RtPQ4wDQYJKoZIhvcNAQELBQAw
HDEaMBgGA1UEAwwRSW90U2Nob29sIFJvb3QgQ0EwHhcNMjMwNDI1MTQxMTE0WhcN
MzMwNDIyMTQxMTE0WjAbMRkwFwYDVQQDDBBJb3RTY2hvb2wgU3ViIENBMIIBIjAN
BgkqhkiG9w0BAQEFAAOCAQ8AMIIBCgKCAQEAz7MVjUzYEbtfU5jLqnPh4t34/1IG
h5EM3d1Bk2pfTSiFE92EQVtf0bPt6YhH0g6M5x0YB5sx5JpHQCtxnE9yrtWoUojr
GYN1aXa306i5KnuOd9jkZQA+lINKmCfLxJhyL6Xlrh58n6shCKCr/b30tD/pm84b
ET+Ku0MHXqnJa8AqrsYX1fEKJ4dVrHO8r4FyZMnqY8EjCvtn9dyZsLIV/8GT632Q
Xuk7BQg1cHoiVP+NPUcAr/bGhNqMp1eoCicsCJzBXGWGQ3ShGGZIkIurZ6WfvV9o
MvMsGOEpLhfDtrODcqoqMwQobUqpM0X9Ek0WBQZBBZVpz1BxYIJGOZJJKQIDAQAB
o4GGMIGDMB8GA1UdIwQYMBaAFJzGXy4YM+7UFiwf43H4mOrVIhnsMBIGA1UdEwEB
/wQIMAYBAf8CAQAwHQYDVR0lBBYwFAYIKwYBBQUHAwIGCCsGAQUFBwMBMA4GA1Ud
DwEB/wQEAwIBBjAdBgNVHQ4EFgQUXncDQpOpXJnrpeUce59KGrfZfvUwDQYJKoZI
hvcNAQELBQADggEBAJGgZ/k5WvCJ2r2dDUWAd3DE2I8eORq3YL2HPASxYahALKHw
Ga3Gaawloo58ApBT1ZLvcXyjR6mxcQLSAouYl5ABqGvkf6+dTbWI806PfApomDdf
YSbvEKOdb6Kixuanwc6NXHGYznop0c7WFYxomGXbQ/3w0vqw69PAKvIRNiWEzgIC
QvJZki85BAz1yABFkGabxrUTdlzxaR1N1udCleb1YwlN4mhEc/xXKtcvsQYgsWP1
ka7MFcnF2UrS3V/YPJDClxIvgGh2Vg4S1lzujGJtQ0IMBvcJrUBqwx+qv3T1FMl0
u7L+TsY9iI46mXg8NR44D1CV6OlBTJo8A7HszuE=
-----END CERTIFICATE-----
