Certificate:
    Data:
        Version: 3 (0x2)
        Serial Number:
            60:71:dd:5b:53:2b:0f:be:e8:3b:45:06:1e:82:e2:1d
        Signature Algorithm: sha256WithRSAEncryption
        Issuer: CN=IotSchool Root CA
        Validity
            Not Before: Apr 25 18:39:16 2023 GMT
            Not After : Apr 22 18:39:16 2033 GMT
        Subject: CN=IotSchool Sub CA
        Subject Public Key Info:
            Public Key Algorithm: rsaEncryption
                Public-Key: (2048 bit)
                Modulus:
                    00:d5:6d:57:fb:a5:51:a7:a5:82:df:c6:bc:41:1d:
                    a8:17:e1:87:89:da:20:e6:d7:ae:5f:46:8e:ec:ba:
                    6e:3a:12:90:93:64:99:db:0d:3f:58:51:93:de:aa:
                    50:24:0b:4c:7f:3d:c9:44:1b:e2:dc:dc:b5:50:cc:
                    d4:13:21:86:dd:55:44:8c:98:ee:15:35:b6:9b:c2:
                    42:25:2b:af:1b:ad:2e:11:9e:5e:82:eb:00:83:d1:
                    b2:2b:ef:cf:6d:73:76:d1:59:b7:9a:08:4c:f0:c6:
                    1a:21:43:bc:9b:d0:eb:72:49:98:08:3a:95:35:57:
                    70:53:3b:ae:4f:db:45:c7:58:8f:4e:71:83:cb:a9:
                    3e:d6:fd:0f:8b:96:53:ff:24:c9:4e:bb:23:1d:b0:
                    03:7f:93:ec:97:6f:74:23:4a:a5:93:98:55:93:13:
                    45:ff:cc:75:13:a0:bd:fc:e1:87:0a:43:e4:e0:8d:
                    30:78:61:ae:e0:18:a6:3b:b2:a7:c4:17:27:13:1f:
                    f0:52:d5:93:97:08:02:82:8f:7b:1c:d9:ad:8e:b1:
                    bc:62:a7:66:dc:f8:bc:a3:fd:a8:6b:a9:04:f1:cc:
                    65:e4:12:38:d3:8d:c5:75:83:3e:fd:e8:27:f1:34:
                    6c:69:47:39:4b:f9:7c:98:92:b1:a2:f0:4e:f0:d1:
                    7a:83
                Exponent: 65537 (0x10001)
        X509v3 extensions:
            X509v3 Authority Key Identifier: 
                9C:C6:5F:2E:18:33:EE:D4:16:2C:1F:E3:71:F8:98:EA:D5:22:19:EC
            X509v3 Basic Constraints: critical
                CA:TRUE, pathlen:0
            X509v3 Extended Key Usage: 
                TLS Web Client Authentication, TLS Web Server Authentication
            X509v3 Key Usage: critical
                Certificate Sign, CRL Sign
            X509v3 Subject Key Identifier: 
                95:39:50:4F:73:33:49:79:BD:6D:B8:48:64:3D:E2:8A:D9:AB:95:77
    Signature Algorithm: sha256WithRSAEncryption
    Signature Value:
        21:f2:26:c8:a2:7c:4f:5f:94:28:6b:f6:40:26:3d:e5:7d:c3:
        b6:7d:ee:33:c9:10:49:82:25:9d:0f:ae:bc:93:2d:2d:26:65:
        bd:90:0a:2f:5c:87:76:a0:b1:90:b8:22:14:d2:93:83:80:d2:
        55:c1:8e:4a:7d:06:29:37:61:42:33:f5:51:c0:55:7f:98:5d:
        1f:7d:32:10:c8:3f:a1:0f:21:fe:56:f4:22:1c:4d:3e:00:1f:
        51:ee:93:c7:3f:6f:98:34:38:25:f0:a5:14:e1:ba:8d:ea:33:
        5d:63:4e:24:00:ba:6e:48:ca:0e:18:b3:9e:49:4c:02:f7:9f:
        36:db:c8:ff:b4:66:16:33:aa:38:68:89:99:07:39:98:a4:34:
        72:82:22:d3:31:68:cd:07:d3:92:32:6a:48:6f:62:b3:84:73:
        95:70:f1:41:f6:5a:db:00:22:b8:2b:80:e6:a8:6b:a5:5d:d6:
        b7:1e:de:9d:ef:f3:bb:5e:57:86:77:04:4c:1f:1c:e1:d2:b1:
        c3:8c:97:ca:96:a7:ca:b8:7e:6e:55:41:4d:c8:f6:b9:0d:f8:
        fe:b6:8e:b9:8d:e0:44:66:00:f3:a7:a2:4a:87:2b:25:a3:b0:
        0a:de:a3:e1:be:da:ca:09:c5:58:b3:ba:3d:e5:08:13:72:c9:
        23:37:22:c2
-----BEGIN CERTIFICATE-----
MIIDSDCCAjCgAwIBAgIQYHHdW1MrD77oO0UGHoLiHTANBgkqhkiG9w0BAQsFADAc
MRowGAYDVQQDDBFJb3RTY2hvb2wgUm9vdCBDQTAeFw0yMzA0MjUxODM5MTZaFw0z
MzA0MjIxODM5MTZaMBsxGTAXBgNVBAMMEElvdFNjaG9vbCBTdWIgQ0EwggEiMA0G
CSqGSIb3DQEBAQUAA4IBDwAwggEKAoIBAQDVbVf7pVGnpYLfxrxBHagX4YeJ2iDm
165fRo7sum46EpCTZJnbDT9YUZPeqlAkC0x/PclEG+Lc3LVQzNQTIYbdVUSMmO4V
NbabwkIlK68brS4Rnl6C6wCD0bIr789tc3bRWbeaCEzwxhohQ7yb0OtySZgIOpU1
V3BTO65P20XHWI9OcYPLqT7W/Q+LllP/JMlOuyMdsAN/k+yXb3QjSqWTmFWTE0X/
zHUToL384YcKQ+TgjTB4Ya7gGKY7sqfEFycTH/BS1ZOXCAKCj3sc2a2Osbxip2bc
+Lyj/ahrqQTxzGXkEjjTjcV1gz796CfxNGxpRzlL+XyYkrGi8E7w0XqDAgMBAAGj
gYYwgYMwHwYDVR0jBBgwFoAUnMZfLhgz7tQWLB/jcfiY6tUiGewwEgYDVR0TAQH/
BAgwBgEB/wIBADAdBgNVHSUEFjAUBggrBgEFBQcDAgYIKwYBBQUHAwEwDgYDVR0P
AQH/BAQDAgEGMB0GA1UdDgQWBBSVOVBPczNJeb1tuEhkPeKK2auVdzANBgkqhkiG
9w0BAQsFAAOCAQEAIfImyKJ8T1+UKGv2QCY95X3Dtn3uM8kQSYIlnQ+uvJMtLSZl
vZAKL1yHdqCxkLgiFNKTg4DSVcGOSn0GKTdhQjP1UcBVf5hdH30yEMg/oQ8h/lb0
IhxNPgAfUe6Txz9vmDQ4JfClFOG6jeozXWNOJAC6bkjKDhiznklMAvefNtvI/7Rm
FjOqOGiJmQc5mKQ0coIi0zFozQfTkjJqSG9is4RzlXDxQfZa2wAiuCuA5qhrpV3W
tx7ene/zu15XhncETB8c4dKxw4yXypanyrh+blVBTcj2uQ34/raOuY3gRGYA86ei
SocrJaOwCt6j4b7aygnFWLO6PeUIE3LJIzciwg==
-----END CERTIFICATE-----
