Certificate:
    Data:
        Version: 3 (0x2)
        Serial Number:
            30:ac:8e:48:cb:37:d4:55:eb:c1:2c:50:25:57:7a:e4
        Signature Algorithm: sha256WithRSAEncryption
        Issuer: CN=IotSchool Root CA
        Validity
            Not Before: Apr 25 14:45:01 2023 GMT
            Not After : Apr 22 14:45:01 2033 GMT
        Subject: CN=IotSchool Sub CA
        Subject Public Key Info:
            Public Key Algorithm: rsaEncryption
                Public-Key: (2048 bit)
                Modulus:
                    00:9c:1f:e1:f3:78:8f:47:1b:e4:7b:e3:d3:1c:c7:
                    42:9f:1c:af:09:f7:8d:4b:7a:6d:64:4d:7a:c0:c5:
                    90:19:d5:d9:5d:08:b9:1e:ff:22:5e:d7:7e:70:8d:
                    69:5f:da:b7:26:9b:dc:3a:4d:33:8d:4e:00:d9:ee:
                    91:46:f5:a7:c8:7e:9c:f8:03:39:8a:ac:f2:62:37:
                    e9:87:a0:1e:8e:54:65:63:94:60:ae:16:3b:63:a2:
                    df:c1:2a:ec:b3:70:80:94:7a:08:be:a0:2f:bc:71:
                    5d:59:c1:1d:d2:8c:a1:0a:18:d2:f4:9a:4b:1c:e9:
                    22:a7:d6:34:b4:82:cd:3b:e5:ce:7a:43:0a:eb:a8:
                    1c:74:1e:41:15:d6:8b:b4:be:c4:16:94:9e:e9:5d:
                    e5:d7:b4:fd:44:a6:80:8f:85:00:04:d7:c4:8e:80:
                    57:0a:79:1d:8d:4e:3b:62:3d:73:af:c3:a1:35:d1:
                    17:ec:56:7d:ab:64:3a:14:95:9e:7d:14:17:65:8c:
                    f0:c6:4d:3c:d6:58:86:96:6e:cd:c0:dd:28:5f:54:
                    33:ce:b8:df:dd:ff:b9:d5:6e:fd:e4:fc:7d:da:df:
                    ec:5b:55:f7:dc:57:38:05:3d:0d:d3:ee:5d:06:aa:
                    3d:29:15:04:5e:be:fb:0f:fd:55:17:7e:c6:d0:f9:
                    90:bb
                Exponent: 65537 (0x10001)
        X509v3 extensions:
            X509v3 Authority Key Identifier: 
                9C:C6:5F:2E:18:33:EE:D4:16:2C:1F:E3:71:F8:98:EA:D5:22:19:EC
            X509v3 Basic Constraints: critical
                CA:TRUE, pathlen:0
            X509v3 Extended Key Usage: 
                TLS Web Client Authentication, TLS Web Server Authentication
            X509v3 Key Usage: critical
                Certificate Sign, CRL Sign
            X509v3 Subject Key Identifier: 
                D1:E7:53:F6:EF:9F:E6:28:7B:71:4A:F9:55:D8:5C:40:74:32:A1:FC
    Signature Algorithm: sha256WithRSAEncryption
    Signature Value:
        4a:77:05:4e:65:d9:9c:d2:bb:e8:e1:34:ba:66:a9:95:9c:76:
        1f:a6:9a:52:f1:37:94:87:af:8d:33:72:1e:38:2f:a7:5a:2a:
        4f:a5:c2:2c:46:5b:ee:de:90:c8:6c:46:3b:75:12:f3:d2:0c:
        62:bb:97:86:85:ad:3f:91:f5:0c:d0:ae:dc:e5:a3:bd:86:e0:
        03:21:40:bf:0b:66:4e:dd:f5:5e:4a:93:1a:ac:e4:b9:01:88:
        cb:90:b1:94:35:87:ea:09:a6:93:08:ae:a6:a8:0f:67:80:38:
        7d:a2:4c:0f:7a:c3:a5:28:ed:48:f8:15:de:b6:be:bf:d7:b9:
        81:79:14:d4:03:b5:e9:1c:2d:ab:f9:45:0b:8b:5a:ae:d0:28:
        e4:34:23:a1:3a:c6:92:5b:37:d5:c2:c3:d5:f7:28:4c:e5:4b:
        c6:b5:a6:08:e1:83:2a:69:36:a1:34:5d:2e:ac:de:0e:a7:18:
        d3:aa:b6:f3:43:84:14:cb:c0:3f:6f:ef:71:3f:0c:25:ca:dd:
        3a:99:18:97:b7:8b:e3:5f:9c:84:2e:b9:9a:f2:fe:c9:57:99:
        e3:51:22:11:92:fb:a3:16:17:4d:4c:7b:c3:14:36:6a:99:a2:
        3d:02:e5:62:92:7c:cd:51:04:54:de:67:b0:9a:e0:dc:8e:e8:
        15:2c:56:58
-----BEGIN CERTIFICATE-----
MIIDSDCCAjCgAwIBAgIQMKyOSMs31FXrwSxQJVd65DANBgkqhkiG9w0BAQsFADAc
MRowGAYDVQQDDBFJb3RTY2hvb2wgUm9vdCBDQTAeFw0yMzA0MjUxNDQ1MDFaFw0z
MzA0MjIxNDQ1MDFaMBsxGTAXBgNVBAMMEElvdFNjaG9vbCBTdWIgQ0EwggEiMA0G
CSqGSIb3DQEBAQUAA4IBDwAwggEKAoIBAQCcH+HzeI9HG+R749Mcx0KfHK8J941L
em1kTXrAxZAZ1dldCLke/yJe135wjWlf2rcmm9w6TTONTgDZ7pFG9afIfpz4AzmK
rPJiN+mHoB6OVGVjlGCuFjtjot/BKuyzcICUegi+oC+8cV1ZwR3SjKEKGNL0mksc
6SKn1jS0gs075c56QwrrqBx0HkEV1ou0vsQWlJ7pXeXXtP1EpoCPhQAE18SOgFcK
eR2NTjtiPXOvw6E10RfsVn2rZDoUlZ59FBdljPDGTTzWWIaWbs3A3ShfVDPOuN/d
/7nVbv3k/H3a3+xbVffcVzgFPQ3T7l0Gqj0pFQRevvsP/VUXfsbQ+ZC7AgMBAAGj
gYYwgYMwHwYDVR0jBBgwFoAUnMZfLhgz7tQWLB/jcfiY6tUiGewwEgYDVR0TAQH/
BAgwBgEB/wIBADAdBgNVHSUEFjAUBggrBgEFBQcDAgYIKwYBBQUHAwEwDgYDVR0P
AQH/BAQDAgEGMB0GA1UdDgQWBBTR51P275/mKHtxSvlV2FxAdDKh/DANBgkqhkiG
9w0BAQsFAAOCAQEASncFTmXZnNK76OE0umaplZx2H6aaUvE3lIevjTNyHjgvp1oq
T6XCLEZb7t6QyGxGO3US89IMYruXhoWtP5H1DNCu3OWjvYbgAyFAvwtmTt31XkqT
GqzkuQGIy5CxlDWH6gmmkwiupqgPZ4A4faJMD3rDpSjtSPgV3ra+v9e5gXkU1AO1
6Rwtq/lFC4tartAo5DQjoTrGkls31cLD1fcoTOVLxrWmCOGDKmk2oTRdLqzeDqcY
06q280OEFMvAP2/vcT8MJcrdOpkYl7eL41+chC65mvL+yVeZ41EiEZL7oxYXTUx7
wxQ2apmiPQLlYpJ8zVEEVN5nsJrg3I7oFSxWWA==
-----END CERTIFICATE-----
