Certificate:
    Data:
        Version: 3 (0x2)
        Serial Number:
            9c:59:70:53:f0:06:c3:bc:cc:ac:aa:bc:e5:1a:04:f7
        Signature Algorithm: sha256WithRSAEncryption
        Issuer: CN=IotSchool Root CA
        Validity
            Not Before: Apr 25 14:38:11 2023 GMT
            Not After : Apr 22 14:38:11 2033 GMT
        Subject: CN=IotSchool Sub CA
        Subject Public Key Info:
            Public Key Algorithm: rsaEncryption
                Public-Key: (2048 bit)
                Modulus:
                    00:97:9e:5d:3e:15:17:3b:58:d9:74:fa:75:00:2e:
                    ac:8c:96:6e:f5:47:a8:db:59:8d:4e:3b:f8:5e:0b:
                    bb:92:b6:83:ba:ce:fd:ae:06:2a:a2:86:b0:21:12:
                    a6:a7:2d:67:1e:b2:a3:51:2e:57:45:03:05:1b:b9:
                    aa:b3:ab:d0:5d:a9:7d:51:7b:b8:75:3b:59:98:41:
                    38:30:ff:ab:fc:16:b5:0c:ee:a3:22:ee:c2:37:c3:
                    a3:72:88:d2:d2:ee:6e:48:73:ae:cb:cf:9f:e8:50:
                    6c:48:21:6e:f0:35:f7:1c:82:ed:bf:f6:2f:7c:7e:
                    eb:df:83:d3:be:ec:bb:6a:b1:99:27:f5:9f:1b:12:
                    2a:08:c2:7c:99:fb:99:1d:bd:8b:d5:7b:5e:f9:03:
                    2e:fc:e6:8f:93:a5:36:ff:98:1a:fa:f0:e5:e4:82:
                    b2:0b:41:da:46:12:5e:5d:18:fe:0c:70:de:f2:33:
                    62:4a:b6:1a:5c:be:3d:fa:19:4a:2d:07:13:8b:27:
                    56:5f:fb:82:75:cb:2a:55:c8:6f:47:fa:92:e7:86:
                    a6:9b:b4:b7:f3:51:d6:0c:c5:71:70:f1:71:88:31:
                    f2:5a:b4:9a:2f:f0:bf:a9:eb:ae:54:80:86:41:72:
                    05:7b:c2:6a:5c:17:62:ca:db:90:81:42:15:fc:1a:
                    d3:a7
                Exponent: 65537 (0x10001)
        X509v3 extensions:
            X509v3 Authority Key Identifier: 
                9C:C6:5F:2E:18:33:EE:D4:16:2C:1F:E3:71:F8:98:EA:D5:22:19:EC
            X509v3 Basic Constraints: critical
                CA:TRUE, pathlen:0
            X509v3 Extended Key Usage: 
                TLS Web Client Authentication, TLS Web Server Authentication
            X509v3 Key Usage: critical
                Certificate Sign, CRL Sign
            X509v3 Subject Key Identifier: 
                01:84:CC:4E:74:16:93:1B:BA:9A:C1:B6:23:29:BF:0D:3E:03:36:C5
    Signature Algorithm: sha256WithRSAEncryption
    Signature Value:
        22:e8:82:c7:3d:30:e5:12:76:45:6a:1c:99:9e:5d:65:bf:93:
        1e:1f:40:74:22:d4:9e:ab:3d:59:29:f0:1e:8b:f6:ef:f1:ee:
        9d:78:d2:4c:ad:2d:c0:b5:4a:ec:e7:72:82:56:7f:16:dd:fd:
        41:06:ee:90:69:c3:f3:de:82:fc:7a:d2:b0:6d:c6:92:a3:dd:
        92:76:62:99:94:26:c8:61:61:23:9d:ed:51:62:d5:8c:a6:9e:
        a2:6f:3c:40:08:ba:05:34:64:b5:d4:eb:1c:61:a5:0e:06:69:
        a3:2c:90:d6:b5:74:4a:aa:4b:4b:44:d7:ce:66:e8:c9:53:df:
        44:a5:51:59:d2:73:8f:36:f0:00:82:54:77:d8:39:ec:a3:14:
        ac:47:cd:71:d7:5e:24:9a:b1:b0:a7:19:af:f1:ff:90:35:21:
        95:a3:f4:fa:b9:04:2a:23:0b:ec:34:21:97:39:65:c1:bb:6e:
        c5:41:b5:e7:bc:bb:44:bc:63:c5:6c:a8:55:3b:c2:80:b8:e8:
        30:f7:e1:35:a7:54:58:74:32:f0:44:14:d7:e1:43:34:93:61:
        c8:cb:25:59:2b:cf:5a:45:f0:f5:f3:fa:e1:ef:bc:bd:a0:41:
        f1:bf:5f:92:b4:52:58:a3:4d:9c:ee:ea:c0:34:0c:65:f5:79:
        b9:42:8d:e4
-----BEGIN CERTIFICATE-----
MIIDSTCCAjGgAwIBAgIRAJxZcFPwBsO8zKyqvOUaBPcwDQYJKoZIhvcNAQELBQAw
HDEaMBgGA1UEAwwRSW90U2Nob29sIFJvb3QgQ0EwHhcNMjMwNDI1MTQzODExWhcN
MzMwNDIyMTQzODExWjAbMRkwFwYDVQQDDBBJb3RTY2hvb2wgU3ViIENBMIIBIjAN
BgkqhkiG9w0BAQEFAAOCAQ8AMIIBCgKCAQEAl55dPhUXO1jZdPp1AC6sjJZu9Ueo
21mNTjv4Xgu7kraDus79rgYqooawIRKmpy1nHrKjUS5XRQMFG7mqs6vQXal9UXu4
dTtZmEE4MP+r/Ba1DO6jIu7CN8OjcojS0u5uSHOuy8+f6FBsSCFu8DX3HILtv/Yv
fH7r34PTvuy7arGZJ/WfGxIqCMJ8mfuZHb2L1Xte+QMu/OaPk6U2/5ga+vDl5IKy
C0HaRhJeXRj+DHDe8jNiSrYaXL49+hlKLQcTiydWX/uCdcsqVchvR/qS54amm7S3
81HWDMVxcPFxiDHyWrSaL/C/qeuuVICGQXIFe8JqXBdiytuQgUIV/BrTpwIDAQAB
o4GGMIGDMB8GA1UdIwQYMBaAFJzGXy4YM+7UFiwf43H4mOrVIhnsMBIGA1UdEwEB
/wQIMAYBAf8CAQAwHQYDVR0lBBYwFAYIKwYBBQUHAwIGCCsGAQUFBwMBMA4GA1Ud
DwEB/wQEAwIBBjAdBgNVHQ4EFgQUAYTMTnQWkxu6msG2Iym/DT4DNsUwDQYJKoZI
hvcNAQELBQADggEBACLogsc9MOUSdkVqHJmeXWW/kx4fQHQi1J6rPVkp8B6L9u/x
7p140kytLcC1SuzncoJWfxbd/UEG7pBpw/Pegvx60rBtxpKj3ZJ2YpmUJshhYSOd
7VFi1YymnqJvPEAIugU0ZLXU6xxhpQ4GaaMskNa1dEqqS0tE185m6MlT30SlUVnS
c4828ACCVHfYOeyjFKxHzXHXXiSasbCnGa/x/5A1IZWj9Pq5BCojC+w0IZc5ZcG7
bsVBtee8u0S8Y8VsqFU7woC46DD34TWnVFh0MvBEFNfhQzSTYcjLJVkrz1pF8PXz
+uHvvL2gQfG/X5K0UlijTZzu6sA0DGX1eblCjeQ=
-----END CERTIFICATE-----
