Certificate:
    Data:
        Version: 3 (0x2)
        Serial Number:
            e7:05:25:dd:69:38:8d:a0:eb:43:bd:35:21:12:0a:f9
        Signature Algorithm: sha256WithRSAEncryption
        Issuer: CN=IotSchool Root CA
        Validity
            Not Before: Apr 25 14:14:04 2023 GMT
            Not After : Apr 22 14:14:04 2033 GMT
        Subject: CN=IotSchool Sub CA
        Subject Public Key Info:
            Public Key Algorithm: rsaEncryption
                Public-Key: (2048 bit)
                Modulus:
                    00:dc:6b:40:4c:61:74:47:28:b2:09:c8:87:4e:60:
                    02:49:52:ef:aa:6a:e9:8d:c2:a2:da:a9:7d:c2:5f:
                    d0:e1:c4:00:6f:8a:0c:1b:f7:de:ff:cb:fb:a1:f0:
                    05:8d:53:5c:dd:81:f8:c5:75:a1:4b:4f:68:f0:01:
                    9a:f1:21:c8:b5:1e:a1:7d:40:01:68:09:1e:98:6e:
                    e7:64:5b:c0:2d:69:61:31:17:27:fb:e7:4d:62:26:
                    a9:f7:3d:68:d3:2c:df:96:88:01:f8:72:ae:5c:73:
                    86:80:52:fd:c6:9e:df:53:15:cb:6c:a3:9a:e0:ea:
                    36:6c:75:34:c6:70:01:3c:90:7d:72:80:d6:ea:91:
                    a1:6a:8c:1d:fe:99:12:7e:dd:d1:6d:9c:a6:44:16:
                    ee:d7:f3:f6:95:34:2e:03:14:df:93:01:f9:60:9a:
                    2f:21:94:74:6a:06:26:86:c0:a7:43:11:13:9f:14:
                    97:44:d3:3d:ed:e9:d1:b2:9e:e2:af:60:87:bb:ed:
                    59:2c:9d:ca:6c:ec:7b:8d:1d:45:33:e8:0d:25:41:
                    f7:08:38:5c:23:bf:72:24:45:cc:b7:00:c6:9d:5e:
                    0f:55:7b:45:17:80:5b:6d:b3:48:7b:57:9b:74:ff:
                    7b:17:8c:76:2c:a8:06:7e:28:83:57:d2:a4:f6:f0:
                    4e:cd
                Exponent: 65537 (0x10001)
        X509v3 extensions:
            X509v3 Authority Key Identifier: 
                9C:C6:5F:2E:18:33:EE:D4:16:2C:1F:E3:71:F8:98:EA:D5:22:19:EC
            X509v3 Basic Constraints: critical
                CA:TRUE, pathlen:0
            X509v3 Extended Key Usage: 
                TLS Web Client Authentication, TLS Web Server Authentication
            X509v3 Key Usage: critical
                Certificate Sign, CRL Sign
            X509v3 Subject Key Identifier: 
                9E:58:44:D5:7C:27:FD:C3:90:45:42:97:3E:E1:FC:E9:1B:97:D8:D0
    Signature Algorithm: sha256WithRSAEncryption
    Signature Value:
        b0:a8:22:33:ae:c2:8c:c3:1d:1d:c3:03:25:3b:2d:78:97:f9:
        71:03:05:66:9b:8a:50:f4:99:bd:58:03:59:b1:fa:6a:e6:83:
        ac:7a:19:c8:9b:d5:d0:94:7d:ec:a3:cb:39:a5:56:75:13:0c:
        6b:d3:d7:02:91:f5:bc:8e:fd:24:c5:70:91:af:ae:b3:14:67:
        7d:8f:a7:df:5c:c0:d7:ac:0a:50:b0:b0:3f:15:37:82:a0:bd:
        a4:7a:0d:d1:1a:54:47:ee:6a:f1:91:8a:9a:46:ee:96:f7:95:
        d1:56:13:3a:8c:fa:00:4c:bd:0e:d0:e6:26:2b:a9:00:ff:fc:
        4e:df:9a:f4:05:dd:7f:bc:42:a7:ce:74:38:d5:35:77:a4:f8:
        c1:20:e3:35:19:90:9c:73:ca:4a:c1:7f:e3:7d:0e:28:a2:51:
        c4:97:a3:0f:c3:38:9c:08:85:d6:ae:90:23:d0:fc:d2:d7:18:
        e5:4c:0b:a9:e9:e7:d2:1f:60:9c:8d:40:eb:61:31:c5:52:2a:
        8f:84:67:94:03:15:1f:62:8f:16:ca:f8:8d:11:0e:d7:e7:ee:
        c2:9e:4a:e1:85:dc:4f:5d:e8:b2:d1:4d:3a:ab:24:4b:26:60:
        0a:65:51:bb:70:e1:ef:82:55:ee:c9:f5:b4:2c:68:e5:fd:d8:
        9e:11:43:9e
-----BEGIN CERTIFICATE-----
MIIDSTCCAjGgAwIBAgIRAOcFJd1pOI2g60O9NSESCvkwDQYJKoZIhvcNAQELBQAw
HDEaMBgGA1UEAwwRSW90U2Nob29sIFJvb3QgQ0EwHhcNMjMwNDI1MTQxNDA0WhcN
MzMwNDIyMTQxNDA0WjAbMRkwFwYDVQQDDBBJb3RTY2hvb2wgU3ViIENBMIIBIjAN
BgkqhkiG9w0BAQEFAAOCAQ8AMIIBCgKCAQEA3GtATGF0RyiyCciHTmACSVLvqmrp
jcKi2ql9wl/Q4cQAb4oMG/fe/8v7ofAFjVNc3YH4xXWhS09o8AGa8SHItR6hfUAB
aAkemG7nZFvALWlhMRcn++dNYiap9z1o0yzflogB+HKuXHOGgFL9xp7fUxXLbKOa
4Oo2bHU0xnABPJB9coDW6pGhaowd/pkSft3RbZymRBbu1/P2lTQuAxTfkwH5YJov
IZR0agYmhsCnQxETnxSXRNM97enRsp7ir2CHu+1ZLJ3KbOx7jR1FM+gNJUH3CDhc
I79yJEXMtwDGnV4PVXtFF4BbbbNIe1ebdP97F4x2LKgGfiiDV9Kk9vBOzQIDAQAB
o4GGMIGDMB8GA1UdIwQYMBaAFJzGXy4YM+7UFiwf43H4mOrVIhnsMBIGA1UdEwEB
/wQIMAYBAf8CAQAwHQYDVR0lBBYwFAYIKwYBBQUHAwIGCCsGAQUFBwMBMA4GA1Ud
DwEB/wQEAwIBBjAdBgNVHQ4EFgQUnlhE1Xwn/cOQRUKXPuH86RuX2NAwDQYJKoZI
hvcNAQELBQADggEBALCoIjOuwozDHR3DAyU7LXiX+XEDBWabilD0mb1YA1mx+mrm
g6x6Gcib1dCUfeyjyzmlVnUTDGvT1wKR9byO/STFcJGvrrMUZ32Pp99cwNesClCw
sD8VN4KgvaR6DdEaVEfuavGRippG7pb3ldFWEzqM+gBMvQ7Q5iYrqQD//E7fmvQF
3X+8QqfOdDjVNXek+MEg4zUZkJxzykrBf+N9DiiiUcSXow/DOJwIhdaukCPQ/NLX
GOVMC6np59IfYJyNQOthMcVSKo+EZ5QDFR9ijxbK+I0RDtfn7sKeSuGF3E9d6LLR
TTqrJEsmYAplUbtw4e+CVe7J9bQsaOX92J4RQ54=
-----END CERTIFICATE-----
