Certificate:
    Data:
        Version: 3 (0x2)
        Serial Number:
            1f:4c:9e:eb:bf:b0:0e:87:66:b9:55:48:c6:bd:a3:77
        Signature Algorithm: sha256WithRSAEncryption
        Issuer: CN=IotSchool Root CA
        Validity
            Not Before: Apr 25 14:05:32 2023 GMT
            Not After : Apr 22 14:05:32 2033 GMT
        Subject: CN=IotSchool Sub CA
        Subject Public Key Info:
            Public Key Algorithm: rsaEncryption
                Public-Key: (2048 bit)
                Modulus:
                    00:f9:7d:2b:d3:fc:d4:69:f5:e4:37:75:d3:ac:94:
                    07:6c:29:72:9b:44:3a:7d:34:c0:d4:ab:72:fb:5a:
                    01:4e:12:da:78:56:3f:3b:f9:3b:31:e9:df:63:b9:
                    65:83:43:23:fe:bd:da:e3:99:8b:43:4d:a8:1e:f1:
                    34:a9:2f:21:cf:4f:d0:06:91:0f:2c:b1:f0:be:f3:
                    6a:a5:ea:22:5b:ff:b5:75:55:f5:08:12:44:b2:6f:
                    d3:4d:78:59:82:b3:e9:7c:ab:e3:8f:69:8d:4d:cb:
                    7d:91:99:77:55:03:b7:5d:a9:a4:cb:59:25:4a:1b:
                    6f:1e:b8:6a:bc:c4:1a:02:8d:99:31:7c:32:82:9a:
                    d5:c6:1d:cf:68:a2:9d:96:7c:59:bb:9d:2a:7a:81:
                    a0:3a:e7:f8:d8:a3:e1:f2:59:dd:6c:6c:84:da:c3:
                    fd:f3:02:c5:fb:39:e3:33:c7:ee:c8:2f:ff:3d:fa:
                    ae:b7:6a:0b:7f:6a:29:a6:55:c9:09:b0:ae:b7:73:
                    e9:76:a1:78:d2:be:f3:aa:1e:37:99:8e:f9:fa:6d:
                    8a:e8:b4:bb:dc:c6:fb:bd:17:ad:10:7d:6f:71:ba:
                    62:a4:3c:6e:fd:03:28:92:0e:76:c9:cc:c8:f7:a8:
                    eb:9d:b9:0a:f7:db:ce:a4:32:f5:3f:48:72:86:cb:
                    b2:25
                Exponent: 65537 (0x10001)
        X509v3 extensions:
            X509v3 Authority Key Identifier: 
                9C:C6:5F:2E:18:33:EE:D4:16:2C:1F:E3:71:F8:98:EA:D5:22:19:EC
            X509v3 Basic Constraints: critical
                CA:TRUE, pathlen:0
            X509v3 Extended Key Usage: 
                TLS Web Client Authentication, TLS Web Server Authentication
            X509v3 Key Usage: critical
                Certificate Sign, CRL Sign
            X509v3 Subject Key Identifier: 
                AE:3E:25:DF:4B:91:C7:6C:4A:7B:82:D0:59:D1:E2:72:6C:9F:D9:E2
    Signature Algorithm: sha256WithRSAEncryption
    Signature Value:
        08:43:6b:72:e6:5a:42:e8:a1:59:a1:b3:cc:06:a5:87:98:bb:
        af:6d:e1:af:11:72:ff:43:66:2b:5b:fa:87:a3:e9:d8:d5:d5:
        2d:20:83:b0:22:3a:44:c8:40:05:fb:9c:5c:74:b2:a6:9a:90:
        34:0e:af:de:ec:ed:28:17:9e:fe:34:9b:a4:0d:22:14:ee:4d:
        b1:e6:c1:31:09:05:56:92:4d:1c:4b:dd:4d:ad:ae:e3:ee:47:
        9a:4a:0d:fe:2a:2b:7a:6e:58:93:16:b6:97:44:50:a9:7c:5b:
        40:cc:c2:11:99:6e:d7:05:12:60:6f:5b:d6:a8:af:6e:02:76:
        d9:eb:f1:df:77:1f:08:47:0c:c3:0f:a2:5c:f2:42:54:5b:6f:
        f5:d5:2f:e8:f5:c4:43:f5:ad:b9:0b:8a:39:ad:f6:c2:81:97:
        49:ce:aa:7e:8a:34:1a:eb:85:77:16:56:8a:86:a8:d4:5b:89:
        8a:ea:91:8c:c2:e5:35:7f:77:70:23:46:6b:6b:ec:65:69:e2:
        7a:d1:b8:c2:3e:76:4b:24:11:86:d2:5b:17:79:02:b1:ca:1a:
        93:02:82:d5:d7:5c:13:8b:2c:cd:a2:88:1c:89:0c:1b:e2:d7:
        10:c2:a6:56:71:af:9f:c8:14:15:bb:4e:10:52:0d:2d:97:b8:
        3a:38:74:00
-----BEGIN CERTIFICATE-----
MIIDSDCCAjCgAwIBAgIQH0ye67+wDodmuVVIxr2jdzANBgkqhkiG9w0BAQsFADAc
MRowGAYDVQQDDBFJb3RTY2hvb2wgUm9vdCBDQTAeFw0yMzA0MjUxNDA1MzJaFw0z
MzA0MjIxNDA1MzJaMBsxGTAXBgNVBAMMEElvdFNjaG9vbCBTdWIgQ0EwggEiMA0G
CSqGSIb3DQEBAQUAA4IBDwAwggEKAoIBAQD5fSvT/NRp9eQ3ddOslAdsKXKbRDp9
NMDUq3L7WgFOEtp4Vj87+Tsx6d9juWWDQyP+vdrjmYtDTage8TSpLyHPT9AGkQ8s
sfC+82ql6iJb/7V1VfUIEkSyb9NNeFmCs+l8q+OPaY1Ny32RmXdVA7ddqaTLWSVK
G28euGq8xBoCjZkxfDKCmtXGHc9oop2WfFm7nSp6gaA65/jYo+HyWd1sbITaw/3z
AsX7OeMzx+7IL/89+q63agt/aimmVckJsK63c+l2oXjSvvOqHjeZjvn6bYrotLvc
xvu9F60QfW9xumKkPG79AyiSDnbJzMj3qOuduQr3286kMvU/SHKGy7IlAgMBAAGj
gYYwgYMwHwYDVR0jBBgwFoAUnMZfLhgz7tQWLB/jcfiY6tUiGewwEgYDVR0TAQH/
BAgwBgEB/wIBADAdBgNVHSUEFjAUBggrBgEFBQcDAgYIKwYBBQUHAwEwDgYDVR0P
AQH/BAQDAgEGMB0GA1UdDgQWBBSuPiXfS5HHbEp7gtBZ0eJybJ/Z4jANBgkqhkiG
9w0BAQsFAAOCAQEACENrcuZaQuihWaGzzAalh5i7r23hrxFy/0NmK1v6h6Pp2NXV
LSCDsCI6RMhABfucXHSyppqQNA6v3uztKBee/jSbpA0iFO5NsebBMQkFVpJNHEvd
Ta2u4+5HmkoN/iorem5Ykxa2l0RQqXxbQMzCEZlu1wUSYG9b1qivbgJ22evx33cf
CEcMww+iXPJCVFtv9dUv6PXEQ/WtuQuKOa32woGXSc6qfoo0GuuFdxZWioao1FuJ
iuqRjMLlNX93cCNGa2vsZWnietG4wj52SyQRhtJbF3kCscoakwKC1ddcE4sszaKI
HIkMG+LXEMKmVnGvn8gUFbtOEFINLZe4Ojh0AA==
-----END CERTIFICATE-----
