Certificate:
    Data:
        Version: 3 (0x2)
        Serial Number:
            07:a1:08:74:d4:a2:d4:0c:12:f0:5d:db:46:02:31:75
        Signature Algorithm: sha256WithRSAEncryption
        Issuer: CN=IotSchool Root CA
        Validity
            Not Before: Apr 25 18:11:11 2023 GMT
            Not After : Apr 22 18:11:11 2033 GMT
        Subject: CN=IotSchool Sub CA
        Subject Public Key Info:
            Public Key Algorithm: rsaEncryption
                Public-Key: (2048 bit)
                Modulus:
                    00:ba:b6:fb:09:9d:2d:10:66:1f:67:59:ed:dd:d5:
                    38:03:09:45:1d:a6:cf:11:db:3a:7e:90:11:ac:a7:
                    ff:81:df:63:9d:85:64:ef:8c:6a:a4:a2:03:4b:f4:
                    41:80:c5:76:51:37:fd:a8:d8:3d:33:18:96:f9:04:
                    ce:74:9b:5a:55:be:3f:54:7a:60:87:75:0a:3d:6e:
                    b1:cd:c7:9e:12:ff:f4:e5:ba:35:a3:96:45:ef:2e:
                    97:1d:ee:fe:44:b5:56:d6:2d:7c:80:0e:a4:69:73:
                    ee:99:70:87:01:67:2d:f9:c6:3e:c0:18:92:1d:a4:
                    ac:0a:17:06:06:c6:07:ae:e3:b6:c6:99:2b:3f:f3:
                    28:da:bc:04:22:2d:95:42:33:1c:40:1a:1f:76:90:
                    d3:35:5d:82:5d:e6:f0:f7:ef:18:60:cf:f0:38:a3:
                    e2:69:67:f1:01:d0:75:e5:66:f1:7a:31:1f:b9:08:
                    56:8b:05:b5:88:11:65:8a:b9:b3:23:5c:f6:9a:33:
                    04:ab:23:13:aa:28:03:ea:9a:6d:b5:d7:70:9a:7d:
                    42:48:ae:a6:0e:d6:ca:72:01:7e:fb:c5:96:e3:96:
                    f6:30:19:6d:15:36:10:71:b7:a0:48:df:1b:15:f0:
                    5c:4d:10:ed:a7:61:70:81:d1:62:86:30:1e:ed:d3:
                    62:e9
                Exponent: 65537 (0x10001)
        X509v3 extensions:
            X509v3 Authority Key Identifier: 
                9C:C6:5F:2E:18:33:EE:D4:16:2C:1F:E3:71:F8:98:EA:D5:22:19:EC
            X509v3 Basic Constraints: critical
                CA:TRUE, pathlen:0
            X509v3 Extended Key Usage: 
                TLS Web Client Authentication, TLS Web Server Authentication
            X509v3 Key Usage: critical
                Certificate Sign, CRL Sign
            X509v3 Subject Key Identifier: 
                1C:1A:4C:F3:81:E9:BA:AB:08:9B:44:93:95:F5:D3:83:C1:BA:22:E8
    Signature Algorithm: sha256WithRSAEncryption
    Signature Value:
        3c:80:bb:c8:5b:f3:3c:eb:00:30:2e:b5:58:1e:e3:76:01:23:
        f9:27:45:2e:dd:08:41:c5:c8:17:b1:76:5c:cd:25:54:7c:21:
        f2:6e:86:2a:44:4e:02:b4:cb:5e:d3:aa:8b:c7:fa:f1:a7:c3:
        14:49:3c:f7:d9:92:c3:26:66:74:f9:b8:af:fe:43:d2:2d:58:
        96:f0:1f:21:13:14:c5:a7:14:89:50:19:79:1a:27:8c:a6:be:
        5e:5e:e0:2a:d5:3a:13:88:0c:b3:2a:69:4f:9d:a9:ad:1c:c0:
        dc:40:05:ef:4e:cd:92:12:f2:7c:39:3d:34:e3:10:ad:82:70:
        27:3d:ba:99:eb:44:fb:1b:c8:d1:a6:a8:97:8e:5f:25:4e:14:
        12:b5:3a:74:db:1a:38:ac:26:b2:4e:a8:44:12:71:31:a1:0c:
        a5:e7:2d:80:e5:7f:70:07:e2:e9:dc:57:ff:69:05:29:85:79:
        28:08:05:f7:8a:36:60:7a:99:2b:47:fa:ad:74:a4:42:7a:19:
        8b:c9:a4:8e:33:33:39:92:7b:5c:d8:f0:c6:f1:eb:79:b3:3c:
        f2:6d:bd:b3:f5:45:08:25:82:48:79:e3:a4:d4:c0:60:9c:2b:
        8b:c5:70:90:49:34:48:f5:de:fd:cc:64:fb:92:14:12:c3:2e:
        ee:5e:d1:c9
-----BEGIN CERTIFICATE-----
MIIDSDCCAjCgAwIBAgIQB6EIdNSi1AwS8F3bRgIxdTANBgkqhkiG9w0BAQsFADAc
MRowGAYDVQQDDBFJb3RTY2hvb2wgUm9vdCBDQTAeFw0yMzA0MjUxODExMTFaFw0z
MzA0MjIxODExMTFaMBsxGTAXBgNVBAMMEElvdFNjaG9vbCBTdWIgQ0EwggEiMA0G
CSqGSIb3DQEBAQUAA4IBDwAwggEKAoIBAQC6tvsJnS0QZh9nWe3d1TgDCUUdps8R
2zp+kBGsp/+B32OdhWTvjGqkogNL9EGAxXZRN/2o2D0zGJb5BM50m1pVvj9UemCH
dQo9brHNx54S//TlujWjlkXvLpcd7v5EtVbWLXyADqRpc+6ZcIcBZy35xj7AGJId
pKwKFwYGxgeu47bGmSs/8yjavAQiLZVCMxxAGh92kNM1XYJd5vD37xhgz/A4o+Jp
Z/EB0HXlZvF6MR+5CFaLBbWIEWWKubMjXPaaMwSrIxOqKAPqmm2113CafUJIrqYO
1spyAX77xZbjlvYwGW0VNhBxt6BI3xsV8FxNEO2nYXCB0WKGMB7t02LpAgMBAAGj
gYYwgYMwHwYDVR0jBBgwFoAUnMZfLhgz7tQWLB/jcfiY6tUiGewwEgYDVR0TAQH/
BAgwBgEB/wIBADAdBgNVHSUEFjAUBggrBgEFBQcDAgYIKwYBBQUHAwEwDgYDVR0P
AQH/BAQDAgEGMB0GA1UdDgQWBBQcGkzzgem6qwibRJOV9dODwboi6DANBgkqhkiG
9w0BAQsFAAOCAQEAPIC7yFvzPOsAMC61WB7jdgEj+SdFLt0IQcXIF7F2XM0lVHwh
8m6GKkROArTLXtOqi8f68afDFEk899mSwyZmdPm4r/5D0i1YlvAfIRMUxacUiVAZ
eRonjKa+Xl7gKtU6E4gMsyppT52prRzA3EAF707NkhLyfDk9NOMQrYJwJz26metE
+xvI0aaol45fJU4UErU6dNsaOKwmsk6oRBJxMaEMpectgOV/cAfi6dxX/2kFKYV5
KAgF94o2YHqZK0f6rXSkQnoZi8mkjjMzOZJ7XNjwxvHrebM88m29s/VFCCWCSHnj
pNTAYJwri8VwkEk0SPXe/cxk+5IUEsMu7l7RyQ==
-----END CERTIFICATE-----
