Certificate:
    Data:
        Version: 3 (0x2)
        Serial Number:
            bc:7c:ea:06:71:d8:9f:4e:e7:73:70:83:df:83:8e:09
        Signature Algorithm: sha256WithRSAEncryption
        Issuer: CN=IotSchool Root CA
        Validity
            Not Before: Apr 25 16:21:46 2023 GMT
            Not After : Apr 22 16:21:46 2033 GMT
        Subject: CN=IotSchool Sub CA
        Subject Public Key Info:
            Public Key Algorithm: rsaEncryption
                Public-Key: (2048 bit)
                Modulus:
                    00:b1:b3:c4:1f:be:27:b7:c4:3b:35:6c:35:8b:1a:
                    72:7f:9e:ae:25:87:d2:74:05:5a:c8:65:88:94:e9:
                    01:95:23:dd:18:0b:04:38:6a:60:15:0e:5c:54:76:
                    51:9a:62:5d:9d:61:89:ea:27:51:89:d9:58:ac:84:
                    10:57:21:18:7f:89:15:95:22:e5:05:bb:6a:ac:6a:
                    be:8f:1f:b9:bd:0b:47:7e:f2:d9:00:fb:70:40:44:
                    70:2f:22:94:e2:99:0c:f1:c2:05:5d:8f:0d:9e:85:
                    9c:2f:d3:0e:07:23:71:b0:a2:e0:69:6f:9a:4e:1c:
                    ec:e9:5e:1c:db:8f:04:7b:3a:a2:6e:47:04:f8:a4:
                    fa:a3:77:b0:e2:2a:29:f5:62:69:79:d3:65:f8:6d:
                    f8:19:bb:b8:66:b4:2e:bd:69:6d:4d:42:77:85:d8:
                    97:2e:96:8c:cc:19:15:48:4d:e6:e3:a1:78:6e:6c:
                    6a:d7:f1:ac:af:83:18:ff:92:8d:bf:4e:5c:ce:12:
                    e8:b0:d4:7f:37:18:0a:6f:af:45:bb:44:20:e0:aa:
                    a9:03:66:0b:cd:a1:0b:52:b2:3f:1f:9f:47:7e:ab:
                    06:37:6d:4b:51:27:4c:0a:81:a3:10:b3:9e:e2:c3:
                    f0:ca:2e:6c:12:3e:b1:db:9b:16:1a:fe:5e:aa:cf:
                    21:07
                Exponent: 65537 (0x10001)
        X509v3 extensions:
            X509v3 Authority Key Identifier: 
                9C:C6:5F:2E:18:33:EE:D4:16:2C:1F:E3:71:F8:98:EA:D5:22:19:EC
            X509v3 Basic Constraints: critical
                CA:TRUE, pathlen:0
            X509v3 Extended Key Usage: 
                TLS Web Client Authentication, TLS Web Server Authentication
            X509v3 Key Usage: critical
                Certificate Sign, CRL Sign
            X509v3 Subject Key Identifier: 
                6E:A5:21:B2:21:BB:BE:2B:7C:C8:F0:6F:58:78:CA:21:1A:F4:88:2E
    Signature Algorithm: sha256WithRSAEncryption
    Signature Value:
        ac:ca:94:13:17:28:8f:43:f8:bf:47:3d:22:58:6d:60:a3:fb:
        62:26:9d:85:12:e1:de:21:96:41:92:ed:23:56:41:bb:a5:31:
        50:63:7c:ce:30:f0:4b:d6:64:cc:6a:a9:b8:ac:d0:39:8d:c8:
        71:90:54:0b:93:80:e5:ba:38:f4:c0:a9:63:79:b6:14:df:fd:
        77:64:4b:bb:a9:ad:e4:22:b1:fd:43:61:89:6d:8c:0f:54:54:
        2e:a8:04:27:e5:62:7e:b3:fb:d7:1c:95:f3:49:0d:fe:d9:b0:
        cb:ca:4d:13:8f:22:8e:28:68:55:32:3c:09:fb:77:ed:aa:64:
        a4:1d:b4:e4:39:9e:f9:8e:ee:58:69:97:59:63:39:c0:19:4e:
        7a:89:be:72:26:d4:73:a0:f3:a9:79:95:8b:f0:b9:ef:63:63:
        2f:37:90:a8:75:57:8d:03:63:15:8a:84:42:41:fa:23:e7:28:
        4b:17:f8:b9:a0:d4:1b:b6:13:d5:5a:f5:84:ea:4d:0a:46:17:
        6e:19:6e:e1:f2:ce:d9:0d:e1:b6:5e:a9:97:7d:ed:55:21:a6:
        b4:74:7a:79:98:4e:ed:49:eb:5e:1c:25:92:bb:50:37:f9:31:
        66:ff:a6:c6:40:ae:5d:98:0b:c2:b4:ce:20:51:0f:1d:b0:ce:
        5c:63:09:ec
-----BEGIN CERTIFICATE-----
MIIDSTCCAjGgAwIBAgIRALx86gZx2J9O53Nwg9+DjgkwDQYJKoZIhvcNAQELBQAw
HDEaMBgGA1UEAwwRSW90U2Nob29sIFJvb3QgQ0EwHhcNMjMwNDI1MTYyMTQ2WhcN
MzMwNDIyMTYyMTQ2WjAbMRkwFwYDVQQDDBBJb3RTY2hvb2wgU3ViIENBMIIBIjAN
BgkqhkiG9w0BAQEFAAOCAQ8AMIIBCgKCAQEAsbPEH74nt8Q7NWw1ixpyf56uJYfS
dAVayGWIlOkBlSPdGAsEOGpgFQ5cVHZRmmJdnWGJ6idRidlYrIQQVyEYf4kVlSLl
BbtqrGq+jx+5vQtHfvLZAPtwQERwLyKU4pkM8cIFXY8NnoWcL9MOByNxsKLgaW+a
Thzs6V4c248EezqibkcE+KT6o3ew4iop9WJpedNl+G34Gbu4ZrQuvWltTUJ3hdiX
LpaMzBkVSE3m46F4bmxq1/Gsr4MY/5KNv05czhLosNR/NxgKb69Fu0Qg4KqpA2YL
zaELUrI/H59HfqsGN21LUSdMCoGjELOe4sPwyi5sEj6x25sWGv5eqs8hBwIDAQAB
o4GGMIGDMB8GA1UdIwQYMBaAFJzGXy4YM+7UFiwf43H4mOrVIhnsMBIGA1UdEwEB
/wQIMAYBAf8CAQAwHQYDVR0lBBYwFAYIKwYBBQUHAwIGCCsGAQUFBwMBMA4GA1Ud
DwEB/wQEAwIBBjAdBgNVHQ4EFgQUbqUhsiG7vit8yPBvWHjKIRr0iC4wDQYJKoZI
hvcNAQELBQADggEBAKzKlBMXKI9D+L9HPSJYbWCj+2ImnYUS4d4hlkGS7SNWQbul
MVBjfM4w8EvWZMxqqbis0DmNyHGQVAuTgOW6OPTAqWN5thTf/XdkS7upreQisf1D
YYltjA9UVC6oBCflYn6z+9cclfNJDf7ZsMvKTROPIo4oaFUyPAn7d+2qZKQdtOQ5
nvmO7lhpl1ljOcAZTnqJvnIm1HOg86l5lYvwue9jYy83kKh1V40DYxWKhEJB+iPn
KEsX+Lmg1Bu2E9Va9YTqTQpGF24ZbuHyztkN4bZeqZd97VUhprR0enmYTu1J614c
JZK7UDf5MWb/psZArl2YC8K0ziBRDx2wzlxjCew=
-----END CERTIFICATE-----
