Certificate:
    Data:
        Version: 3 (0x2)
        Serial Number:
            4b:70:76:d3:5c:b0:05:39:49:23:d0:d7:ba:04:bf:4f
        Signature Algorithm: sha256WithRSAEncryption
        Issuer: CN=IotSchool Root CA
        Validity
            Not Before: Apr 25 19:03:02 2023 GMT
            Not After : Apr 22 19:03:02 2033 GMT
        Subject: CN=IotSchool Sub CA
        Subject Public Key Info:
            Public Key Algorithm: rsaEncryption
                Public-Key: (2048 bit)
                Modulus:
                    00:df:ba:ac:cd:cd:ea:26:84:e2:c9:99:b3:ba:b9:
                    9c:ce:3c:37:13:fa:81:6f:5d:75:a2:82:03:53:64:
                    18:8e:44:64:27:0d:85:b1:31:c1:a3:ff:3a:70:d8:
                    e6:62:4d:e3:15:9d:19:b0:70:b2:a0:25:dc:83:be:
                    ca:36:7e:a3:24:de:b8:24:79:9c:0b:b6:ea:49:a2:
                    db:c0:2c:f5:e5:2e:c6:f2:00:f4:74:6a:38:35:46:
                    f1:d7:81:f0:fe:d0:3c:1d:ea:27:9b:cb:f4:4c:95:
                    02:d4:71:ca:7b:8b:e6:6b:5a:9a:43:1e:47:6f:25:
                    b0:42:2e:20:aa:9a:dd:81:9b:d7:bf:1f:c8:1b:88:
                    43:da:62:66:90:30:a3:32:9e:95:f8:9b:5c:64:af:
                    0e:6a:7b:32:3f:1f:50:39:96:b7:d3:c4:a9:48:70:
                    0e:c4:ef:3c:51:73:9a:7f:0f:06:9c:41:6e:b5:c0:
                    39:34:8f:a9:bc:d3:fa:47:75:f7:73:af:da:e2:94:
                    e4:a4:19:0d:9c:7d:76:f6:00:56:b9:73:16:69:38:
                    21:98:16:8f:2b:f3:01:96:8f:a1:97:c7:eb:46:47:
                    d4:de:50:33:80:90:37:be:0a:3b:8e:24:35:82:1d:
                    b3:af:22:d3:6b:8c:73:c0:17:0a:b3:32:ea:69:ac:
                    af:35
                Exponent: 65537 (0x10001)
        X509v3 extensions:
            X509v3 Authority Key Identifier: 
                9C:C6:5F:2E:18:33:EE:D4:16:2C:1F:E3:71:F8:98:EA:D5:22:19:EC
            X509v3 Basic Constraints: critical
                CA:TRUE, pathlen:0
            X509v3 Extended Key Usage: 
                TLS Web Client Authentication, TLS Web Server Authentication
            X509v3 Key Usage: critical
                Certificate Sign, CRL Sign
            X509v3 Subject Key Identifier: 
                7B:0F:03:2B:46:D0:6A:B1:DB:BC:B5:83:44:C2:23:F2:0B:4E:BF:AA
    Signature Algorithm: sha256WithRSAEncryption
    Signature Value:
        8f:e1:18:28:8a:30:50:01:fe:9f:4b:1e:27:9a:ee:a9:84:9a:
        12:9e:c7:29:63:de:22:27:f6:6a:35:53:38:73:b8:f4:30:3a:
        b8:4a:9f:e6:b7:f0:a4:44:6a:39:a0:dd:cd:43:53:01:54:96:
        0a:b5:e4:f8:3d:3a:59:8f:94:92:43:52:63:4e:d0:a8:40:47:
        b0:bf:37:c1:f1:ba:a8:ea:ae:8b:0c:c1:0b:5d:92:f3:a1:da:
        7a:90:0f:a2:f8:69:ce:fb:f4:65:74:ef:a2:d9:f4:da:9a:df:
        11:1d:57:14:e6:dc:8d:63:64:bb:2a:7d:d6:fb:dd:e7:73:0d:
        b9:21:f6:58:61:08:87:ac:45:72:77:a9:53:ad:10:6b:e8:23:
        c1:6e:f4:8b:51:97:ef:7d:e1:85:a8:b0:2f:71:2a:e7:ee:1f:
        6c:15:b4:63:e7:84:fa:30:a5:f8:a9:cc:94:47:f0:3b:d4:6d:
        02:0d:a0:15:2b:53:10:b3:9d:81:32:ae:49:b3:38:21:14:c8:
        c1:3e:34:8e:0d:64:48:04:f7:a6:4c:56:38:d0:29:68:fe:49:
        0f:35:1a:62:f8:87:c3:03:ab:59:3b:f0:b4:ba:cc:de:7b:3e:
        e2:de:72:aa:f3:ff:4d:aa:a2:cc:ab:99:3a:20:d7:99:09:74:
        d3:49:06:7b
-----BEGIN CERTIFICATE-----
MIIDSDCCAjCgAwIBAgIQS3B201ywBTlJI9DXugS/TzANBgkqhkiG9w0BAQsFADAc
MRowGAYDVQQDDBFJb3RTY2hvb2wgUm9vdCBDQTAeFw0yMzA0MjUxOTAzMDJaFw0z
MzA0MjIxOTAzMDJaMBsxGTAXBgNVBAMMEElvdFNjaG9vbCBTdWIgQ0EwggEiMA0G
CSqGSIb3DQEBAQUAA4IBDwAwggEKAoIBAQDfuqzNzeomhOLJmbO6uZzOPDcT+oFv
XXWiggNTZBiORGQnDYWxMcGj/zpw2OZiTeMVnRmwcLKgJdyDvso2fqMk3rgkeZwL
tupJotvALPXlLsbyAPR0ajg1RvHXgfD+0Dwd6ieby/RMlQLUccp7i+ZrWppDHkdv
JbBCLiCqmt2Bm9e/H8gbiEPaYmaQMKMynpX4m1xkrw5qezI/H1A5lrfTxKlIcA7E
7zxRc5p/DwacQW61wDk0j6m80/pHdfdzr9rilOSkGQ2cfXb2AFa5cxZpOCGYFo8r
8wGWj6GXx+tGR9TeUDOAkDe+CjuOJDWCHbOvItNrjHPAFwqzMupprK81AgMBAAGj
gYYwgYMwHwYDVR0jBBgwFoAUnMZfLhgz7tQWLB/jcfiY6tUiGewwEgYDVR0TAQH/
BAgwBgEB/wIBADAdBgNVHSUEFjAUBggrBgEFBQcDAgYIKwYBBQUHAwEwDgYDVR0P
AQH/BAQDAgEGMB0GA1UdDgQWBBR7DwMrRtBqsdu8tYNEwiPyC06/qjANBgkqhkiG
9w0BAQsFAAOCAQEAj+EYKIowUAH+n0seJ5ruqYSaEp7HKWPeIif2ajVTOHO49DA6
uEqf5rfwpERqOaDdzUNTAVSWCrXk+D06WY+UkkNSY07QqEBHsL83wfG6qOquiwzB
C12S86HaepAPovhpzvv0ZXTvotn02prfER1XFObcjWNkuyp91vvd53MNuSH2WGEI
h6xFcnepU60Qa+gjwW70i1GX733hhaiwL3Eq5+4fbBW0Y+eE+jCl+KnMlEfwO9Rt
Ag2gFStTELOdgTKuSbM4IRTIwT40jg1kSAT3pkxWONApaP5JDzUaYviHwwOrWTvw
tLrM3ns+4t5yqvP/TaqizKuZOiDXmQl000kGew==
-----END CERTIFICATE-----
