Certificate:
    Data:
        Version: 3 (0x2)
        Serial Number:
            0a:42:19:13:ba:30:06:8f:32:78:69:8d:ed:ae:40:d0
        Signature Algorithm: sha256WithRSAEncryption
        Issuer: CN=IotSchool Root CA
        Validity
            Not Before: Apr 19 12:37:01 2023 GMT
            Not After : Apr 16 12:37:01 2033 GMT
        Subject: CN=IotSchool Sub CA
        Subject Public Key Info:
            Public Key Algorithm: rsaEncryption
                Public-Key: (2048 bit)
                Modulus:
                    00:9d:30:c8:f6:c8:17:34:7e:09:9c:62:0f:e9:76:
                    bb:70:af:0d:3f:33:93:3f:10:c0:80:ad:32:d3:45:
                    d3:b9:10:d0:6c:23:45:56:4d:31:11:40:b5:a9:51:
                    bd:f2:78:e8:72:36:bf:e3:8b:1b:7d:03:98:0a:ea:
                    c5:02:68:6b:54:43:f7:58:b4:81:19:5f:6d:a9:88:
                    0e:14:78:0c:d6:54:e4:dd:e6:9a:95:5c:28:2f:dc:
                    6f:00:6f:e6:7c:73:53:d6:f2:09:67:e9:a0:07:09:
                    66:f9:3b:ce:40:e0:21:e2:f1:9b:1c:51:3f:8e:eb:
                    f0:36:3b:96:0d:7a:18:97:9a:2c:45:34:84:b1:04:
                    42:a7:b8:d8:2b:fa:8c:d1:c3:1d:7e:7a:64:4c:07:
                    37:f8:20:8b:23:4d:41:db:6c:22:a3:d5:73:ef:8b:
                    65:33:a9:e1:9a:21:eb:fd:9b:40:36:7f:71:29:81:
                    aa:91:c9:94:d8:f2:80:7a:e3:89:30:6a:9f:e8:12:
                    66:5a:34:a3:74:ef:4c:8a:a5:b6:43:fd:dd:c3:e3:
                    d2:55:8e:21:48:b7:4b:88:3c:b9:06:38:71:01:72:
                    79:b9:3e:f5:b9:c6:2f:89:ba:02:3c:52:bc:3f:a0:
                    28:65:08:d0:bb:0c:12:3b:95:c1:17:c6:cf:87:f8:
                    fd:63
                Exponent: 65537 (0x10001)
        X509v3 extensions:
            X509v3 Authority Key Identifier: 
                9C:C6:5F:2E:18:33:EE:D4:16:2C:1F:E3:71:F8:98:EA:D5:22:19:EC
            X509v3 Basic Constraints: critical
                CA:TRUE, pathlen:0
            X509v3 Extended Key Usage: 
                TLS Web Client Authentication, TLS Web Server Authentication
            X509v3 Key Usage: critical
                Certificate Sign, CRL Sign
            X509v3 Subject Key Identifier: 
                0D:27:BF:AE:E6:F3:23:DB:01:CF:4A:CD:DC:62:56:B8:3B:8A:38:D2
    Signature Algorithm: sha256WithRSAEncryption
    Signature Value:
        95:94:5f:3d:d8:3d:cb:18:ae:01:d6:6c:04:e9:9d:7b:ba:62:
        9c:16:25:07:1f:e3:6d:3c:b7:ef:26:4f:38:ae:08:6d:76:c0:
        b6:36:71:d8:72:e6:88:c4:fe:52:33:46:74:dd:88:73:d5:35:
        e1:e9:78:b2:bd:94:41:9d:99:19:77:3c:78:71:d8:80:23:b2:
        70:bf:b0:e0:f9:55:91:bd:71:94:9c:2e:96:3f:75:fa:b3:2a:
        50:c8:35:57:b3:88:2b:6b:51:c6:eb:c3:b1:6b:f8:84:02:c4:
        32:76:64:bf:95:7f:ae:2f:50:88:b8:c5:cd:1a:ee:01:c9:89:
        72:c1:45:e6:9b:f1:4b:14:ba:73:70:12:14:0d:3e:e9:34:5c:
        54:71:f3:39:4e:bf:1c:99:5e:65:82:ee:03:3f:c5:d9:74:5e:
        df:c4:d4:6e:55:ee:44:e7:ab:f9:27:bf:55:cd:03:f1:46:4b:
        28:97:a4:a2:f9:2c:3c:fe:93:9a:de:0d:bc:70:84:f9:00:93:
        5f:06:e1:78:71:e5:6d:8a:70:0c:b1:3c:7d:6a:65:20:d0:05:
        95:06:98:8b:68:5f:1c:96:d6:de:22:b8:0b:59:ab:c8:e5:37:
        bc:77:1a:f5:83:08:e2:e2:e5:48:d1:d7:9d:86:18:25:3a:7c:
        5b:6e:a7:ed
-----BEGIN CERTIFICATE-----
MIIDSDCCAjCgAwIBAgIQCkIZE7owBo8yeGmN7a5A0DANBgkqhkiG9w0BAQsFADAc
MRowGAYDVQQDDBFJb3RTY2hvb2wgUm9vdCBDQTAeFw0yMzA0MTkxMjM3MDFaFw0z
MzA0MTYxMjM3MDFaMBsxGTAXBgNVBAMMEElvdFNjaG9vbCBTdWIgQ0EwggEiMA0G
CSqGSIb3DQEBAQUAA4IBDwAwggEKAoIBAQCdMMj2yBc0fgmcYg/pdrtwrw0/M5M/
EMCArTLTRdO5ENBsI0VWTTERQLWpUb3yeOhyNr/jixt9A5gK6sUCaGtUQ/dYtIEZ
X22piA4UeAzWVOTd5pqVXCgv3G8Ab+Z8c1PW8gln6aAHCWb5O85A4CHi8ZscUT+O
6/A2O5YNehiXmixFNISxBEKnuNgr+ozRwx1+emRMBzf4IIsjTUHbbCKj1XPvi2Uz
qeGaIev9m0A2f3EpgaqRyZTY8oB644kwap/oEmZaNKN070yKpbZD/d3D49JVjiFI
t0uIPLkGOHEBcnm5PvW5xi+JugI8Urw/oChlCNC7DBI7lcEXxs+H+P1jAgMBAAGj
gYYwgYMwHwYDVR0jBBgwFoAUnMZfLhgz7tQWLB/jcfiY6tUiGewwEgYDVR0TAQH/
BAgwBgEB/wIBADAdBgNVHSUEFjAUBggrBgEFBQcDAgYIKwYBBQUHAwEwDgYDVR0P
AQH/BAQDAgEGMB0GA1UdDgQWBBQNJ7+u5vMj2wHPSs3cYla4O4o40jANBgkqhkiG
9w0BAQsFAAOCAQEAlZRfPdg9yxiuAdZsBOmde7pinBYlBx/jbTy37yZPOK4IbXbA
tjZx2HLmiMT+UjNGdN2Ic9U14el4sr2UQZ2ZGXc8eHHYgCOycL+w4PlVkb1xlJwu
lj91+rMqUMg1V7OIK2tRxuvDsWv4hALEMnZkv5V/ri9QiLjFzRruAcmJcsFF5pvx
SxS6c3ASFA0+6TRcVHHzOU6/HJleZYLuAz/F2XRe38TUblXuROer+Se/Vc0D8UZL
KJekovksPP6Tmt4NvHCE+QCTXwbheHHlbYpwDLE8fWplINAFlQaYi2hfHJbW3iK4
C1mryOU3vHca9YMI4uLlSNHXnYYYJTp8W26n7Q==
-----END CERTIFICATE-----
