Certificate:
    Data:
        Version: 3 (0x2)
        Serial Number:
            19:1e:e5:f6:2c:0c:89:48:45:b6:90:e5:c7:d5:e5:0c
        Signature Algorithm: sha256WithRSAEncryption
        Issuer: CN=IotSchool Root CA
        Validity
            Not Before: Apr 25 08:30:53 2023 GMT
            Not After : Apr 22 08:30:53 2033 GMT
        Subject: CN=IotSchool Sub CA
        Subject Public Key Info:
            Public Key Algorithm: rsaEncryption
                Public-Key: (2048 bit)
                Modulus:
                    00:e5:50:f4:83:83:3e:45:40:56:82:9c:e2:84:94:
                    38:5b:69:44:91:1a:c9:be:bb:70:31:5d:e0:85:be:
                    c9:be:0a:38:35:1c:9f:e1:5b:92:65:e7:27:f6:bd:
                    43:c3:05:e0:1a:4b:d3:ba:7d:a1:4d:f8:db:62:ee:
                    f6:37:a3:29:5b:0e:fd:47:8c:84:96:3e:90:37:ef:
                    17:75:05:02:d9:a3:fb:8a:85:0b:07:fa:76:e6:f5:
                    88:7f:7a:85:f9:2c:f3:46:ca:27:83:2f:19:ee:36:
                    f1:a0:a9:41:56:dc:ab:0f:80:66:2d:15:ae:95:5c:
                    14:3f:fa:91:07:1d:63:0c:7a:8d:25:bb:df:0c:a4:
                    a2:74:27:42:84:96:11:94:84:68:11:bd:30:c4:2a:
                    36:b0:9d:b4:45:47:4e:70:ad:ad:e6:28:f6:72:67:
                    94:df:c5:c4:97:f9:a3:02:a6:c7:35:a8:44:6e:9e:
                    3b:e8:0d:1b:40:57:8a:5a:85:14:a1:33:64:07:57:
                    c8:32:41:a0:af:20:c6:49:e6:16:c2:37:8f:82:93:
                    47:c8:9a:47:2c:08:91:54:af:70:d9:9d:3a:a7:1b:
                    3a:01:5b:c2:f9:78:46:18:fc:7c:42:57:c7:c5:b6:
                    74:e3:89:c4:58:20:8f:45:28:81:a1:cd:c9:c7:e8:
                    d4:e3
                Exponent: 65537 (0x10001)
        X509v3 extensions:
            X509v3 Authority Key Identifier: 
                9C:C6:5F:2E:18:33:EE:D4:16:2C:1F:E3:71:F8:98:EA:D5:22:19:EC
            X509v3 Basic Constraints: critical
                CA:TRUE, pathlen:0
            X509v3 Extended Key Usage: 
                TLS Web Client Authentication, TLS Web Server Authentication
            X509v3 Key Usage: critical
                Certificate Sign, CRL Sign
            X509v3 Subject Key Identifier: 
                20:9B:9C:64:7C:15:6E:8D:02:21:11:73:D0:1E:ED:71:D7:52:35:6C
    Signature Algorithm: sha256WithRSAEncryption
    Signature Value:
        07:aa:4e:34:8d:55:ab:6e:e2:31:69:2b:11:ad:9c:f0:cf:42:
        e0:c8:1e:fc:7e:1a:22:58:ed:7c:2c:97:c4:ec:ec:ee:6e:ec:
        8e:84:5e:47:2d:4e:31:90:dc:fd:96:31:25:af:6f:8d:5a:ab:
        f2:c3:fd:b8:79:04:c3:94:dd:bf:f4:2c:26:3d:b4:19:9a:7c:
        c4:b5:78:af:da:71:1b:58:28:ae:b9:20:3f:8f:3c:39:b7:4b:
        c5:b4:ba:41:6a:e2:15:03:ef:43:e7:85:6e:ce:0b:75:b1:2f:
        a0:a4:d5:0d:f8:15:e3:3e:61:8c:e0:e0:51:17:b6:c3:01:a2:
        0e:c6:ed:08:20:b6:14:74:38:03:71:1d:df:9b:2f:01:70:1e:
        f7:82:6d:92:1a:0d:4c:9d:e4:75:a4:37:31:cd:64:86:3c:34:
        2b:c8:2a:8d:64:ae:6a:9a:4a:ad:f9:22:fe:05:35:50:cd:b3:
        65:ee:f2:be:d7:15:4f:14:34:25:06:fc:ee:c4:96:89:31:64:
        71:09:a8:9e:41:0b:45:f5:be:3d:a9:45:1a:da:9d:12:af:bb:
        91:6c:04:31:99:c0:92:a7:a1:3a:d7:63:c7:6a:5c:d8:f3:d7:
        28:da:28:8c:df:be:6d:20:1d:a4:02:25:17:46:32:b0:cb:d6:
        98:11:03:1b
-----BEGIN CERTIFICATE-----
MIIDSDCCAjCgAwIBAgIQGR7l9iwMiUhFtpDlx9XlDDANBgkqhkiG9w0BAQsFADAc
MRowGAYDVQQDDBFJb3RTY2hvb2wgUm9vdCBDQTAeFw0yMzA0MjUwODMwNTNaFw0z
MzA0MjIwODMwNTNaMBsxGTAXBgNVBAMMEElvdFNjaG9vbCBTdWIgQ0EwggEiMA0G
CSqGSIb3DQEBAQUAA4IBDwAwggEKAoIBAQDlUPSDgz5FQFaCnOKElDhbaUSRGsm+
u3AxXeCFvsm+Cjg1HJ/hW5Jl5yf2vUPDBeAaS9O6faFN+Nti7vY3oylbDv1HjISW
PpA37xd1BQLZo/uKhQsH+nbm9Yh/eoX5LPNGyieDLxnuNvGgqUFW3KsPgGYtFa6V
XBQ/+pEHHWMMeo0lu98MpKJ0J0KElhGUhGgRvTDEKjawnbRFR05wra3mKPZyZ5Tf
xcSX+aMCpsc1qERunjvoDRtAV4pahRShM2QHV8gyQaCvIMZJ5hbCN4+Ck0fImkcs
CJFUr3DZnTqnGzoBW8L5eEYY/HxCV8fFtnTjicRYII9FKIGhzcnH6NTjAgMBAAGj
gYYwgYMwHwYDVR0jBBgwFoAUnMZfLhgz7tQWLB/jcfiY6tUiGewwEgYDVR0TAQH/
BAgwBgEB/wIBADAdBgNVHSUEFjAUBggrBgEFBQcDAgYIKwYBBQUHAwEwDgYDVR0P
AQH/BAQDAgEGMB0GA1UdDgQWBBQgm5xkfBVujQIhEXPQHu1x11I1bDANBgkqhkiG
9w0BAQsFAAOCAQEAB6pONI1Vq27iMWkrEa2c8M9C4Mge/H4aIljtfCyXxOzs7m7s
joReRy1OMZDc/ZYxJa9vjVqr8sP9uHkEw5Tdv/QsJj20GZp8xLV4r9pxG1gorrkg
P488ObdLxbS6QWriFQPvQ+eFbs4LdbEvoKTVDfgV4z5hjODgURe2wwGiDsbtCCC2
FHQ4A3Ed35svAXAe94JtkhoNTJ3kdaQ3Mc1khjw0K8gqjWSuappKrfki/gU1UM2z
Ze7yvtcVTxQ0JQb87sSWiTFkcQmonkELRfW+PalFGtqdEq+7kWwEMZnAkqehOtdj
x2pc2PPXKNoojN++bSAdpAIlF0YysMvWmBEDGw==
-----END CERTIFICATE-----
