Certificate:
    Data:
        Version: 3 (0x2)
        Serial Number:
            22:97:2b:6b:5b:e0:a7:16:d7:44:e3:4e:40:af:d9:16
        Signature Algorithm: sha256WithRSAEncryption
        Issuer: CN=IotSchool Root CA
        Validity
            Not Before: Sep  6 08:11:58 2021 GMT
            Not After : Sep  4 08:11:58 2031 GMT
        Subject: CN=IotSchool Sub CA
        Subject Public Key Info:
            Public Key Algorithm: rsaEncryption
                RSA Public-Key: (2048 bit)
                Modulus:
                    00:cd:36:52:08:f0:4b:cf:d9:4d:e2:56:0d:8e:f3:
                    9a:d4:d7:ff:2a:e9:94:29:96:43:83:59:c0:7b:55:
                    99:c8:0c:26:c4:9c:50:45:9b:1a:d9:28:ac:99:7a:
                    8f:79:2c:40:60:ce:82:b7:09:81:7f:1f:c8:d5:69:
                    d7:ff:77:4c:5c:da:6d:f5:b9:96:a1:19:bf:b3:3c:
                    3b:9b:4e:b5:cb:89:0b:dc:67:61:62:cb:76:db:9a:
                    e3:45:80:94:35:be:cc:9d:59:5d:1c:17:be:2b:3f:
                    78:37:99:a0:c1:7a:cb:8c:14:bc:6f:db:67:7e:e8:
                    9b:a1:2a:87:44:d1:65:1e:f6:6a:c2:ca:66:d3:9d:
                    4c:af:92:be:4e:c2:cf:b9:a4:db:49:25:ec:b6:5d:
                    f5:20:88:18:e0:8f:4f:4c:d9:db:6f:ba:cf:47:97:
                    6e:fe:eb:10:43:7e:16:07:fa:f1:a9:81:00:72:67:
                    72:36:b0:4c:be:43:1a:ea:09:28:45:fc:2d:ae:50:
                    42:4b:6e:61:b6:56:4c:fc:0b:3d:20:cd:64:65:71:
                    18:46:88:bf:bb:03:18:ed:90:24:c4:8e:51:ea:5e:
                    b0:3c:b6:4a:71:e5:bf:b6:7f:b2:7a:69:c2:17:56:
                    bd:5f:61:9f:8b:25:f3:3a:90:68:3e:94:08:07:61:
                    b4:27
                Exponent: 65537 (0x10001)
        X509v3 extensions:
            X509v3 Authority Key Identifier: 
                keyid:9C:C6:5F:2E:18:33:EE:D4:16:2C:1F:E3:71:F8:98:EA:D5:22:19:EC

            X509v3 Basic Constraints: critical
                CA:TRUE, pathlen:0
            X509v3 Extended Key Usage: 
                TLS Web Client Authentication, TLS Web Server Authentication
            X509v3 Key Usage: critical
                Certificate Sign, CRL Sign
            X509v3 Subject Key Identifier: 
                18:38:EE:AF:6E:44:7C:DA:78:FB:7C:F4:D1:5C:D8:60:45:A2:15:96
    Signature Algorithm: sha256WithRSAEncryption
         55:09:17:09:20:40:6d:e1:df:49:52:0e:b5:03:2d:13:40:b7:
         90:bd:eb:6d:74:13:3a:da:78:60:3e:50:e7:7a:85:fd:37:e9:
         96:78:5e:10:d2:be:5e:37:ce:5b:ba:a5:1b:86:af:c6:61:21:
         e4:b5:f2:62:3e:67:05:d3:fc:bd:fa:f3:56:c0:6f:5b:7a:58:
         82:40:df:c6:46:34:d6:5c:a9:22:7e:8e:de:fa:9c:58:31:a5:
         7a:02:1e:c8:b8:e4:47:31:83:0e:69:a6:b2:47:32:0a:62:8d:
         36:45:15:b3:5a:09:28:5e:15:54:74:1d:9c:b7:24:40:56:65:
         f2:b5:81:ec:47:0d:3e:64:43:d7:ae:da:c3:c9:06:a9:2b:f9:
         1c:ca:46:13:75:65:53:5f:2b:6e:74:ca:7f:10:4b:ff:b5:2e:
         c3:c4:7d:ef:a5:00:8c:85:52:12:e9:bf:7c:40:e6:6a:6f:b7:
         93:c8:48:5d:fe:e1:7e:c2:a4:10:d5:aa:2d:c9:e1:ee:2c:3c:
         a2:32:86:ed:a0:5f:77:bd:05:e8:b8:7d:20:82:d4:c4:da:63:
         ca:84:d0:9e:1c:81:83:e7:3b:6a:3a:ec:62:3b:ec:bb:99:b2:
         76:82:f2:bd:d9:73:7d:69:44:fe:6f:f5:2d:a1:e2:b1:b4:9d:
         42:00:54:cc
-----BEGIN CERTIFICATE-----
MIIDSDCCAjCgAwIBAgIQIpcra1vgpxbXRONOQK/ZFjANBgkqhkiG9w0BAQsFADAc
MRowGAYDVQQDDBFJb3RTY2hvb2wgUm9vdCBDQTAeFw0yMTA5MDYwODExNThaFw0z
MTA5MDQwODExNThaMBsxGTAXBgNVBAMMEElvdFNjaG9vbCBTdWIgQ0EwggEiMA0G
CSqGSIb3DQEBAQUAA4IBDwAwggEKAoIBAQDNNlII8EvP2U3iVg2O85rU1/8q6ZQp
lkODWcB7VZnIDCbEnFBFmxrZKKyZeo95LEBgzoK3CYF/H8jVadf/d0xc2m31uZah
Gb+zPDubTrXLiQvcZ2Fiy3bbmuNFgJQ1vsydWV0cF74rP3g3maDBesuMFLxv22d+
6JuhKodE0WUe9mrCymbTnUyvkr5Ows+5pNtJJey2XfUgiBjgj09M2dtvus9Hl27+
6xBDfhYH+vGpgQByZ3I2sEy+QxrqCShF/C2uUEJLbmG2Vkz8Cz0gzWRlcRhGiL+7
AxjtkCTEjlHqXrA8tkpx5b+2f7J6acIXVr1fYZ+LJfM6kGg+lAgHYbQnAgMBAAGj
gYYwgYMwHwYDVR0jBBgwFoAUnMZfLhgz7tQWLB/jcfiY6tUiGewwEgYDVR0TAQH/
BAgwBgEB/wIBADAdBgNVHSUEFjAUBggrBgEFBQcDAgYIKwYBBQUHAwEwDgYDVR0P
AQH/BAQDAgEGMB0GA1UdDgQWBBQYOO6vbkR82nj7fPTRXNhgRaIVljANBgkqhkiG
9w0BAQsFAAOCAQEAVQkXCSBAbeHfSVIOtQMtE0C3kL3rbXQTOtp4YD5Q53qF/Tfp
lnheENK+XjfOW7qlG4avxmEh5LXyYj5nBdP8vfrzVsBvW3pYgkDfxkY01lypIn6O
3vqcWDGlegIeyLjkRzGDDmmmskcyCmKNNkUVs1oJKF4VVHQdnLckQFZl8rWB7EcN
PmRD167aw8kGqSv5HMpGE3VlU18rbnTKfxBL/7Uuw8R976UAjIVSEum/fEDmam+3
k8hIXf7hfsKkENWqLcnh7iw8ojKG7aBfd70F6Lh9IILUxNpjyoTQnhyBg+c7ajrs
Yjvsu5mydoLyvdlzfWlE/m/1LaHisbSdQgBUzA==
-----END CERTIFICATE-----
