Certificate:
    Data:
        Version: 3 (0x2)
        Serial Number:
            28:f5:0d:41:d4:9d:a5:61:d6:29:42:6f:ae:28:30:c1
        Signature Algorithm: sha256WithRSAEncryption
        Issuer: CN=IotSchool Root CA
        Validity
            Not Before: Apr 25 14:02:11 2023 GMT
            Not After : Apr 22 14:02:11 2033 GMT
        Subject: CN=IotSchool Sub CA
        Subject Public Key Info:
            Public Key Algorithm: rsaEncryption
                Public-Key: (2048 bit)
                Modulus:
                    00:ce:66:6c:1b:7b:22:8b:b5:4b:54:e3:f4:81:8e:
                    b1:e2:a9:21:9a:42:28:ce:9d:a0:c6:3d:3c:01:69:
                    66:f7:2c:a2:1d:b0:56:bf:0f:f5:14:ff:7f:24:6b:
                    ab:ec:bc:82:0a:be:df:5b:a2:6d:81:42:41:da:0e:
                    f3:7a:ae:5e:1c:2a:cb:7c:6c:fa:df:78:2f:25:81:
                    ec:16:f0:d7:a1:18:95:49:ca:01:6a:6c:fd:57:32:
                    98:fb:3f:50:4b:cb:bf:17:1c:21:2b:78:61:46:a3:
                    6f:5b:16:54:12:d4:c0:39:c3:76:f5:25:72:d8:0a:
                    18:f6:9e:93:57:14:f1:42:d5:72:aa:7b:61:4f:62:
                    32:ef:30:a4:44:97:dd:ab:dc:30:84:02:4c:b0:dc:
                    f6:5d:c5:c3:9f:dc:93:24:56:5e:4a:d9:e6:f3:65:
                    fc:f2:a1:58:73:7a:d4:38:09:e8:00:e8:2f:ff:5f:
                    28:41:15:03:6d:6a:03:39:82:ab:f2:48:c1:45:17:
                    03:25:8e:9b:71:07:2f:5a:b4:b9:52:46:90:15:ab:
                    cb:87:60:b6:9d:35:bd:23:3a:8e:09:3a:54:43:77:
                    50:80:03:f7:24:33:08:25:2f:a4:0f:52:a2:e3:6f:
                    dd:17:71:b0:93:de:12:b8:95:92:7c:59:9f:bd:eb:
                    3c:4f
                Exponent: 65537 (0x10001)
        X509v3 extensions:
            X509v3 Authority Key Identifier: 
                9C:C6:5F:2E:18:33:EE:D4:16:2C:1F:E3:71:F8:98:EA:D5:22:19:EC
            X509v3 Basic Constraints: critical
                CA:TRUE, pathlen:0
            X509v3 Extended Key Usage: 
                TLS Web Client Authentication, TLS Web Server Authentication
            X509v3 Key Usage: critical
                Certificate Sign, CRL Sign
            X509v3 Subject Key Identifier: 
                F8:8F:44:2E:89:88:3F:DF:7C:8A:43:51:3F:07:25:9B:F7:93:3B:20
    Signature Algorithm: sha256WithRSAEncryption
    Signature Value:
        12:0f:f2:fe:bb:88:d1:fd:74:3e:e6:bf:72:69:ae:25:5d:83:
        79:8f:05:10:09:24:b7:4c:41:9d:a7:b6:77:0c:d6:ad:63:9a:
        31:f1:80:b9:bf:fc:f8:fb:f6:9c:d6:18:39:13:9b:1c:22:c5:
        ed:b0:02:4e:83:3e:42:bb:01:bf:48:e4:0b:69:74:af:72:f7:
        18:20:33:ad:03:cd:4f:2d:c4:6c:42:73:8f:6e:5a:8d:19:cb:
        07:2f:e1:a9:84:70:44:3f:74:f8:b2:3e:08:c0:3d:a7:3e:4a:
        8b:e0:6e:2f:5a:22:81:d1:0d:fa:36:47:05:55:c7:0b:19:cb:
        a4:93:41:18:90:c5:79:83:21:6f:10:5a:dc:fb:d4:84:f2:8d:
        4f:32:35:43:be:c2:d1:1e:13:e2:c9:47:ca:1b:a9:77:20:3f:
        ff:27:82:0d:d3:31:ec:50:6f:6d:c8:b8:bb:8d:20:59:c3:e7:
        f9:f0:a6:d2:2d:db:5b:5c:71:65:cd:55:75:a2:29:ec:b0:bb:
        b0:0f:a0:8b:1a:8c:7c:26:60:85:c5:c5:70:74:1f:ad:6f:14:
        1d:a7:84:f5:80:82:72:1c:14:88:13:50:46:d6:09:f1:a6:73:
        02:a1:46:13:c1:1d:10:60:d8:a9:dc:15:f0:a2:0d:33:be:98:
        04:d8:51:f1
-----BEGIN CERTIFICATE-----
MIIDSDCCAjCgAwIBAgIQKPUNQdSdpWHWKUJvrigwwTANBgkqhkiG9w0BAQsFADAc
MRowGAYDVQQDDBFJb3RTY2hvb2wgUm9vdCBDQTAeFw0yMzA0MjUxNDAyMTFaFw0z
MzA0MjIxNDAyMTFaMBsxGTAXBgNVBAMMEElvdFNjaG9vbCBTdWIgQ0EwggEiMA0G
CSqGSIb3DQEBAQUAA4IBDwAwggEKAoIBAQDOZmwbeyKLtUtU4/SBjrHiqSGaQijO
naDGPTwBaWb3LKIdsFa/D/UU/38ka6vsvIIKvt9bom2BQkHaDvN6rl4cKst8bPrf
eC8lgewW8NehGJVJygFqbP1XMpj7P1BLy78XHCEreGFGo29bFlQS1MA5w3b1JXLY
Chj2npNXFPFC1XKqe2FPYjLvMKREl92r3DCEAkyw3PZdxcOf3JMkVl5K2ebzZfzy
oVhzetQ4CegA6C//XyhBFQNtagM5gqvySMFFFwMljptxBy9atLlSRpAVq8uHYLad
Nb0jOo4JOlRDd1CAA/ckMwglL6QPUqLjb90XcbCT3hK4lZJ8WZ+96zxPAgMBAAGj
gYYwgYMwHwYDVR0jBBgwFoAUnMZfLhgz7tQWLB/jcfiY6tUiGewwEgYDVR0TAQH/
BAgwBgEB/wIBADAdBgNVHSUEFjAUBggrBgEFBQcDAgYIKwYBBQUHAwEwDgYDVR0P
AQH/BAQDAgEGMB0GA1UdDgQWBBT4j0QuiYg/33yKQ1E/ByWb95M7IDANBgkqhkiG
9w0BAQsFAAOCAQEAEg/y/ruI0f10Pua/cmmuJV2DeY8FEAkkt0xBnae2dwzWrWOa
MfGAub/8+Pv2nNYYORObHCLF7bACToM+QrsBv0jkC2l0r3L3GCAzrQPNTy3EbEJz
j25ajRnLBy/hqYRwRD90+LI+CMA9pz5Ki+BuL1oigdEN+jZHBVXHCxnLpJNBGJDF
eYMhbxBa3PvUhPKNTzI1Q77C0R4T4slHyhupdyA//yeCDdMx7FBvbci4u40gWcPn
+fCm0i3bW1xxZc1VdaIp7LC7sA+gixqMfCZghcXFcHQfrW8UHaeE9YCCchwUiBNQ
RtYJ8aZzAqFGE8EdEGDYqdwV8KINM76YBNhR8Q==
-----END CERTIFICATE-----
