Certificate:
    Data:
        Version: 3 (0x2)
        Serial Number:
            2a:52:f1:12:7e:e1:bc:1f:2f:59:bd:77:6e:01:c5:4b
        Signature Algorithm: sha256WithRSAEncryption
        Issuer: CN=IotSchool Root CA
        Validity
            Not Before: Aug 31 18:57:48 2021 GMT
            Not After : Aug 29 18:57:48 2031 GMT
        Subject: CN=IotSchool Sub CA
        Subject Public Key Info:
            Public Key Algorithm: rsaEncryption
                RSA Public-Key: (2048 bit)
                Modulus:
                    00:e9:8d:54:bd:ca:05:38:9b:55:22:23:34:a2:83:
                    0d:7a:51:6c:ba:3a:54:40:73:7a:46:26:55:51:a8:
                    1b:75:f2:72:38:a0:fa:00:6f:3c:c5:cd:31:12:9c:
                    98:72:6b:fb:9a:75:ed:81:6b:e5:25:3a:03:c6:fe:
                    77:6d:2e:37:8b:41:39:95:e4:ef:20:cc:03:0f:81:
                    a8:ff:5d:fe:a7:69:de:3f:30:11:8b:dd:84:56:d8:
                    da:3e:bd:c9:da:a6:43:54:4d:8d:bb:4a:17:a5:15:
                    79:13:a8:d6:f8:e0:2e:dd:25:65:7c:9d:fe:10:b3:
                    81:12:2e:33:5f:93:57:aa:80:d9:88:6e:28:aa:30:
                    c4:74:9a:77:82:52:5c:db:b3:2b:19:36:30:b9:92:
                    6a:27:8b:8b:9d:27:01:39:e0:af:40:5f:e8:cd:6e:
                    e7:e8:07:9b:0b:d8:3d:b2:4c:89:e5:c5:4f:68:2a:
                    ec:dd:5a:d0:55:01:be:db:98:7b:d8:66:78:c8:dd:
                    fc:23:95:de:a0:e3:b6:32:69:87:3d:e6:9d:4e:8e:
                    15:9a:00:90:a1:da:f0:d3:b2:ad:e0:ee:7a:ba:fe:
                    bb:2b:50:b7:ee:30:48:19:76:a3:a7:70:ed:ae:d7:
                    5f:d5:1a:01:47:5a:a3:71:2d:e6:36:60:c1:15:45:
                    5c:f9
                Exponent: 65537 (0x10001)
        X509v3 extensions:
            X509v3 Authority Key Identifier: 
                keyid:9C:C6:5F:2E:18:33:EE:D4:16:2C:1F:E3:71:F8:98:EA:D5:22:19:EC

            X509v3 Basic Constraints: critical
                CA:TRUE, pathlen:0
            X509v3 Extended Key Usage: 
                TLS Web Client Authentication, TLS Web Server Authentication
            X509v3 Key Usage: critical
                Certificate Sign, CRL Sign
            X509v3 Subject Key Identifier: 
                71:08:BA:12:44:90:81:1C:63:29:A7:46:3D:D3:BC:D0:A4:F1:AE:0F
    Signature Algorithm: sha256WithRSAEncryption
         3d:1e:29:9d:2b:21:14:15:af:a6:9a:77:9b:70:2b:0e:a5:13:
         f2:12:68:b9:bb:31:a9:d4:95:d3:b6:c2:77:20:af:d3:c7:7a:
         4a:5d:ad:1a:6f:b1:a2:f6:d2:ad:3a:84:d4:37:d2:fa:7b:ef:
         1f:7a:aa:71:42:9a:61:e8:3f:ad:42:19:d9:88:05:76:49:24:
         d9:ad:e8:5d:2d:b3:9f:15:ef:95:0a:d9:2e:1f:a6:51:63:1e:
         38:7d:ea:c6:1a:19:1d:95:03:f1:c0:43:59:0e:5b:f5:c9:53:
         61:b1:aa:e5:67:87:bb:7d:f7:bb:2c:67:23:05:75:23:72:b1:
         38:53:3b:f8:dd:f4:2b:53:1e:d1:b5:8a:9e:3d:5a:69:a9:d1:
         6f:37:b2:07:ef:9a:88:e3:fd:e6:cc:20:5d:f7:e8:32:9a:15:
         f8:9f:9b:36:a8:d6:61:21:43:f1:91:7e:af:84:5d:09:8c:eb:
         08:9c:b8:09:42:e8:6e:7b:8f:94:b0:9d:23:15:05:1c:7a:7c:
         fe:f3:55:9a:53:a1:33:37:36:b6:55:89:3c:23:70:69:56:e7:
         d3:20:d3:2d:14:a2:56:98:b3:c3:84:af:cf:d1:85:78:a4:fa:
         ce:19:8b:ad:a2:15:d1:f7:70:92:e6:5f:97:8d:76:f9:c6:e1:
         49:dd:d3:fd
-----BEGIN CERTIFICATE-----
MIIDSDCCAjCgAwIBAgIQKlLxEn7hvB8vWb13bgHFSzANBgkqhkiG9w0BAQsFADAc
MRowGAYDVQQDDBFJb3RTY2hvb2wgUm9vdCBDQTAeFw0yMTA4MzExODU3NDhaFw0z
MTA4MjkxODU3NDhaMBsxGTAXBgNVBAMMEElvdFNjaG9vbCBTdWIgQ0EwggEiMA0G
CSqGSIb3DQEBAQUAA4IBDwAwggEKAoIBAQDpjVS9ygU4m1UiIzSigw16UWy6OlRA
c3pGJlVRqBt18nI4oPoAbzzFzTESnJhya/uade2Ba+UlOgPG/ndtLjeLQTmV5O8g
zAMPgaj/Xf6nad4/MBGL3YRW2No+vcnapkNUTY27ShelFXkTqNb44C7dJWV8nf4Q
s4ESLjNfk1eqgNmIbiiqMMR0mneCUlzbsysZNjC5kmoni4udJwE54K9AX+jNbufo
B5sL2D2yTInlxU9oKuzdWtBVAb7bmHvYZnjI3fwjld6g47YyaYc95p1OjhWaAJCh
2vDTsq3g7nq6/rsrULfuMEgZdqOncO2u11/VGgFHWqNxLeY2YMEVRVz5AgMBAAGj
gYYwgYMwHwYDVR0jBBgwFoAUnMZfLhgz7tQWLB/jcfiY6tUiGewwEgYDVR0TAQH/
BAgwBgEB/wIBADAdBgNVHSUEFjAUBggrBgEFBQcDAgYIKwYBBQUHAwEwDgYDVR0P
AQH/BAQDAgEGMB0GA1UdDgQWBBRxCLoSRJCBHGMpp0Y907zQpPGuDzANBgkqhkiG
9w0BAQsFAAOCAQEAPR4pnSshFBWvppp3m3ArDqUT8hJoubsxqdSV07bCdyCv08d6
Sl2tGm+xovbSrTqE1DfS+nvvH3qqcUKaYeg/rUIZ2YgFdkkk2a3oXS2znxXvlQrZ
Lh+mUWMeOH3qxhoZHZUD8cBDWQ5b9clTYbGq5WeHu333uyxnIwV1I3KxOFM7+N30
K1Me0bWKnj1aaanRbzeyB++aiOP95swgXffoMpoV+J+bNqjWYSFD8ZF+r4RdCYzr
CJy4CULobnuPlLCdIxUFHHp8/vNVmlOhMzc2tlWJPCNwaVbn0yDTLRSiVpizw4Sv
z9GFeKT6zhmLraIV0fdwkuZfl412+cbhSd3T/Q==
-----END CERTIFICATE-----
