Certificate:
    Data:
        Version: 3 (0x2)
        Serial Number:
            2c:e4:df:50:6b:de:fa:a0:cd:98:28:52:ca:b7:3a:6e
        Signature Algorithm: sha256WithRSAEncryption
        Issuer: CN=IotSchool Root CA
        Validity
            Not Before: Sep  6 08:12:00 2021 GMT
            Not After : Sep  4 08:12:00 2031 GMT
        Subject: CN=IotSchool Sub CA
        Subject Public Key Info:
            Public Key Algorithm: rsaEncryption
                RSA Public-Key: (2048 bit)
                Modulus:
                    00:c9:cb:a0:fa:f2:1c:4d:45:70:3f:17:63:0d:a4:
                    cd:89:29:84:9a:3e:42:4c:af:94:6a:65:e8:77:14:
                    1c:c5:c8:57:47:64:c9:5e:4e:24:8e:da:82:32:fb:
                    a1:fb:07:43:b2:ac:20:de:01:33:b5:a4:3e:c4:09:
                    23:9e:6c:ea:5d:78:20:34:c7:ee:a8:1b:58:cd:3c:
                    57:fe:0e:49:30:86:20:ee:c3:63:b9:a1:df:9d:02:
                    92:1b:74:3c:2d:93:ec:94:42:39:e2:63:d6:35:c7:
                    01:7f:0e:ee:28:f7:f5:05:cc:2d:ea:3c:37:2a:3d:
                    6a:5e:c5:05:c0:67:6e:16:8b:3b:de:4f:a7:d0:25:
                    1e:7d:e8:c5:62:a7:cf:cc:92:a9:3a:85:b8:12:41:
                    83:3a:31:89:db:cc:f8:67:39:96:39:bf:6f:bf:51:
                    5d:1d:6a:2c:c1:fd:45:6a:54:c4:0c:96:1a:a5:3c:
                    6b:c6:42:b6:44:ed:47:96:98:09:5a:24:d6:51:bf:
                    77:1c:3b:99:c1:49:24:ce:0a:cd:7b:db:87:a5:2d:
                    f9:86:fa:77:45:c8:2c:63:a7:41:c3:02:c7:15:6c:
                    3c:55:e5:2e:a0:a0:54:be:fe:5c:a9:fd:08:5d:f1:
                    21:5b:ce:35:74:2f:5a:f2:ac:a4:2e:39:a4:28:bc:
                    9c:49
                Exponent: 65537 (0x10001)
        X509v3 extensions:
            X509v3 Authority Key Identifier: 
                keyid:9C:C6:5F:2E:18:33:EE:D4:16:2C:1F:E3:71:F8:98:EA:D5:22:19:EC

            X509v3 Basic Constraints: critical
                CA:TRUE, pathlen:0
            X509v3 Extended Key Usage: 
                TLS Web Client Authentication, TLS Web Server Authentication
            X509v3 Key Usage: critical
                Certificate Sign, CRL Sign
            X509v3 Subject Key Identifier: 
                BB:7B:F0:6A:C8:5E:DA:C4:9D:54:91:27:06:DC:79:F0:FC:B6:07:2B
    Signature Algorithm: sha256WithRSAEncryption
         b6:4b:fc:e9:1a:b1:09:1a:74:6a:26:9f:59:d7:7f:d3:70:cc:
         4b:32:4f:40:b7:36:87:d6:91:21:42:0a:f4:5c:7e:8c:64:ab:
         75:72:3b:e2:a1:ad:0c:6d:de:5f:52:08:35:82:59:09:0e:83:
         e8:d1:dc:11:6e:73:4f:cb:56:d1:5d:fd:75:e8:b4:f8:56:6b:
         ca:f6:08:58:09:f0:49:28:b7:5b:b2:53:71:32:ea:92:58:f8:
         d4:46:3a:80:87:86:b1:3e:74:a9:a4:b2:bb:3c:6b:0b:58:77:
         9a:45:61:f3:b8:08:06:04:5f:65:d8:4a:ca:0b:92:47:7b:7a:
         f5:e4:25:16:c8:f6:5b:a4:ce:9b:51:fd:f0:9c:4e:69:7a:c6:
         fb:1f:ee:af:0f:88:97:bc:ff:eb:cc:21:f0:8c:dc:5f:e7:d4:
         86:42:90:82:dd:0a:90:83:21:33:a5:58:30:fd:da:29:b9:11:
         aa:6d:07:37:3b:27:c0:2f:10:de:ed:a3:d2:3a:f4:fe:fd:c2:
         26:4c:38:22:e5:21:3b:4f:38:39:4d:19:23:00:67:29:b0:f2:
         a8:cf:49:f5:16:30:cb:b1:60:6e:30:ab:84:55:b6:9b:92:14:
         ed:88:2b:fc:36:6c:11:a3:7c:4a:83:26:b0:fd:59:08:a9:ee:
         53:55:03:80
-----BEGIN CERTIFICATE-----
MIIDSDCCAjCgAwIBAgIQLOTfUGve+qDNmChSyrc6bjANBgkqhkiG9w0BAQsFADAc
MRowGAYDVQQDDBFJb3RTY2hvb2wgUm9vdCBDQTAeFw0yMTA5MDYwODEyMDBaFw0z
MTA5MDQwODEyMDBaMBsxGTAXBgNVBAMMEElvdFNjaG9vbCBTdWIgQ0EwggEiMA0G
CSqGSIb3DQEBAQUAA4IBDwAwggEKAoIBAQDJy6D68hxNRXA/F2MNpM2JKYSaPkJM
r5RqZeh3FBzFyFdHZMleTiSO2oIy+6H7B0OyrCDeATO1pD7ECSOebOpdeCA0x+6o
G1jNPFf+DkkwhiDuw2O5od+dApIbdDwtk+yUQjniY9Y1xwF/Du4o9/UFzC3qPDcq
PWpexQXAZ24WizveT6fQJR596MVip8/Mkqk6hbgSQYM6MYnbzPhnOZY5v2+/UV0d
aizB/UVqVMQMlhqlPGvGQrZE7UeWmAlaJNZRv3ccO5nBSSTOCs1724elLfmG+ndF
yCxjp0HDAscVbDxV5S6goFS+/lyp/Qhd8SFbzjV0L1ryrKQuOaQovJxJAgMBAAGj
gYYwgYMwHwYDVR0jBBgwFoAUnMZfLhgz7tQWLB/jcfiY6tUiGewwEgYDVR0TAQH/
BAgwBgEB/wIBADAdBgNVHSUEFjAUBggrBgEFBQcDAgYIKwYBBQUHAwEwDgYDVR0P
AQH/BAQDAgEGMB0GA1UdDgQWBBS7e/BqyF7axJ1UkScG3Hnw/LYHKzANBgkqhkiG
9w0BAQsFAAOCAQEAtkv86RqxCRp0aiafWdd/03DMSzJPQLc2h9aRIUIK9Fx+jGSr
dXI74qGtDG3eX1IINYJZCQ6D6NHcEW5zT8tW0V39dei0+FZryvYIWAnwSSi3W7JT
cTLqklj41EY6gIeGsT50qaSyuzxrC1h3mkVh87gIBgRfZdhKyguSR3t69eQlFsj2
W6TOm1H98JxOaXrG+x/urw+Il7z/68wh8IzcX+fUhkKQgt0KkIMhM6VYMP3aKbkR
qm0HNzsnwC8Q3u2j0jr0/v3CJkw4IuUhO084OU0ZIwBnKbDyqM9J9RYwy7FgbjCr
hFW2m5IU7Ygr/DZsEaN8SoMmsP1ZCKnuU1UDgA==
-----END CERTIFICATE-----
