Certificate:
    Data:
        Version: 3 (0x2)
        Serial Number:
            2e:9c:1f:a3:81:ed:e4:e7:e9:d2:1a:2d:4c:5e:96:a4
        Signature Algorithm: sha256WithRSAEncryption
        Issuer: CN=IotSchool Root CA
        Validity
            Not Before: Apr 25 08:26:56 2023 GMT
            Not After : Apr 22 08:26:56 2033 GMT
        Subject: CN=IotSchool Sub CA
        Subject Public Key Info:
            Public Key Algorithm: rsaEncryption
                Public-Key: (2048 bit)
                Modulus:
                    00:e9:11:b9:28:98:02:38:6e:72:d6:a2:4d:e0:9c:
                    cd:52:db:66:b8:4b:41:e9:fd:94:ba:13:d7:f2:54:
                    69:6b:1b:fc:26:fb:64:87:db:6b:3f:f3:fe:a8:81:
                    8b:02:83:e8:7b:d3:2e:1a:2c:af:24:79:4c:da:0f:
                    70:b0:ea:d0:d8:bf:86:15:6c:f4:6d:ba:6e:a5:45:
                    73:c6:f8:68:46:65:18:99:b3:67:75:58:df:9a:21:
                    51:4b:81:41:34:8d:c7:03:5a:fd:46:c9:21:7c:c7:
                    c6:1f:87:10:35:60:2c:6b:59:ab:36:06:de:9c:f6:
                    62:ef:88:a1:73:12:5f:e7:da:80:dd:88:5a:de:fb:
                    bf:d0:7f:a3:93:fc:60:83:ff:8b:5e:74:0e:17:df:
                    d3:40:a2:23:f2:71:b6:34:c7:e0:37:01:65:9a:9f:
                    ef:23:e2:b1:6f:22:bf:9b:10:3d:bd:63:b6:81:0e:
                    a1:65:49:7b:9e:77:76:ef:ef:65:f6:88:3c:36:79:
                    d3:67:c1:d8:0f:3a:0c:05:9d:f0:e9:25:8b:62:5e:
                    55:8c:c3:c6:b8:8f:2a:48:9f:af:59:1c:d3:a7:40:
                    de:9f:84:13:85:9c:80:69:18:12:59:74:2c:25:4f:
                    4f:90:97:cc:f4:9c:f0:de:96:ab:a0:11:1a:3e:e8:
                    9d:9d
                Exponent: 65537 (0x10001)
        X509v3 extensions:
            X509v3 Authority Key Identifier: 
                9C:C6:5F:2E:18:33:EE:D4:16:2C:1F:E3:71:F8:98:EA:D5:22:19:EC
            X509v3 Basic Constraints: critical
                CA:TRUE, pathlen:0
            X509v3 Extended Key Usage: 
                TLS Web Client Authentication, TLS Web Server Authentication
            X509v3 Key Usage: critical
                Certificate Sign, CRL Sign
            X509v3 Subject Key Identifier: 
                D8:3A:29:B4:6C:DF:CF:A1:2C:DB:E6:84:E2:9A:B1:B2:58:CC:0E:C1
    Signature Algorithm: sha256WithRSAEncryption
    Signature Value:
        90:f0:c5:bf:e0:d7:c2:a9:4a:8e:c5:28:e0:b2:ba:8a:58:69:
        93:a0:17:24:97:93:45:ed:a6:f3:ca:e1:e7:0a:bf:6d:40:fa:
        dd:b8:27:01:16:55:ef:65:ba:6d:96:ea:64:cc:05:b8:47:1a:
        a7:ed:78:34:95:21:80:4d:e1:9d:82:d7:c9:39:88:b1:ae:33:
        dc:cf:cb:f9:c3:4b:0e:b7:6d:f0:73:21:e1:82:a1:30:e9:ef:
        e4:20:0b:fc:f1:88:da:ee:a4:3e:30:6d:92:89:35:37:89:38:
        b2:4e:8c:07:0d:fa:8f:ce:5a:0f:99:30:3d:a5:3d:ee:cb:48:
        11:95:1f:8d:17:bc:c3:91:e1:85:75:c4:0b:ba:96:0d:63:44:
        5d:3f:6d:8a:ef:4c:64:e9:9c:71:09:9b:c5:ce:4b:91:17:95:
        a3:aa:f1:82:bb:dd:b0:a4:75:26:7d:e0:7a:f5:55:4a:e0:a4:
        73:6a:89:6b:30:fe:d8:7d:0d:ff:74:a2:96:1e:81:a8:dc:f3:
        df:41:de:96:14:04:31:85:fe:88:bc:0f:5e:25:10:f8:dd:6e:
        69:f4:13:e2:fd:ff:e6:53:3b:45:d2:a8:cd:68:d0:b6:c8:e8:
        c6:6c:d1:4d:5a:14:90:6e:cd:5f:b7:9a:05:2f:23:bf:aa:80:
        06:80:b4:e2
-----BEGIN CERTIFICATE-----
MIIDSDCCAjCgAwIBAgIQLpwfo4Ht5Ofp0hotTF6WpDANBgkqhkiG9w0BAQsFADAc
MRowGAYDVQQDDBFJb3RTY2hvb2wgUm9vdCBDQTAeFw0yMzA0MjUwODI2NTZaFw0z
MzA0MjIwODI2NTZaMBsxGTAXBgNVBAMMEElvdFNjaG9vbCBTdWIgQ0EwggEiMA0G
CSqGSIb3DQEBAQUAA4IBDwAwggEKAoIBAQDpEbkomAI4bnLWok3gnM1S22a4S0Hp
/ZS6E9fyVGlrG/wm+2SH22s/8/6ogYsCg+h70y4aLK8keUzaD3Cw6tDYv4YVbPRt
um6lRXPG+GhGZRiZs2d1WN+aIVFLgUE0jccDWv1GySF8x8YfhxA1YCxrWas2Bt6c
9mLviKFzEl/n2oDdiFre+7/Qf6OT/GCD/4tedA4X39NAoiPycbY0x+A3AWWan+8j
4rFvIr+bED29Y7aBDqFlSXued3bv72X2iDw2edNnwdgPOgwFnfDpJYtiXlWMw8a4
jypIn69ZHNOnQN6fhBOFnIBpGBJZdCwlT0+Ql8z0nPDelqugERo+6J2dAgMBAAGj
gYYwgYMwHwYDVR0jBBgwFoAUnMZfLhgz7tQWLB/jcfiY6tUiGewwEgYDVR0TAQH/
BAgwBgEB/wIBADAdBgNVHSUEFjAUBggrBgEFBQcDAgYIKwYBBQUHAwEwDgYDVR0P
AQH/BAQDAgEGMB0GA1UdDgQWBBTYOim0bN/PoSzb5oTimrGyWMwOwTANBgkqhkiG
9w0BAQsFAAOCAQEAkPDFv+DXwqlKjsUo4LK6ilhpk6AXJJeTRe2m88rh5wq/bUD6
3bgnARZV72W6bZbqZMwFuEcap+14NJUhgE3hnYLXyTmIsa4z3M/L+cNLDrdt8HMh
4YKhMOnv5CAL/PGI2u6kPjBtkok1N4k4sk6MBw36j85aD5kwPaU97stIEZUfjRe8
w5HhhXXEC7qWDWNEXT9tiu9MZOmccQmbxc5LkReVo6rxgrvdsKR1Jn3gevVVSuCk
c2qJazD+2H0N/3Silh6BqNzz30HelhQEMYX+iLwPXiUQ+N1uafQT4v3/5lM7RdKo
zWjQtsjoxmzRTVoUkG7NX7eaBS8jv6qABoC04g==
-----END CERTIFICATE-----
