Certificate:
    Data:
        Version: 3 (0x2)
        Serial Number:
            37:63:e3:f8:b2:2e:14:f3:87:c5:e3:14:4a:c5:4a:ff
        Signature Algorithm: sha256WithRSAEncryption
        Issuer: CN=IotSchool Root CA
        Validity
            Not Before: Sep  6 08:08:28 2021 GMT
            Not After : Sep  4 08:08:28 2031 GMT
        Subject: CN=IotSchool Sub CA
        Subject Public Key Info:
            Public Key Algorithm: rsaEncryption
                RSA Public-Key: (2048 bit)
                Modulus:
                    00:cb:27:d0:4e:6c:0a:d7:5b:90:3d:1e:8c:25:04:
                    14:6a:82:f7:e5:53:08:d7:8d:5c:c9:f9:4a:91:f0:
                    52:0f:1d:a9:76:55:23:60:28:86:d2:97:c7:20:da:
                    a4:1b:20:ac:ff:b9:74:6a:1f:45:96:16:11:84:bf:
                    40:30:0b:b0:ee:ea:c4:9d:87:61:57:d2:54:2b:1b:
                    6f:8e:af:71:20:32:ff:e1:cb:d0:aa:3f:73:4a:37:
                    07:b5:94:db:60:d1:ca:dd:1c:1b:78:aa:5c:f3:54:
                    20:ad:2e:e7:38:a8:2f:08:72:9f:87:02:70:da:4b:
                    54:2d:f7:72:e9:cb:05:3e:ef:ff:65:98:93:b9:6c:
                    d9:03:e8:7f:48:e5:b0:4b:f3:39:5c:e6:d3:8b:b9:
                    3e:87:41:de:02:2a:24:57:a9:99:8e:d3:32:22:dc:
                    57:8a:c4:7d:3c:db:26:c0:b8:a6:d4:71:70:a1:9b:
                    8a:b0:2a:d4:22:1e:a3:5a:b3:5a:46:1c:8c:01:a0:
                    5d:2c:97:00:9b:67:49:db:55:24:0b:af:a1:b0:ee:
                    63:5e:59:a5:1a:44:03:cb:99:b2:a2:77:06:d8:19:
                    d3:5f:85:07:7d:37:e1:90:5d:e8:40:aa:9d:1e:82:
                    31:a3:d9:90:2e:ab:ca:3c:b8:49:fd:5d:77:0b:db:
                    3a:93
                Exponent: 65537 (0x10001)
        X509v3 extensions:
            X509v3 Authority Key Identifier: 
                keyid:9C:C6:5F:2E:18:33:EE:D4:16:2C:1F:E3:71:F8:98:EA:D5:22:19:EC

            X509v3 Basic Constraints: critical
                CA:TRUE, pathlen:0
            X509v3 Extended Key Usage: 
                TLS Web Client Authentication, TLS Web Server Authentication
            X509v3 Key Usage: critical
                Certificate Sign, CRL Sign
            X509v3 Subject Key Identifier: 
                0F:8E:26:E3:9B:5E:5A:4D:1E:47:1F:BC:2A:68:A9:8F:6C:AA:3C:4A
    Signature Algorithm: sha256WithRSAEncryption
         94:6b:29:22:af:81:2e:6f:91:bc:fd:6d:e9:54:98:8c:50:f9:
         cd:4f:6f:e1:26:60:c1:aa:1f:84:d0:a4:8c:6d:11:ef:b1:12:
         19:e2:0c:95:91:82:76:aa:38:31:94:e4:27:f9:23:a6:aa:55:
         18:f9:e6:46:fd:89:fa:04:4b:8a:f7:45:03:5c:20:fd:98:dd:
         77:97:a4:e8:bc:e5:8c:f5:16:ad:36:51:5e:2e:eb:63:f2:55:
         36:4b:d0:59:8b:3c:65:7f:be:0d:63:8e:cf:a8:78:21:a7:3d:
         29:79:0a:48:76:46:5a:19:6a:f2:fc:92:2a:74:be:38:aa:39:
         d3:8f:ac:d6:8b:68:55:85:f1:cd:eb:51:56:53:ba:c4:c1:98:
         96:a1:b3:28:6e:11:f2:1b:6f:52:2c:46:60:a4:cf:d0:60:49:
         4b:71:f6:dc:9a:0b:5d:09:6b:35:c6:ad:96:73:fc:f4:ff:35:
         ed:aa:59:b4:f6:5a:b2:7c:76:97:3e:b5:6d:11:8a:bb:0b:03:
         62:4c:80:c5:a2:ba:57:14:d5:1f:b6:7d:10:fe:73:2f:00:4d:
         11:b9:72:36:eb:11:6b:05:a5:74:12:88:ab:91:f1:22:d1:32:
         e0:6e:62:03:e6:da:74:72:f1:8a:ec:52:9f:0b:06:27:09:05:
         35:3f:68:f1
-----BEGIN CERTIFICATE-----
MIIDSDCCAjCgAwIBAgIQN2Pj+LIuFPOHxeMUSsVK/zANBgkqhkiG9w0BAQsFADAc
MRowGAYDVQQDDBFJb3RTY2hvb2wgUm9vdCBDQTAeFw0yMTA5MDYwODA4MjhaFw0z
MTA5MDQwODA4MjhaMBsxGTAXBgNVBAMMEElvdFNjaG9vbCBTdWIgQ0EwggEiMA0G
CSqGSIb3DQEBAQUAA4IBDwAwggEKAoIBAQDLJ9BObArXW5A9HowlBBRqgvflUwjX
jVzJ+UqR8FIPHal2VSNgKIbSl8cg2qQbIKz/uXRqH0WWFhGEv0AwC7Du6sSdh2FX
0lQrG2+Or3EgMv/hy9CqP3NKNwe1lNtg0crdHBt4qlzzVCCtLuc4qC8Icp+HAnDa
S1Qt93LpywU+7/9lmJO5bNkD6H9I5bBL8zlc5tOLuT6HQd4CKiRXqZmO0zIi3FeK
xH082ybAuKbUcXChm4qwKtQiHqNas1pGHIwBoF0slwCbZ0nbVSQLr6Gw7mNeWaUa
RAPLmbKidwbYGdNfhQd9N+GQXehAqp0egjGj2ZAuq8o8uEn9XXcL2zqTAgMBAAGj
gYYwgYMwHwYDVR0jBBgwFoAUnMZfLhgz7tQWLB/jcfiY6tUiGewwEgYDVR0TAQH/
BAgwBgEB/wIBADAdBgNVHSUEFjAUBggrBgEFBQcDAgYIKwYBBQUHAwEwDgYDVR0P
AQH/BAQDAgEGMB0GA1UdDgQWBBQPjibjm15aTR5HH7wqaKmPbKo8SjANBgkqhkiG
9w0BAQsFAAOCAQEAlGspIq+BLm+RvP1t6VSYjFD5zU9v4SZgwaofhNCkjG0R77ES
GeIMlZGCdqo4MZTkJ/kjpqpVGPnmRv2J+gRLivdFA1wg/Zjdd5ek6LzljPUWrTZR
Xi7rY/JVNkvQWYs8ZX++DWOOz6h4Iac9KXkKSHZGWhlq8vySKnS+OKo504+s1oto
VYXxzetRVlO6xMGYlqGzKG4R8htvUixGYKTP0GBJS3H23JoLXQlrNcatlnP89P81
7apZtPZasnx2lz61bRGKuwsDYkyAxaK6VxTVH7Z9EP5zLwBNEblyNusRawWldBKI
q5HxItEy4G5iA+badHLxiuxSnwsGJwkFNT9o8Q==
-----END CERTIFICATE-----
