Certificate:
    Data:
        Version: 3 (0x2)
        Serial Number:
            41:13:92:ce:dc:2b:4d:64:87:c4:a2:7f:98:b2:3e:d3
        Signature Algorithm: sha256WithRSAEncryption
        Issuer: CN=IotSchool Root CA
        Validity
            Not Before: Apr 25 14:31:52 2023 GMT
            Not After : Apr 22 14:31:52 2033 GMT
        Subject: CN=IotSchool Sub CA
        Subject Public Key Info:
            Public Key Algorithm: rsaEncryption
                Public-Key: (2048 bit)
                Modulus:
                    00:c7:4b:d8:49:29:a8:a8:2e:ac:d3:e9:6c:6d:5b:
                    a2:69:8d:85:71:09:c6:e3:f9:8c:f7:9e:4e:0b:0b:
                    ce:20:a2:28:3b:ea:c8:8f:09:22:b4:00:66:46:e8:
                    43:76:23:d0:cc:00:69:37:51:b6:6d:e0:3b:3b:ac:
                    b1:74:dc:10:ef:34:46:98:55:28:bc:2e:b1:b0:7c:
                    1f:e8:98:20:65:77:84:e2:ff:87:8b:84:0f:64:c6:
                    a6:cb:54:e0:e3:44:73:fe:71:87:ef:e6:90:33:28:
                    74:e2:75:1d:58:9f:db:4e:89:d2:37:99:d2:18:ce:
                    c4:75:aa:80:48:0a:97:74:ce:a9:c9:d9:09:93:50:
                    1c:f3:ce:55:e1:d0:27:c4:5c:07:da:97:38:5b:66:
                    8c:6c:8e:9e:4f:f2:3e:c4:d8:f0:7b:8a:48:93:6c:
                    bc:fb:ad:5a:42:06:7f:dc:ed:5c:4d:43:01:34:c5:
                    6f:09:c4:9f:77:75:97:70:f2:15:b1:fc:2e:12:d7:
                    25:5d:27:28:e6:52:8d:95:3d:dc:00:72:5e:ad:f0:
                    ef:73:d8:55:6c:80:a2:83:40:7c:02:52:76:ae:c9:
                    00:1a:a0:eb:a3:29:19:0d:80:ec:ea:41:ae:06:ea:
                    6b:6a:de:da:bb:65:56:97:67:39:92:ff:99:ff:3e:
                    fc:55
                Exponent: 65537 (0x10001)
        X509v3 extensions:
            X509v3 Authority Key Identifier: 
                9C:C6:5F:2E:18:33:EE:D4:16:2C:1F:E3:71:F8:98:EA:D5:22:19:EC
            X509v3 Basic Constraints: critical
                CA:TRUE, pathlen:0
            X509v3 Extended Key Usage: 
                TLS Web Client Authentication, TLS Web Server Authentication
            X509v3 Key Usage: critical
                Certificate Sign, CRL Sign
            X509v3 Subject Key Identifier: 
                F0:0B:BD:B0:D1:F4:09:2B:A3:FB:F8:76:78:1A:2F:06:2A:9C:B1:6C
    Signature Algorithm: sha256WithRSAEncryption
    Signature Value:
        96:d5:02:04:51:05:c6:2f:e0:bd:0f:00:e3:63:ca:fb:df:30:
        a0:fb:08:0d:39:43:68:d9:5d:3a:fd:6b:10:d5:a4:3d:7a:9e:
        b9:9f:ce:ee:36:4a:de:cd:e0:76:48:d3:37:8e:c5:76:88:d4:
        ad:c7:f8:38:28:14:50:56:8a:92:c6:1b:d8:45:72:3f:c4:40:
        5c:67:10:d8:d3:ea:60:19:e8:4a:36:84:45:08:04:6b:d3:d9:
        ad:11:c8:bc:f7:e4:83:4e:60:8a:01:db:f6:95:0f:04:2a:8b:
        f6:39:04:ba:2b:f3:2f:6c:1f:16:07:86:cf:a8:1e:a2:c5:35:
        6f:6f:85:cb:8e:d3:2e:21:7b:f7:01:7f:6c:8d:29:35:4f:45:
        ae:5e:2a:50:68:f2:7f:ea:c5:5f:81:78:72:01:3f:9b:6e:37:
        10:c4:f4:90:08:e2:9f:2b:34:e9:27:f8:57:7c:e9:f3:86:cf:
        9c:3d:e8:28:89:42:66:b8:71:a8:37:19:32:73:cc:65:eb:63:
        38:c8:34:4b:6a:10:c9:91:42:f2:0f:13:54:d5:08:b2:a8:d7:
        13:a6:fd:27:e4:07:b6:f6:92:10:91:a8:61:3f:9c:85:c8:76:
        98:8b:de:39:2b:a9:84:18:71:0c:9d:35:fa:a9:90:b2:bf:43:
        c9:7a:f2:74
-----BEGIN CERTIFICATE-----
MIIDSDCCAjCgAwIBAgIQQROSztwrTWSHxKJ/mLI+0zANBgkqhkiG9w0BAQsFADAc
MRowGAYDVQQDDBFJb3RTY2hvb2wgUm9vdCBDQTAeFw0yMzA0MjUxNDMxNTJaFw0z
MzA0MjIxNDMxNTJaMBsxGTAXBgNVBAMMEElvdFNjaG9vbCBTdWIgQ0EwggEiMA0G
CSqGSIb3DQEBAQUAA4IBDwAwggEKAoIBAQDHS9hJKaioLqzT6WxtW6JpjYVxCcbj
+Yz3nk4LC84goig76siPCSK0AGZG6EN2I9DMAGk3UbZt4Ds7rLF03BDvNEaYVSi8
LrGwfB/omCBld4Ti/4eLhA9kxqbLVODjRHP+cYfv5pAzKHTidR1Yn9tOidI3mdIY
zsR1qoBICpd0zqnJ2QmTUBzzzlXh0CfEXAfalzhbZoxsjp5P8j7E2PB7ikiTbLz7
rVpCBn/c7VxNQwE0xW8JxJ93dZdw8hWx/C4S1yVdJyjmUo2VPdwAcl6t8O9z2FVs
gKKDQHwCUnauyQAaoOujKRkNgOzqQa4G6mtq3tq7ZVaXZzmS/5n/PvxVAgMBAAGj
gYYwgYMwHwYDVR0jBBgwFoAUnMZfLhgz7tQWLB/jcfiY6tUiGewwEgYDVR0TAQH/
BAgwBgEB/wIBADAdBgNVHSUEFjAUBggrBgEFBQcDAgYIKwYBBQUHAwEwDgYDVR0P
AQH/BAQDAgEGMB0GA1UdDgQWBBTwC72w0fQJK6P7+HZ4Gi8GKpyxbDANBgkqhkiG
9w0BAQsFAAOCAQEAltUCBFEFxi/gvQ8A42PK+98woPsIDTlDaNldOv1rENWkPXqe
uZ/O7jZK3s3gdkjTN47FdojUrcf4OCgUUFaKksYb2EVyP8RAXGcQ2NPqYBnoSjaE
RQgEa9PZrRHIvPfkg05gigHb9pUPBCqL9jkEuivzL2wfFgeGz6geosU1b2+Fy47T
LiF79wF/bI0pNU9Frl4qUGjyf+rFX4F4cgE/m243EMT0kAjinys06Sf4V3zp84bP
nD3oKIlCZrhxqDcZMnPMZetjOMg0S2oQyZFC8g8TVNUIsqjXE6b9J+QHtvaSEJGo
YT+chch2mIveOSuphBhxDJ01+qmQsr9DyXrydA==
-----END CERTIFICATE-----
