Certificate:
    Data:
        Version: 3 (0x2)
        Serial Number:
            44:34:4c:7b:b4:76:9b:86:1b:82:8d:63:29:51:26:1e
        Signature Algorithm: sha256WithRSAEncryption
        Issuer: CN=IotSchool Root CA
        Validity
            Not Before: Sep  6 08:09:11 2021 GMT
            Not After : Sep  4 08:09:11 2031 GMT
        Subject: CN=IotSchool Sub CA
        Subject Public Key Info:
            Public Key Algorithm: rsaEncryption
                RSA Public-Key: (2048 bit)
                Modulus:
                    00:c3:56:45:24:f5:b4:29:c5:8a:9b:b6:17:a8:e6:
                    ce:07:92:89:65:26:a6:3f:4f:ca:af:29:09:56:ae:
                    c1:4a:29:88:b3:96:e1:25:08:01:5b:dd:5f:4b:ea:
                    01:f6:26:82:c0:a3:a6:b0:63:82:cc:ec:86:f2:9b:
                    f2:e6:b5:a8:5f:27:e1:fe:1b:8a:9f:3d:37:15:c8:
                    a9:3a:19:ad:45:25:50:72:f6:da:02:15:b7:2a:47:
                    de:90:6b:42:7a:ac:51:d5:cf:56:9c:3e:4c:c6:ac:
                    be:e1:98:f3:0d:fe:59:c2:1d:d1:60:d7:1f:1c:06:
                    23:66:3e:f3:cd:16:a8:ef:ca:26:81:ca:99:9a:6a:
                    c8:cb:51:66:12:40:4c:4c:65:0e:83:43:6a:f9:c6:
                    98:76:5b:b1:5d:58:05:53:0f:00:9f:e2:cc:c9:a3:
                    34:8c:c5:6e:36:59:c3:94:fe:d7:25:d9:c8:30:f2:
                    95:9b:0b:01:04:d9:ba:4f:d6:ef:f0:cb:f9:b1:2b:
                    c7:34:4e:50:83:fc:62:3e:71:e7:67:ef:8e:fe:6a:
                    87:66:34:e7:5e:f7:0e:8f:3b:35:fd:e5:dc:79:d5:
                    41:8a:79:e6:a8:ad:f7:24:39:f4:6d:e4:f2:af:c4:
                    04:03:49:28:7e:4e:35:da:c9:1e:c8:e6:d0:66:43:
                    94:99
                Exponent: 65537 (0x10001)
        X509v3 extensions:
            X509v3 Authority Key Identifier: 
                keyid:9C:C6:5F:2E:18:33:EE:D4:16:2C:1F:E3:71:F8:98:EA:D5:22:19:EC

            X509v3 Basic Constraints: critical
                CA:TRUE, pathlen:0
            X509v3 Extended Key Usage: 
                TLS Web Client Authentication, TLS Web Server Authentication
            X509v3 Key Usage: critical
                Certificate Sign, CRL Sign
            X509v3 Subject Key Identifier: 
                F3:CB:6F:2D:95:7A:A7:7F:47:2D:2B:4A:40:D0:FB:30:B7:8B:DD:06
    Signature Algorithm: sha256WithRSAEncryption
         13:f7:61:d5:0e:f6:b2:74:7b:20:a2:d8:b1:8d:f9:24:f9:91:
         0a:de:e7:61:37:42:47:7d:c4:4f:36:23:5a:51:31:5d:be:66:
         92:67:9e:49:f4:70:fa:95:4c:17:76:c3:91:cf:92:60:48:55:
         7e:d0:de:4c:b3:6d:cf:1d:45:d1:cc:5b:d0:db:70:b5:37:19:
         26:08:9f:0a:2e:f9:04:c1:8a:65:97:88:37:b5:a5:17:47:c8:
         48:68:7d:96:b2:11:d2:16:77:0a:02:ec:af:92:15:d6:37:75:
         d8:48:b0:fe:08:5d:95:29:2c:3a:87:63:44:1c:1b:a8:9b:a4:
         db:d6:1f:23:6d:79:7c:e3:4d:b4:b9:a7:4b:0d:91:61:92:76:
         99:a1:71:35:97:20:2a:81:96:68:57:29:e6:8a:e3:84:94:89:
         0a:d7:84:b2:6e:4a:ce:1f:47:70:90:c6:57:ca:d9:8b:15:0d:
         49:68:df:e4:4c:e7:37:ba:a3:3f:1f:2a:75:92:54:d1:85:59:
         85:ee:33:71:ce:b1:88:22:83:0b:f1:88:37:2c:d6:15:b7:e1:
         71:5e:aa:6c:f8:6a:f6:f4:c5:50:92:67:52:37:73:28:97:65:
         bf:ea:ad:b2:31:e3:1e:b8:e7:f7:fb:d5:8e:76:65:cc:a5:ea:
         30:13:4d:24
-----BEGIN CERTIFICATE-----
MIIDSDCCAjCgAwIBAgIQRDRMe7R2m4Ybgo1jKVEmHjANBgkqhkiG9w0BAQsFADAc
MRowGAYDVQQDDBFJb3RTY2hvb2wgUm9vdCBDQTAeFw0yMTA5MDYwODA5MTFaFw0z
MTA5MDQwODA5MTFaMBsxGTAXBgNVBAMMEElvdFNjaG9vbCBTdWIgQ0EwggEiMA0G
CSqGSIb3DQEBAQUAA4IBDwAwggEKAoIBAQDDVkUk9bQpxYqbtheo5s4HkollJqY/
T8qvKQlWrsFKKYizluElCAFb3V9L6gH2JoLAo6awY4LM7Ibym/LmtahfJ+H+G4qf
PTcVyKk6Ga1FJVBy9toCFbcqR96Qa0J6rFHVz1acPkzGrL7hmPMN/lnCHdFg1x8c
BiNmPvPNFqjvyiaBypmaasjLUWYSQExMZQ6DQ2r5xph2W7FdWAVTDwCf4szJozSM
xW42WcOU/tcl2cgw8pWbCwEE2bpP1u/wy/mxK8c0TlCD/GI+cedn747+aodmNOde
9w6POzX95dx51UGKeeaorfckOfRt5PKvxAQDSSh+TjXayR7I5tBmQ5SZAgMBAAGj
gYYwgYMwHwYDVR0jBBgwFoAUnMZfLhgz7tQWLB/jcfiY6tUiGewwEgYDVR0TAQH/
BAgwBgEB/wIBADAdBgNVHSUEFjAUBggrBgEFBQcDAgYIKwYBBQUHAwEwDgYDVR0P
AQH/BAQDAgEGMB0GA1UdDgQWBBTzy28tlXqnf0ctK0pA0Pswt4vdBjANBgkqhkiG
9w0BAQsFAAOCAQEAE/dh1Q72snR7IKLYsY35JPmRCt7nYTdCR33ETzYjWlExXb5m
kmeeSfRw+pVMF3bDkc+SYEhVftDeTLNtzx1F0cxb0NtwtTcZJgifCi75BMGKZZeI
N7WlF0fISGh9lrIR0hZ3CgLsr5IV1jd12Eiw/ghdlSksOodjRBwbqJuk29YfI215
fONNtLmnSw2RYZJ2maFxNZcgKoGWaFcp5orjhJSJCteEsm5Kzh9HcJDGV8rZixUN
SWjf5EznN7qjPx8qdZJU0YVZhe4zcc6xiCKDC/GINyzWFbfhcV6qbPhq9vTFUJJn
UjdzKJdlv+qtsjHjHrjn9/vVjnZlzKXqMBNNJA==
-----END CERTIFICATE-----
