Certificate:
    Data:
        Version: 3 (0x2)
        Serial Number:
            46:ca:b3:56:44:85:49:f6:4c:2c:b6:3d:35:d1:2a:f7
        Signature Algorithm: sha256WithRSAEncryption
        Issuer: CN=IotSchool Root CA
        Validity
            Not Before: Apr 25 18:17:35 2023 GMT
            Not After : Apr 22 18:17:35 2033 GMT
        Subject: CN=IotSchool Sub CA
        Subject Public Key Info:
            Public Key Algorithm: rsaEncryption
                Public-Key: (2048 bit)
                Modulus:
                    00:c9:02:d3:c9:a0:65:90:fc:8e:93:70:92:94:f7:
                    c2:71:3c:70:a7:ff:e9:12:8b:49:9d:6e:da:45:1b:
                    f1:39:eb:1c:b0:23:12:02:30:a6:db:61:b5:95:3b:
                    5e:29:7a:d5:09:34:a5:2e:ad:3a:a2:f3:cd:33:a2:
                    0e:fa:ba:74:e7:d8:bc:11:30:52:c6:e5:68:f6:0b:
                    39:55:4c:d1:c7:51:7d:1f:f7:f6:25:88:fc:8b:7b:
                    2f:92:be:b5:62:ad:f8:16:ec:7e:dc:60:90:ad:a5:
                    e6:a2:3c:31:69:88:f5:5b:a4:e8:06:92:aa:e6:41:
                    17:02:ee:e0:7e:f9:a1:59:d1:9b:54:d3:71:87:67:
                    be:f9:e8:0c:51:0c:95:16:ee:4d:c6:3a:11:23:69:
                    a5:7f:f3:10:57:d8:c6:2f:af:d9:d9:ef:6d:1b:75:
                    8a:9f:98:31:d7:38:a4:4b:b0:9b:f1:12:9f:87:21:
                    e7:ca:8d:b6:ac:7b:85:14:61:aa:b9:5e:87:22:ee:
                    3b:3a:b9:17:5f:af:e1:ed:db:0b:e0:d0:cd:e9:36:
                    11:9e:dc:36:a3:1d:3f:d9:3a:59:70:b2:84:62:7d:
                    89:1d:9a:c5:ad:d2:96:de:4b:ef:6c:c2:ef:23:44:
                    91:8a:3e:62:45:28:1f:3f:40:bc:b6:eb:69:4d:a7:
                    63:79
                Exponent: 65537 (0x10001)
        X509v3 extensions:
            X509v3 Authority Key Identifier: 
                9C:C6:5F:2E:18:33:EE:D4:16:2C:1F:E3:71:F8:98:EA:D5:22:19:EC
            X509v3 Basic Constraints: critical
                CA:TRUE, pathlen:0
            X509v3 Extended Key Usage: 
                TLS Web Client Authentication, TLS Web Server Authentication
            X509v3 Key Usage: critical
                Certificate Sign, CRL Sign
            X509v3 Subject Key Identifier: 
                96:78:F2:E1:DD:20:43:D2:27:8F:AA:82:48:F5:2D:C4:D8:89:49:10
    Signature Algorithm: sha256WithRSAEncryption
    Signature Value:
        3b:3c:a6:2b:ff:df:c1:34:de:39:b8:db:a1:b4:78:ab:6c:ca:
        be:2f:1f:64:de:a2:91:56:f7:2a:3a:60:9b:fd:ac:37:33:64:
        8d:cb:29:5a:cb:9d:3b:76:bc:15:37:1d:b6:ca:df:9e:0e:36:
        89:a3:e7:21:da:a9:40:75:a4:29:e5:42:97:65:84:13:e0:8d:
        15:76:72:55:14:60:f7:3d:f2:4d:f9:d0:fe:fa:db:7e:e5:e6:
        ec:de:55:c3:fd:b5:24:15:a5:b1:3b:be:81:5c:89:61:5a:09:
        91:47:14:6a:66:20:ff:fb:f7:30:b7:94:cb:a4:5a:8d:75:9b:
        91:de:18:cc:55:1b:8c:57:33:7c:5b:32:e8:77:09:f8:9d:fb:
        0f:ba:0e:21:24:c0:cd:60:55:86:e3:e6:93:68:24:ec:c9:71:
        5f:6a:f9:d0:c3:7a:cb:6c:54:09:dd:ed:38:a2:a3:77:f8:db:
        a9:57:d2:56:b6:3f:bd:90:80:bb:16:1b:e3:81:c0:e6:d3:bc:
        94:e6:b5:5a:74:4e:91:0d:4a:40:f3:7a:3b:ee:28:18:13:18:
        5d:5c:d1:94:07:e4:aa:41:45:de:9f:08:cf:4b:0a:15:8d:8d:
        38:cf:c6:26:a6:5a:29:59:89:8c:5a:42:24:70:3c:76:eb:f1:
        4b:ee:84:25
-----BEGIN CERTIFICATE-----
MIIDSDCCAjCgAwIBAgIQRsqzVkSFSfZMLLY9NdEq9zANBgkqhkiG9w0BAQsFADAc
MRowGAYDVQQDDBFJb3RTY2hvb2wgUm9vdCBDQTAeFw0yMzA0MjUxODE3MzVaFw0z
MzA0MjIxODE3MzVaMBsxGTAXBgNVBAMMEElvdFNjaG9vbCBTdWIgQ0EwggEiMA0G
CSqGSIb3DQEBAQUAA4IBDwAwggEKAoIBAQDJAtPJoGWQ/I6TcJKU98JxPHCn/+kS
i0mdbtpFG/E56xywIxICMKbbYbWVO14petUJNKUurTqi880zog76unTn2LwRMFLG
5Wj2CzlVTNHHUX0f9/YliPyLey+SvrVirfgW7H7cYJCtpeaiPDFpiPVbpOgGkqrm
QRcC7uB++aFZ0ZtU03GHZ7756AxRDJUW7k3GOhEjaaV/8xBX2MYvr9nZ720bdYqf
mDHXOKRLsJvxEp+HIefKjbase4UUYaq5Xoci7js6uRdfr+Ht2wvg0M3pNhGe3Daj
HT/ZOllwsoRifYkdmsWt0pbeS+9swu8jRJGKPmJFKB8/QLy262lNp2N5AgMBAAGj
gYYwgYMwHwYDVR0jBBgwFoAUnMZfLhgz7tQWLB/jcfiY6tUiGewwEgYDVR0TAQH/
BAgwBgEB/wIBADAdBgNVHSUEFjAUBggrBgEFBQcDAgYIKwYBBQUHAwEwDgYDVR0P
AQH/BAQDAgEGMB0GA1UdDgQWBBSWePLh3SBD0iePqoJI9S3E2IlJEDANBgkqhkiG
9w0BAQsFAAOCAQEAOzymK//fwTTeObjbobR4q2zKvi8fZN6ikVb3Kjpgm/2sNzNk
jcspWsudO3a8FTcdtsrfng42iaPnIdqpQHWkKeVCl2WEE+CNFXZyVRRg9z3yTfnQ
/vrbfuXm7N5Vw/21JBWlsTu+gVyJYVoJkUcUamYg//v3MLeUy6RajXWbkd4YzFUb
jFczfFsy6HcJ+J37D7oOISTAzWBVhuPmk2gk7MlxX2r50MN6y2xUCd3tOKKjd/jb
qVfSVrY/vZCAuxYb44HA5tO8lOa1WnROkQ1KQPN6O+4oGBMYXVzRlAfkqkFF3p8I
z0sKFY2NOM/GJqZaKVmJjFpCJHA8duvxS+6EJQ==
-----END CERTIFICATE-----
