Certificate:
    Data:
        Version: 3 (0x2)
        Serial Number:
            56:a8:d7:12:55:e4:98:07:46:b9:94:cd:53:5a:a8:63
        Signature Algorithm: sha256WithRSAEncryption
        Issuer: CN=IotSchool Root CA
        Validity
            Not Before: Apr 25 14:54:52 2023 GMT
            Not After : Apr 22 14:54:52 2033 GMT
        Subject: CN=IotSchool Sub CA
        Subject Public Key Info:
            Public Key Algorithm: rsaEncryption
                Public-Key: (2048 bit)
                Modulus:
                    00:c9:6c:55:65:2a:b9:e3:9e:48:9b:21:24:64:85:
                    dc:e6:e0:02:c8:7f:6d:9b:94:29:23:7f:e3:c1:b3:
                    5a:53:ca:e8:6c:c0:bd:14:a9:48:06:74:bf:26:68:
                    a7:f8:c8:f6:2f:d9:31:36:dc:fc:61:31:54:b2:6f:
                    f7:93:87:c5:32:c8:a2:16:13:e0:2d:55:b4:31:9c:
                    6e:ef:3c:4e:6e:2e:0f:a4:12:6e:07:d7:d1:15:25:
                    2c:84:f1:8c:f2:02:d6:18:04:ae:6e:8b:90:21:17:
                    25:9b:ad:64:9b:5b:0a:5b:fc:15:ad:f1:4c:4e:45:
                    97:2e:05:55:01:c8:d4:2e:be:ba:eb:05:97:32:a4:
                    8b:32:ce:4b:8e:7b:de:c5:68:37:e3:d9:70:43:ab:
                    9b:f4:9d:29:e6:d6:ab:e1:f7:79:2f:07:90:31:72:
                    e5:fc:5e:b7:fd:39:9e:d4:e1:25:38:88:76:59:7e:
                    3d:cc:7c:49:5b:c7:5e:1d:16:5e:2a:7f:da:8a:00:
                    a1:ac:72:31:9a:0c:f0:f8:ca:a3:d6:c4:3f:4a:55:
                    b4:ee:a0:25:4e:00:49:d4:52:19:af:30:45:bb:f0:
                    e0:bc:4f:00:f9:12:3a:9a:ab:41:94:65:00:7b:0a:
                    cf:66:9a:ac:68:4a:c1:6d:66:1b:c8:35:32:50:cd:
                    c5:1f
                Exponent: 65537 (0x10001)
        X509v3 extensions:
            X509v3 Authority Key Identifier: 
                9C:C6:5F:2E:18:33:EE:D4:16:2C:1F:E3:71:F8:98:EA:D5:22:19:EC
            X509v3 Basic Constraints: critical
                CA:TRUE, pathlen:0
            X509v3 Extended Key Usage: 
                TLS Web Client Authentication, TLS Web Server Authentication
            X509v3 Key Usage: critical
                Certificate Sign, CRL Sign
            X509v3 Subject Key Identifier: 
                9F:31:7B:90:82:01:2D:17:6E:00:7A:C1:19:18:94:97:84:CB:0C:65
    Signature Algorithm: sha256WithRSAEncryption
    Signature Value:
        70:05:33:ec:2a:70:e7:2f:78:4a:5e:e2:57:80:3c:d9:96:02:
        b6:62:d8:29:21:6e:8e:06:30:f8:50:7d:f3:fa:90:e9:61:0b:
        c5:f5:31:98:3d:a1:12:8d:0a:09:32:10:c0:da:73:d0:49:1f:
        52:c3:68:89:3b:c8:de:5f:40:1f:b2:af:7a:99:67:f9:55:aa:
        97:74:87:0b:5a:9d:3c:62:a0:9c:7d:29:92:17:f7:e6:a2:f6:
        f8:0c:7a:78:76:44:64:4c:44:94:08:d5:d2:9f:6f:70:34:d4:
        11:1d:c9:8e:b0:71:ba:08:11:9f:39:f4:36:9c:a2:02:8b:eb:
        03:75:c5:e7:18:ab:44:df:c8:5b:74:60:a4:a1:38:a0:ab:2d:
        bc:5f:54:3a:cf:84:00:23:88:86:40:b5:71:c7:ae:de:62:c6:
        a2:7d:75:da:28:f0:b5:96:ee:ed:00:5d:88:98:4e:d9:c7:e9:
        16:47:ae:49:5d:32:41:c5:71:ae:dd:d3:02:91:d4:0d:b6:0e:
        d2:d5:b3:38:92:1d:38:73:f6:85:37:6e:13:ee:52:b6:f9:c4:
        ed:aa:8a:60:81:90:53:d9:54:96:ec:52:ea:6b:29:8a:b4:9c:
        2c:48:6f:b9:02:bd:6d:f8:c1:64:d7:15:31:c3:82:d8:bf:a5:
        33:c6:99:bf
-----BEGIN CERTIFICATE-----
MIIDSDCCAjCgAwIBAgIQVqjXElXkmAdGuZTNU1qoYzANBgkqhkiG9w0BAQsFADAc
MRowGAYDVQQDDBFJb3RTY2hvb2wgUm9vdCBDQTAeFw0yMzA0MjUxNDU0NTJaFw0z
MzA0MjIxNDU0NTJaMBsxGTAXBgNVBAMMEElvdFNjaG9vbCBTdWIgQ0EwggEiMA0G
CSqGSIb3DQEBAQUAA4IBDwAwggEKAoIBAQDJbFVlKrnjnkibISRkhdzm4ALIf22b
lCkjf+PBs1pTyuhswL0UqUgGdL8maKf4yPYv2TE23PxhMVSyb/eTh8UyyKIWE+At
VbQxnG7vPE5uLg+kEm4H19EVJSyE8YzyAtYYBK5ui5AhFyWbrWSbWwpb/BWt8UxO
RZcuBVUByNQuvrrrBZcypIsyzkuOe97FaDfj2XBDq5v0nSnm1qvh93kvB5AxcuX8
Xrf9OZ7U4SU4iHZZfj3MfElbx14dFl4qf9qKAKGscjGaDPD4yqPWxD9KVbTuoCVO
AEnUUhmvMEW78OC8TwD5Ejqaq0GUZQB7Cs9mmqxoSsFtZhvINTJQzcUfAgMBAAGj
gYYwgYMwHwYDVR0jBBgwFoAUnMZfLhgz7tQWLB/jcfiY6tUiGewwEgYDVR0TAQH/
BAgwBgEB/wIBADAdBgNVHSUEFjAUBggrBgEFBQcDAgYIKwYBBQUHAwEwDgYDVR0P
AQH/BAQDAgEGMB0GA1UdDgQWBBSfMXuQggEtF24AesEZGJSXhMsMZTANBgkqhkiG
9w0BAQsFAAOCAQEAcAUz7Cpw5y94Sl7iV4A82ZYCtmLYKSFujgYw+FB98/qQ6WEL
xfUxmD2hEo0KCTIQwNpz0EkfUsNoiTvI3l9AH7Kvepln+VWql3SHC1qdPGKgnH0p
khf35qL2+Ax6eHZEZExElAjV0p9vcDTUER3JjrBxuggRnzn0NpyiAovrA3XF5xir
RN/IW3RgpKE4oKstvF9UOs+EACOIhkC1cceu3mLGon112ijwtZbu7QBdiJhO2cfp
FkeuSV0yQcVxrt3TApHUDbYO0tWzOJIdOHP2hTduE+5StvnE7aqKYIGQU9lUluxS
6mspirScLEhvuQK9bfjBZNcVMcOC2L+lM8aZvw==
-----END CERTIFICATE-----
