Certificate:
    Data:
        Version: 3 (0x2)
        Serial Number:
            59:e8:fa:c0:5d:6a:45:8b:26:58:c8:ed:a5:80:e5:7f
        Signature Algorithm: sha256WithRSAEncryption
        Issuer: CN=IotSchool Root CA
        Validity
            Not Before: Apr 13 08:14:42 2023 GMT
            Not After : Apr 10 08:14:42 2033 GMT
        Subject: CN=IotSchool Sub CA
        Subject Public Key Info:
            Public Key Algorithm: rsaEncryption
                Public-Key: (2048 bit)
                Modulus:
                    00:f1:fa:1c:bc:09:cb:9b:4b:28:76:a7:6e:40:7b:
                    88:ef:f4:c6:39:ea:dd:c1:e9:42:c4:04:c7:32:8d:
                    d2:70:55:ed:9f:3f:c7:b8:65:1a:01:e1:d2:03:1d:
                    b1:ec:82:c7:bb:02:53:dd:fd:0c:c1:87:6d:39:89:
                    f2:75:73:d5:ae:51:c5:72:08:e2:26:1e:b3:24:43:
                    4e:a7:4c:b9:e3:0b:c5:af:20:40:18:78:1c:82:de:
                    90:63:45:22:88:22:2a:c3:3f:e5:98:51:ba:d3:f4:
                    2c:82:95:f9:0a:0f:2b:ce:10:ed:af:79:a2:9f:f2:
                    3e:07:3b:f5:b9:2e:ab:70:90:7e:12:be:e8:7c:e2:
                    0b:82:19:14:98:16:06:75:16:45:37:d8:66:d3:1c:
                    b1:f5:37:89:12:e5:cd:9b:af:77:9d:6f:9f:c8:14:
                    4b:63:8d:0c:f9:81:09:fa:a2:f9:5d:1e:da:21:aa:
                    bc:fa:49:19:ee:ee:d1:50:77:eb:16:23:db:2a:32:
                    ca:5b:eb:77:86:65:88:e4:c0:b2:ac:32:ca:ef:f3:
                    39:5d:35:5f:b6:8d:a2:ee:7a:6c:a7:a9:a5:e3:a8:
                    ec:a7:7a:31:af:73:03:a3:20:32:93:0f:96:75:7b:
                    c6:04:6c:00:d0:c4:2f:a5:ea:64:64:3b:d6:f3:11:
                    6f:c9
                Exponent: 65537 (0x10001)
        X509v3 extensions:
            X509v3 Authority Key Identifier: 
                9C:C6:5F:2E:18:33:EE:D4:16:2C:1F:E3:71:F8:98:EA:D5:22:19:EC
            X509v3 Basic Constraints: critical
                CA:TRUE, pathlen:0
            X509v3 Extended Key Usage: 
                TLS Web Client Authentication, TLS Web Server Authentication
            X509v3 Key Usage: critical
                Certificate Sign, CRL Sign
            X509v3 Subject Key Identifier: 
                37:E5:BD:53:E9:45:AB:12:9B:7D:5B:B8:38:21:BF:8A:88:C5:78:BE
    Signature Algorithm: sha256WithRSAEncryption
    Signature Value:
        6a:5e:1b:df:11:2f:3b:01:5e:8c:f9:19:5f:19:92:f2:c3:ae:
        ae:c7:10:7e:56:f6:22:52:4e:91:e8:fe:c8:f6:1a:4c:21:31:
        32:bc:8e:b3:cc:d5:41:3b:45:6d:18:46:7a:6e:d2:a3:a7:56:
        36:34:a6:ee:a2:84:e2:f8:7c:0d:9f:d6:f1:60:7f:70:2e:84:
        d1:bd:d9:7b:a3:3a:e7:60:34:5f:b0:8d:88:eb:02:ca:9a:90:
        f3:64:cd:86:3c:2a:c6:61:c1:82:be:5b:0d:27:ca:2c:40:57:
        22:17:45:d4:69:2b:d6:c9:aa:02:ad:ed:b7:24:cb:3c:a9:af:
        8a:97:f4:17:42:9f:74:71:0a:ac:df:89:a0:f6:4e:e2:2a:65:
        12:d0:4b:2d:6f:15:55:5f:1d:a0:e5:c6:5e:95:bf:be:7f:0d:
        6c:28:ca:94:13:6b:c4:e0:54:f2:70:d7:eb:14:31:07:d4:f1:
        dd:7d:15:ac:0a:ef:b0:3e:35:c6:0a:75:8d:9a:51:46:c3:51:
        55:8d:7a:b9:a5:ac:71:74:9a:c0:17:88:2c:66:99:26:5c:d6:
        21:86:eb:3e:d4:47:88:2a:1e:7c:a0:a1:4e:d4:23:4c:0b:5c:
        fb:3f:0d:99:2b:66:9d:4b:75:2f:0a:c2:42:d5:8e:72:6e:e4:
        51:a8:b2:14
-----BEGIN CERTIFICATE-----
MIIDSDCCAjCgAwIBAgIQWej6wF1qRYsmWMjtpYDlfzANBgkqhkiG9w0BAQsFADAc
MRowGAYDVQQDDBFJb3RTY2hvb2wgUm9vdCBDQTAeFw0yMzA0MTMwODE0NDJaFw0z
MzA0MTAwODE0NDJaMBsxGTAXBgNVBAMMEElvdFNjaG9vbCBTdWIgQ0EwggEiMA0G
CSqGSIb3DQEBAQUAA4IBDwAwggEKAoIBAQDx+hy8CcubSyh2p25Ae4jv9MY56t3B
6ULEBMcyjdJwVe2fP8e4ZRoB4dIDHbHsgse7AlPd/QzBh205ifJ1c9WuUcVyCOIm
HrMkQ06nTLnjC8WvIEAYeByC3pBjRSKIIirDP+WYUbrT9CyClfkKDyvOEO2veaKf
8j4HO/W5LqtwkH4Svuh84guCGRSYFgZ1FkU32GbTHLH1N4kS5c2br3edb5/IFEtj
jQz5gQn6ovldHtohqrz6SRnu7tFQd+sWI9sqMspb63eGZYjkwLKsMsrv8zldNV+2
jaLuemynqaXjqOynejGvcwOjIDKTD5Z1e8YEbADQxC+l6mRkO9bzEW/JAgMBAAGj
gYYwgYMwHwYDVR0jBBgwFoAUnMZfLhgz7tQWLB/jcfiY6tUiGewwEgYDVR0TAQH/
BAgwBgEB/wIBADAdBgNVHSUEFjAUBggrBgEFBQcDAgYIKwYBBQUHAwEwDgYDVR0P
AQH/BAQDAgEGMB0GA1UdDgQWBBQ35b1T6UWrEpt9W7g4Ib+KiMV4vjANBgkqhkiG
9w0BAQsFAAOCAQEAal4b3xEvOwFejPkZXxmS8sOurscQflb2IlJOkej+yPYaTCEx
MryOs8zVQTtFbRhGem7So6dWNjSm7qKE4vh8DZ/W8WB/cC6E0b3Ze6M652A0X7CN
iOsCypqQ82TNhjwqxmHBgr5bDSfKLEBXIhdF1Gkr1smqAq3ttyTLPKmvipf0F0Kf
dHEKrN+JoPZO4iplEtBLLW8VVV8doOXGXpW/vn8NbCjKlBNrxOBU8nDX6xQxB9Tx
3X0VrArvsD41xgp1jZpRRsNRVY16uaWscXSawBeILGaZJlzWIYbrPtRHiCoefKCh
TtQjTAtc+z8NmStmnUt1LwrCQtWOcm7kUaiyFA==
-----END CERTIFICATE-----
