Certificate:
    Data:
        Version: 3 (0x2)
        Serial Number:
            81:91:e3:49:e9:83:03:92:01:fb:ff:2a:44:6e:33:cf
        Signature Algorithm: sha256WithRSAEncryption
        Issuer: CN=IotSchool Root CA
        Validity
            Not Before: Apr 25 14:22:42 2023 GMT
            Not After : Apr 22 14:22:42 2033 GMT
        Subject: CN=IotSchool Sub CA
        Subject Public Key Info:
            Public Key Algorithm: rsaEncryption
                Public-Key: (2048 bit)
                Modulus:
                    00:ba:09:4a:eb:32:e4:9e:61:55:f1:64:cc:4f:80:
                    cb:b1:aa:38:cd:ad:2c:4f:bd:01:34:ad:a7:df:b7:
                    16:f9:9c:2c:78:94:43:ef:0f:77:eb:16:9b:4a:ad:
                    6d:73:e6:57:5b:80:06:32:a2:00:ac:e0:3f:08:c2:
                    5e:23:d4:e9:ee:77:16:63:e5:a3:ff:39:5a:f8:a4:
                    05:e5:23:1c:94:c6:96:9d:d1:40:de:c2:31:be:02:
                    76:bc:d8:ee:df:77:47:3d:94:35:91:5d:96:49:66:
                    35:94:70:a1:bf:17:8f:a4:bc:9a:25:9a:82:85:6e:
                    fd:2d:07:e6:4d:6f:00:e5:6f:35:e5:46:c7:4f:3d:
                    10:6a:af:2d:f0:4b:f4:fd:37:ac:d7:d1:5c:4f:ff:
                    54:b8:7a:a0:db:e1:4b:c6:a0:22:d9:8c:19:1b:24:
                    7c:8c:0b:ff:c9:43:6c:ee:d6:ac:d5:92:e1:52:90:
                    a6:11:d6:67:ac:43:cd:4d:16:41:6e:7c:30:af:f8:
                    ec:f7:f1:30:2f:c7:4b:78:3d:c1:7f:06:01:4e:36:
                    12:29:1c:bd:c5:ad:31:f9:1a:5d:65:fa:2e:dd:f3:
                    9b:ab:cc:09:62:3c:31:d3:e2:f1:07:1f:29:f3:7a:
                    c5:57:d2:d5:0d:e1:3b:8c:1f:4a:40:e2:00:9a:1d:
                    54:3b
                Exponent: 65537 (0x10001)
        X509v3 extensions:
            X509v3 Authority Key Identifier: 
                9C:C6:5F:2E:18:33:EE:D4:16:2C:1F:E3:71:F8:98:EA:D5:22:19:EC
            X509v3 Basic Constraints: critical
                CA:TRUE, pathlen:0
            X509v3 Extended Key Usage: 
                TLS Web Client Authentication, TLS Web Server Authentication
            X509v3 Key Usage: critical
                Certificate Sign, CRL Sign
            X509v3 Subject Key Identifier: 
                04:F6:E2:19:B2:8C:29:FA:01:8E:F4:AC:C9:4D:98:1D:3B:75:D4:89
    Signature Algorithm: sha256WithRSAEncryption
    Signature Value:
        74:d8:96:ef:8e:0a:bf:04:93:b9:2b:eb:ba:27:a3:55:f0:f4:
        64:a2:78:c6:58:22:1e:7c:e7:84:44:3a:9f:85:72:85:ae:e7:
        9d:80:64:18:c2:fe:60:00:db:db:45:df:83:47:bc:49:23:95:
        78:51:b0:26:97:3f:f3:94:18:b3:b6:40:00:e1:42:2c:5d:d7:
        f4:15:72:b5:02:c3:9d:14:d4:95:24:a2:22:37:23:cf:22:41:
        9a:6c:6e:14:ec:68:6a:dd:39:fc:e2:32:26:ae:95:18:01:77:
        96:48:52:c2:c0:10:de:34:ba:18:53:77:76:a6:e3:22:ef:61:
        f8:6e:14:68:d0:ba:5e:1d:e7:7d:f0:85:1f:a5:90:5b:8b:18:
        ce:38:24:17:8f:f8:2b:51:e0:50:04:d0:41:51:90:c2:18:d3:
        85:60:8f:09:95:8f:0f:64:be:e7:ab:0e:20:39:6d:51:f1:53:
        8e:eb:b1:ab:11:0e:bf:fb:85:df:fc:0e:21:c0:41:e4:a3:d3:
        33:41:7a:68:e1:e3:92:0b:46:c2:9b:20:51:7e:a8:aa:45:04:
        d3:e4:8c:fa:3e:01:0d:3f:cc:30:e7:84:cf:a0:63:fb:04:59:
        e7:a9:32:53:9e:f9:9e:9b:10:0b:e3:06:08:56:05:e4:c8:34:
        7a:65:ba:29
-----BEGIN CERTIFICATE-----
MIIDSTCCAjGgAwIBAgIRAIGR40npgwOSAfv/KkRuM88wDQYJKoZIhvcNAQELBQAw
HDEaMBgGA1UEAwwRSW90U2Nob29sIFJvb3QgQ0EwHhcNMjMwNDI1MTQyMjQyWhcN
MzMwNDIyMTQyMjQyWjAbMRkwFwYDVQQDDBBJb3RTY2hvb2wgU3ViIENBMIIBIjAN
BgkqhkiG9w0BAQEFAAOCAQ8AMIIBCgKCAQEAuglK6zLknmFV8WTMT4DLsao4za0s
T70BNK2n37cW+ZwseJRD7w936xabSq1tc+ZXW4AGMqIArOA/CMJeI9Tp7ncWY+Wj
/zla+KQF5SMclMaWndFA3sIxvgJ2vNju33dHPZQ1kV2WSWY1lHChvxePpLyaJZqC
hW79LQfmTW8A5W815UbHTz0Qaq8t8Ev0/Tes19FcT/9UuHqg2+FLxqAi2YwZGyR8
jAv/yUNs7tas1ZLhUpCmEdZnrEPNTRZBbnwwr/js9/EwL8dLeD3BfwYBTjYSKRy9
xa0x+RpdZfou3fObq8wJYjwx0+LxBx8p83rFV9LVDeE7jB9KQOIAmh1UOwIDAQAB
o4GGMIGDMB8GA1UdIwQYMBaAFJzGXy4YM+7UFiwf43H4mOrVIhnsMBIGA1UdEwEB
/wQIMAYBAf8CAQAwHQYDVR0lBBYwFAYIKwYBBQUHAwIGCCsGAQUFBwMBMA4GA1Ud
DwEB/wQEAwIBBjAdBgNVHQ4EFgQUBPbiGbKMKfoBjvSsyU2YHTt11IkwDQYJKoZI
hvcNAQELBQADggEBAHTYlu+OCr8Ek7kr67ono1Xw9GSieMZYIh5854REOp+FcoWu
552AZBjC/mAA29tF34NHvEkjlXhRsCaXP/OUGLO2QADhQixd1/QVcrUCw50U1JUk
oiI3I88iQZpsbhTsaGrdOfziMiaulRgBd5ZIUsLAEN40uhhTd3am4yLvYfhuFGjQ
ul4d533whR+lkFuLGM44JBeP+CtR4FAE0EFRkMIY04VgjwmVjw9kvuerDiA5bVHx
U47rsasRDr/7hd/8DiHAQeSj0zNBemjh45ILRsKbIFF+qKpFBNPkjPo+AQ0/zDDn
hM+gY/sEWeepMlOe+Z6bEAvjBghWBeTINHpluik=
-----END CERTIFICATE-----
