Certificate:
    Data:
        Version: 3 (0x2)
        Serial Number:
            8d:17:7f:07:1d:14:6d:ba:29:02:37:77:b7:a5:6a:50
        Signature Algorithm: sha256WithRSAEncryption
        Issuer: CN=IotSchool Root CA
        Validity
            Not Before: Apr 25 08:31:16 2023 GMT
            Not After : Apr 22 08:31:16 2033 GMT
        Subject: CN=IotSchool Sub CA
        Subject Public Key Info:
            Public Key Algorithm: rsaEncryption
                Public-Key: (2048 bit)
                Modulus:
                    00:bc:ba:cb:62:a0:21:67:36:08:e4:eb:01:99:2e:
                    cc:7a:3b:6b:85:de:28:7a:aa:3f:75:9c:13:12:01:
                    3e:d8:14:63:41:4c:cf:8b:ab:9e:27:a1:74:88:2c:
                    e8:fc:10:77:ea:68:fd:8d:ce:34:24:42:ae:7d:a0:
                    2d:fe:56:b5:c4:60:ec:7f:e3:69:4e:b9:dd:85:a7:
                    24:1b:80:79:01:07:fc:38:a2:61:9c:8d:20:55:e1:
                    80:a8:bd:5a:3d:09:1a:24:a0:0f:e0:c4:bc:5b:55:
                    09:76:b1:00:58:cc:68:96:cc:4a:5b:0d:e8:8e:d6:
                    1b:d2:48:da:e7:66:17:5d:44:c6:4b:65:d7:ce:66:
                    a6:a2:be:3b:58:d6:bd:12:aa:0c:be:4f:8f:ea:72:
                    c5:bd:ee:c8:7e:5a:76:0c:79:39:e7:54:b3:41:b3:
                    ba:48:e7:36:2a:7e:2e:a3:e7:06:a8:1a:f6:92:88:
                    f7:f0:ab:5e:53:81:ee:fd:f6:47:97:8c:9a:ed:4e:
                    a4:a6:a0:fa:f6:e1:7e:6b:6b:25:de:f0:7c:ab:7a:
                    08:25:d1:e9:06:73:4c:94:16:73:48:d3:f5:1f:fb:
                    6a:2c:fe:fa:5f:30:2a:ed:cf:f7:27:16:4c:a3:c4:
                    28:10:be:99:cd:7c:98:33:1d:b2:87:3c:ca:20:2b:
                    ab:7b
                Exponent: 65537 (0x10001)
        X509v3 extensions:
            X509v3 Authority Key Identifier: 
                9C:C6:5F:2E:18:33:EE:D4:16:2C:1F:E3:71:F8:98:EA:D5:22:19:EC
            X509v3 Basic Constraints: critical
                CA:TRUE, pathlen:0
            X509v3 Extended Key Usage: 
                TLS Web Client Authentication, TLS Web Server Authentication
            X509v3 Key Usage: critical
                Certificate Sign, CRL Sign
            X509v3 Subject Key Identifier: 
                C7:86:07:29:15:6A:24:88:5E:77:46:B4:2C:C7:E8:F0:38:E0:6A:6C
    Signature Algorithm: sha256WithRSAEncryption
    Signature Value:
        06:db:15:20:34:40:5a:ff:51:08:dd:59:b4:91:5e:7d:d9:91:
        32:a3:ef:29:29:34:89:3b:58:b1:34:44:4e:35:d5:65:bb:5b:
        82:08:30:97:6b:36:c4:a8:ec:e8:1c:14:e8:5b:c4:97:3c:df:
        08:e6:cd:d5:5e:00:ab:ba:12:45:16:0f:80:47:c9:06:df:12:
        96:d6:69:e7:34:a4:02:1e:a6:10:76:7e:aa:ba:fe:a2:f6:14:
        8a:ce:27:a7:b5:c2:05:86:e6:37:d7:5d:d6:ee:85:d4:30:2e:
        54:6a:20:00:7c:49:66:12:35:e1:61:b0:12:4a:e1:11:35:3a:
        a3:1e:a3:a3:42:c3:96:dd:f3:b7:88:6d:e7:98:3b:78:f2:b4:
        53:40:8b:68:12:04:75:cd:e9:02:17:2b:16:b3:5f:c5:73:7d:
        04:3d:a2:65:0f:fc:fc:3a:bc:7d:6b:e8:2f:7c:a5:99:80:18:
        5a:24:03:cc:95:bc:a5:49:d9:da:37:36:a8:fc:99:67:6f:3f:
        24:a2:09:84:62:5a:23:81:90:d0:e8:5f:61:9f:3c:c1:d7:34:
        34:a1:f9:a0:ed:92:22:bd:10:6f:31:19:3a:11:86:ad:01:f3:
        d4:cb:49:da:df:02:95:f6:6d:e9:0c:a2:93:66:69:26:23:14:
        59:2b:8e:ee
-----BEGIN CERTIFICATE-----
MIIDSTCCAjGgAwIBAgIRAI0XfwcdFG26KQI3d7elalAwDQYJKoZIhvcNAQELBQAw
HDEaMBgGA1UEAwwRSW90U2Nob29sIFJvb3QgQ0EwHhcNMjMwNDI1MDgzMTE2WhcN
MzMwNDIyMDgzMTE2WjAbMRkwFwYDVQQDDBBJb3RTY2hvb2wgU3ViIENBMIIBIjAN
BgkqhkiG9w0BAQEFAAOCAQ8AMIIBCgKCAQEAvLrLYqAhZzYI5OsBmS7Mejtrhd4o
eqo/dZwTEgE+2BRjQUzPi6ueJ6F0iCzo/BB36mj9jc40JEKufaAt/la1xGDsf+Np
TrndhackG4B5AQf8OKJhnI0gVeGAqL1aPQkaJKAP4MS8W1UJdrEAWMxolsxKWw3o
jtYb0kja52YXXUTGS2XXzmamor47WNa9EqoMvk+P6nLFve7Iflp2DHk551SzQbO6
SOc2Kn4uo+cGqBr2koj38KteU4Hu/fZHl4ya7U6kpqD69uF+a2sl3vB8q3oIJdHp
BnNMlBZzSNP1H/tqLP76XzAq7c/3JxZMo8QoEL6ZzXyYMx2yhzzKICurewIDAQAB
o4GGMIGDMB8GA1UdIwQYMBaAFJzGXy4YM+7UFiwf43H4mOrVIhnsMBIGA1UdEwEB
/wQIMAYBAf8CAQAwHQYDVR0lBBYwFAYIKwYBBQUHAwIGCCsGAQUFBwMBMA4GA1Ud
DwEB/wQEAwIBBjAdBgNVHQ4EFgQUx4YHKRVqJIhed0a0LMfo8DjgamwwDQYJKoZI
hvcNAQELBQADggEBAAbbFSA0QFr/UQjdWbSRXn3ZkTKj7ykpNIk7WLE0RE411WW7
W4IIMJdrNsSo7OgcFOhbxJc83wjmzdVeAKu6EkUWD4BHyQbfEpbWaec0pAIephB2
fqq6/qL2FIrOJ6e1wgWG5jfXXdbuhdQwLlRqIAB8SWYSNeFhsBJK4RE1OqMeo6NC
w5bd87eIbeeYO3jytFNAi2gSBHXN6QIXKxazX8VzfQQ9omUP/Pw6vH1r6C98pZmA
GFokA8yVvKVJ2do3Nqj8mWdvPySiCYRiWiOBkNDoX2GfPMHXNDSh+aDtkiK9EG8x
GToRhq0B89TLSdrfApX2bekMopNmaSYjFFkrju4=
-----END CERTIFICATE-----
