Certificate:
    Data:
        Version: 3 (0x2)
        Serial Number:
            8f:65:a4:ed:8c:bf:b4:97:6c:c9:b2:75:1c:bd:99:5d
        Signature Algorithm: sha256WithRSAEncryption
        Issuer: CN=IotSchool Root CA
        Validity
            Not Before: Apr 13 08:14:51 2023 GMT
            Not After : Apr 10 08:14:51 2033 GMT
        Subject: CN=IotSchool Sub CA
        Subject Public Key Info:
            Public Key Algorithm: rsaEncryption
                Public-Key: (2048 bit)
                Modulus:
                    00:b7:1e:9b:b7:a4:1e:01:72:8e:0e:a7:4f:01:a9:
                    8b:90:4e:b0:89:fb:97:b4:d9:d0:f4:9e:95:94:68:
                    90:25:e3:67:16:85:98:ff:69:75:bc:9b:0c:1d:00:
                    35:86:35:a3:5f:40:94:59:86:98:04:36:cc:5e:cc:
                    81:92:8e:4d:98:f1:64:ed:3c:37:72:a3:e0:f6:e2:
                    01:ba:cd:03:b1:f5:d0:a9:d2:38:14:98:e5:8f:7d:
                    15:93:09:bb:09:84:ff:51:92:50:3c:00:1d:f8:57:
                    90:aa:0d:2b:f8:2d:8d:d8:3c:c1:d0:dd:e6:0f:15:
                    3e:41:a2:f3:04:0d:96:3c:4e:ca:49:01:6f:28:d6:
                    d8:6c:d1:20:ff:46:e3:39:1c:7d:15:22:3e:67:f1:
                    64:6d:b4:ab:08:16:82:d3:70:37:31:21:ee:67:1e:
                    7d:7c:3a:c9:cc:f1:7c:33:91:a2:be:44:a8:58:b2:
                    c4:17:60:65:85:27:d4:9d:ee:27:ef:cc:69:93:58:
                    52:16:e7:a1:0d:3b:ff:1f:84:04:e4:23:ac:78:d1:
                    3e:7f:f4:9e:5c:44:7c:02:cf:80:97:d6:f9:b5:88:
                    52:cd:c4:aa:d0:1f:1c:08:07:b4:8e:9a:76:39:f2:
                    d4:ac:e1:83:7e:71:28:71:e9:aa:73:e2:ac:af:16:
                    00:3d
                Exponent: 65537 (0x10001)
        X509v3 extensions:
            X509v3 Authority Key Identifier: 
                9C:C6:5F:2E:18:33:EE:D4:16:2C:1F:E3:71:F8:98:EA:D5:22:19:EC
            X509v3 Basic Constraints: critical
                CA:TRUE, pathlen:0
            X509v3 Extended Key Usage: 
                TLS Web Client Authentication, TLS Web Server Authentication
            X509v3 Key Usage: critical
                Certificate Sign, CRL Sign
            X509v3 Subject Key Identifier: 
                AB:85:28:35:34:D6:5E:C2:4F:CA:C7:5C:14:F4:A6:70:33:43:47:06
    Signature Algorithm: sha256WithRSAEncryption
    Signature Value:
        9d:3b:e6:df:6c:33:c2:66:f8:64:65:fa:74:f4:d6:e4:ad:ce:
        4c:f8:02:59:3d:2f:8b:65:87:cb:e2:44:6c:89:56:c1:65:e2:
        5d:26:4f:92:80:ea:ae:f0:6e:21:a0:00:67:e5:1d:9c:9f:e3:
        3d:0b:08:9e:91:72:75:b8:bd:99:a7:48:e8:63:4a:2f:46:43:
        b0:44:5d:c8:14:e5:15:b6:cd:8e:60:42:dd:97:5d:fe:94:f0:
        15:91:e4:2c:32:47:ef:b3:e0:2f:9a:a2:34:18:59:83:34:25:
        f3:91:2b:64:7c:c4:ee:08:a5:12:f1:f8:68:31:15:87:35:66:
        e8:bd:c5:e6:5e:bc:6a:dc:82:d3:56:d0:48:43:e4:10:b7:6e:
        db:f3:30:d8:7f:6b:ae:bb:e7:9e:ff:44:50:f3:0d:37:8d:e4:
        a3:3f:69:db:22:e0:db:df:a3:55:fd:6b:19:8e:2b:14:8b:a2:
        45:8f:9f:aa:28:35:9d:01:d8:6f:8c:0d:56:15:c1:94:b6:f6:
        6c:44:d2:d4:da:30:d6:bb:bd:9b:de:d4:97:ba:24:be:79:c7:
        74:2f:6e:22:89:1a:39:1e:13:da:6a:92:06:89:5f:f6:b1:43:
        07:4e:c7:68:0f:f0:4d:19:a9:12:0a:b3:82:fd:cb:17:ed:b3:
        72:98:00:44
-----BEGIN CERTIFICATE-----
MIIDSTCCAjGgAwIBAgIRAI9lpO2Mv7SXbMmydRy9mV0wDQYJKoZIhvcNAQELBQAw
HDEaMBgGA1UEAwwRSW90U2Nob29sIFJvb3QgQ0EwHhcNMjMwNDEzMDgxNDUxWhcN
MzMwNDEwMDgxNDUxWjAbMRkwFwYDVQQDDBBJb3RTY2hvb2wgU3ViIENBMIIBIjAN
BgkqhkiG9w0BAQEFAAOCAQ8AMIIBCgKCAQEAtx6bt6QeAXKODqdPAamLkE6wifuX
tNnQ9J6VlGiQJeNnFoWY/2l1vJsMHQA1hjWjX0CUWYaYBDbMXsyBko5NmPFk7Tw3
cqPg9uIBus0DsfXQqdI4FJjlj30Vkwm7CYT/UZJQPAAd+FeQqg0r+C2N2DzB0N3m
DxU+QaLzBA2WPE7KSQFvKNbYbNEg/0bjORx9FSI+Z/FkbbSrCBaC03A3MSHuZx59
fDrJzPF8M5GivkSoWLLEF2BlhSfUne4n78xpk1hSFuehDTv/H4QE5COseNE+f/Se
XER8As+Al9b5tYhSzcSq0B8cCAe0jpp2OfLUrOGDfnEocemqc+KsrxYAPQIDAQAB
o4GGMIGDMB8GA1UdIwQYMBaAFJzGXy4YM+7UFiwf43H4mOrVIhnsMBIGA1UdEwEB
/wQIMAYBAf8CAQAwHQYDVR0lBBYwFAYIKwYBBQUHAwIGCCsGAQUFBwMBMA4GA1Ud
DwEB/wQEAwIBBjAdBgNVHQ4EFgQUq4UoNTTWXsJPysdcFPSmcDNDRwYwDQYJKoZI
hvcNAQELBQADggEBAJ075t9sM8Jm+GRl+nT01uStzkz4Alk9L4tlh8viRGyJVsFl
4l0mT5KA6q7wbiGgAGflHZyf4z0LCJ6RcnW4vZmnSOhjSi9GQ7BEXcgU5RW2zY5g
Qt2XXf6U8BWR5CwyR++z4C+aojQYWYM0JfORK2R8xO4IpRLx+GgxFYc1Zui9xeZe
vGrcgtNW0EhD5BC3btvzMNh/a667557/RFDzDTeN5KM/adsi4Nvfo1X9axmOKxSL
okWPn6ooNZ0B2G+MDVYVwZS29mxE0tTaMNa7vZve1Je6JL55x3QvbiKJGjkeE9pq
kgaJX/axQwdOx2gP8E0ZqRIKs4L9yxfts3KYAEQ=
-----END CERTIFICATE-----
