Certificate:
    Data:
        Version: 3 (0x2)
        Serial Number:
            9c:d4:1e:55:b9:a8:07:30:f9:cf:fd:aa:7d:fd:5c:32
        Signature Algorithm: sha256WithRSAEncryption
        Issuer: CN=IotSchool Root CA
        Validity
            Not Before: Aug 31 18:57:44 2021 GMT
            Not After : Aug 29 18:57:44 2031 GMT
        Subject: CN=IotSchool Root CA
        Subject Public Key Info:
            Public Key Algorithm: rsaEncryption
                RSA Public-Key: (2048 bit)
                Modulus:
                    00:ba:ec:6f:95:d6:ad:3e:c5:59:09:fc:c7:a5:fa:
                    20:37:ad:6b:a4:4d:7d:c8:5c:cf:79:28:cc:83:7c:
                    0f:c9:bc:11:0c:ee:e8:bc:e4:4a:7e:05:ed:c1:11:
                    52:51:fd:e8:01:e3:54:f5:43:ea:e3:58:e3:12:2b:
                    d7:ed:db:ba:a4:da:01:54:c7:cf:42:52:ed:c0:9d:
                    60:d5:f0:8b:f9:52:58:f6:e1:30:3a:97:f7:62:b6:
                    0d:9c:53:82:cd:c5:0e:33:2d:8b:82:51:35:bb:ad:
                    bc:f5:05:79:16:9c:5c:2d:d8:42:6c:6f:62:6c:90:
                    7c:99:d7:20:45:7f:00:b7:18:ac:84:4c:58:84:43:
                    3b:89:1d:fb:1e:fc:54:c1:43:bb:b9:4d:10:5f:24:
                    55:87:85:43:bf:a9:12:ab:e3:07:f6:d5:dd:9e:ec:
                    ea:79:e1:4d:f3:67:ce:fc:62:c7:11:9c:74:a2:1d:
                    12:72:8c:6a:f4:02:0b:a8:c5:cd:2a:e3:d3:1b:f2:
                    c5:c4:8c:65:e8:71:6a:81:c4:03:a3:f8:de:a8:f4:
                    5c:87:fe:bc:98:60:c6:8b:1f:0e:52:af:6f:b1:be:
                    3e:64:cb:0a:b2:df:41:9f:ed:d6:8c:d4:75:bd:a4:
                    36:bd:6f:48:10:e1:50:f4:04:44:29:e4:76:77:63:
                    29:39
                Exponent: 65537 (0x10001)
        X509v3 extensions:
            X509v3 Basic Constraints: critical
                CA:TRUE
            X509v3 Key Usage: critical
                Certificate Sign, CRL Sign
            X509v3 Subject Key Identifier: 
                9C:C6:5F:2E:18:33:EE:D4:16:2C:1F:E3:71:F8:98:EA:D5:22:19:EC
    Signature Algorithm: sha256WithRSAEncryption
         4d:6d:6f:78:a5:74:5a:be:95:62:db:d2:51:e9:a9:45:45:19:
         1c:cb:15:01:0f:a9:6b:ed:66:c5:91:49:50:d6:be:1b:82:80:
         a9:09:8c:42:06:19:69:af:7e:a0:35:2a:d0:69:8a:0d:99:02:
         77:60:4e:0a:98:5d:62:c7:22:c0:8a:48:d3:b3:b4:0f:53:6b:
         a7:7e:a2:f5:c3:26:bf:bf:f8:ca:b6:9c:f3:15:5d:60:18:51:
         9a:08:35:b0:32:8f:b3:92:1d:a9:94:e9:72:ce:23:70:5d:85:
         6f:f3:70:08:12:7e:30:f7:e0:13:75:ba:98:75:18:ec:09:1f:
         36:54:cd:a7:55:a4:c2:88:50:b6:8f:4c:bc:1f:1c:dc:7c:ea:
         6a:df:11:14:eb:02:fa:e6:56:11:18:65:b1:19:02:c5:91:6f:
         92:22:64:be:ef:04:69:a9:66:59:26:b6:db:64:24:18:6f:e6:
         ff:0b:a9:8d:33:0c:c4:02:80:9b:ac:47:83:fa:22:84:65:74:
         dd:13:55:21:7b:2c:d2:d1:8d:6f:93:10:8c:bb:b9:0f:dd:f5:
         28:66:4f:5b:ad:7e:d3:78:56:9f:c4:12:37:10:13:80:08:5e:
         21:f1:45:91:42:b6:41:fa:9c:dd:84:f8:dd:8e:e1:c7:2d:02:
         12:7b:82:a1
-----BEGIN CERTIFICATE-----
MIIDBTCCAe2gAwIBAgIRAJzUHlW5qAcw+c/9qn39XDIwDQYJKoZIhvcNAQELBQAw
HDEaMBgGA1UEAwwRSW90U2Nob29sIFJvb3QgQ0EwHhcNMjEwODMxMTg1NzQ0WhcN
MzEwODI5MTg1NzQ0WjAcMRowGAYDVQQDDBFJb3RTY2hvb2wgUm9vdCBDQTCCASIw
DQYJKoZIhvcNAQEBBQADggEPADCCAQoCggEBALrsb5XWrT7FWQn8x6X6IDeta6RN
fchcz3kozIN8D8m8EQzu6LzkSn4F7cERUlH96AHjVPVD6uNY4xIr1+3buqTaAVTH
z0JS7cCdYNXwi/lSWPbhMDqX92K2DZxTgs3FDjMti4JRNbutvPUFeRacXC3YQmxv
YmyQfJnXIEV/ALcYrIRMWIRDO4kd+x78VMFDu7lNEF8kVYeFQ7+pEqvjB/bV3Z7s
6nnhTfNnzvxixxGcdKIdEnKMavQCC6jFzSrj0xvyxcSMZehxaoHEA6P43qj0XIf+
vJhgxosfDlKvb7G+PmTLCrLfQZ/t1ozUdb2kNr1vSBDhUPQERCnkdndjKTkCAwEA
AaNCMEAwDwYDVR0TAQH/BAUwAwEB/zAOBgNVHQ8BAf8EBAMCAQYwHQYDVR0OBBYE
FJzGXy4YM+7UFiwf43H4mOrVIhnsMA0GCSqGSIb3DQEBCwUAA4IBAQBNbW94pXRa
vpVi29JR6alFRRkcyxUBD6lr7WbFkUlQ1r4bgoCpCYxCBhlpr36gNSrQaYoNmQJ3
YE4KmF1ixyLAikjTs7QPU2unfqL1wya/v/jKtpzzFV1gGFGaCDWwMo+zkh2plOly
ziNwXYVv83AIEn4w9+ATdbqYdRjsCR82VM2nVaTCiFC2j0y8HxzcfOpq3xEU6wL6
5lYRGGWxGQLFkW+SImS+7wRpqWZZJrbbZCQYb+b/C6mNMwzEAoCbrEeD+iKEZXTd
E1UheyzS0Y1vkxCMu7kP3fUoZk9brX7TeFafxBI3EBOACF4h8UWRQrZB+pzdhPjd
juHHLQISe4Kh
-----END CERTIFICATE-----
