Certificate:
    Data:
        Version: 3 (0x2)
        Serial Number:
            9e:c9:38:77:20:e2:9f:49:e4:1e:67:fd:5b:7e:2a:ed
        Signature Algorithm: sha256WithRSAEncryption
        Issuer: CN=IotSchool Root CA
        Validity
            Not Before: Sep  6 08:04:26 2021 GMT
            Not After : Sep  4 08:04:26 2031 GMT
        Subject: CN=IotSchool Sub CA
        Subject Public Key Info:
            Public Key Algorithm: rsaEncryption
                RSA Public-Key: (2048 bit)
                Modulus:
                    00:be:cf:9c:39:5c:78:93:59:03:0e:79:ac:3c:84:
                    9b:53:ed:0c:50:31:f5:81:d6:88:a6:88:e4:a1:a3:
                    10:45:0a:7b:03:67:61:e9:87:3a:2a:04:b6:22:f4:
                    76:b4:9b:b0:87:f3:6d:ef:4b:46:88:d0:2a:7f:fc:
                    c2:ac:ae:5f:7f:69:de:dd:41:c6:df:b8:59:97:dd:
                    da:80:6d:d9:01:97:dc:f9:fe:0e:09:06:79:e9:51:
                    b1:df:c7:e9:6f:27:2d:ae:c4:41:96:30:7c:7d:cc:
                    04:47:25:56:77:18:4c:a6:31:af:11:ca:8b:8b:c6:
                    2b:1d:2b:b6:82:44:0c:35:03:19:ae:8b:5b:69:66:
                    26:c2:9d:c7:b2:5c:91:f4:01:55:fd:f0:f3:a8:01:
                    56:fa:83:de:d9:49:1a:cb:7a:68:36:c5:fe:e9:36:
                    db:1b:46:f9:88:cd:49:c9:02:20:c1:8e:0f:92:98:
                    d5:29:68:8c:2b:a0:f5:d5:3c:b0:71:78:b6:1d:3d:
                    16:e6:46:b6:ae:59:d3:0f:b0:2b:ef:e9:a6:13:5f:
                    06:2c:bc:17:3c:4c:9d:b0:4e:1e:ad:ee:18:00:63:
                    90:7a:79:91:af:d1:c6:44:ab:3f:d6:a1:64:6e:8e:
                    be:d9:25:73:46:90:5e:b4:fc:5d:0c:bb:fc:99:5c:
                    db:f7
                Exponent: 65537 (0x10001)
        X509v3 extensions:
            X509v3 Authority Key Identifier: 
                keyid:9C:C6:5F:2E:18:33:EE:D4:16:2C:1F:E3:71:F8:98:EA:D5:22:19:EC

            X509v3 Basic Constraints: critical
                CA:TRUE, pathlen:0
            X509v3 Extended Key Usage: 
                TLS Web Client Authentication, TLS Web Server Authentication
            X509v3 Key Usage: critical
                Certificate Sign, CRL Sign
            X509v3 Subject Key Identifier: 
                91:94:15:22:06:DD:74:20:E2:DA:8D:03:7D:BE:4F:29:54:B9:E6:CF
    Signature Algorithm: sha256WithRSAEncryption
         86:9b:9b:90:47:b0:46:c0:22:29:54:83:d1:86:75:4d:31:45:
         42:c7:5b:55:da:c7:aa:01:22:dd:b3:21:c5:68:8d:b8:55:65:
         4d:67:62:5a:ac:6e:ed:11:b6:16:20:c0:c0:e8:fa:5a:bf:f5:
         7b:90:67:b6:e3:4f:37:90:21:3b:54:dc:14:46:d8:0b:66:16:
         cd:1f:39:19:a8:55:28:05:01:45:bb:10:12:ee:79:00:e9:89:
         b0:9e:29:8f:65:de:a0:ca:a8:72:f3:0d:8e:3f:87:63:6f:fa:
         d5:3c:81:8e:c9:de:41:7d:d0:58:01:58:f9:68:09:bd:ec:f0:
         1c:07:41:8a:eb:19:f7:6a:12:cf:c8:4f:83:96:4e:f2:74:06:
         f4:96:93:34:d3:9d:50:99:4a:cf:d5:74:d5:53:57:e1:2d:d4:
         3d:ff:e6:ba:96:6e:bf:79:d2:cf:3f:43:11:19:51:99:d3:9a:
         79:8f:2d:39:14:05:04:dd:34:85:c6:96:77:cf:a6:12:de:04:
         73:14:df:3d:1c:bb:e6:3f:56:63:8f:05:32:b0:bd:b9:ce:42:
         54:f9:5b:5f:58:fb:23:82:f4:98:1f:a2:47:3f:c6:41:a3:38:
         5e:0a:cf:1b:fa:b7:79:7d:f6:fd:fc:5f:21:f4:d3:85:56:2f:
         93:d5:31:d1
-----BEGIN CERTIFICATE-----
MIIDSTCCAjGgAwIBAgIRAJ7JOHcg4p9J5B5n/Vt+Ku0wDQYJKoZIhvcNAQELBQAw
HDEaMBgGA1UEAwwRSW90U2Nob29sIFJvb3QgQ0EwHhcNMjEwOTA2MDgwNDI2WhcN
MzEwOTA0MDgwNDI2WjAbMRkwFwYDVQQDDBBJb3RTY2hvb2wgU3ViIENBMIIBIjAN
BgkqhkiG9w0BAQEFAAOCAQ8AMIIBCgKCAQEAvs+cOVx4k1kDDnmsPISbU+0MUDH1
gdaIpojkoaMQRQp7A2dh6Yc6KgS2IvR2tJuwh/Nt70tGiNAqf/zCrK5ff2ne3UHG
37hZl93agG3ZAZfc+f4OCQZ56VGx38fpbyctrsRBljB8fcwERyVWdxhMpjGvEcqL
i8YrHSu2gkQMNQMZrotbaWYmwp3HslyR9AFV/fDzqAFW+oPe2Ukay3poNsX+6Tbb
G0b5iM1JyQIgwY4PkpjVKWiMK6D11TywcXi2HT0W5ka2rlnTD7Ar7+mmE18GLLwX
PEydsE4ere4YAGOQenmRr9HGRKs/1qFkbo6+2SVzRpBetPxdDLv8mVzb9wIDAQAB
o4GGMIGDMB8GA1UdIwQYMBaAFJzGXy4YM+7UFiwf43H4mOrVIhnsMBIGA1UdEwEB
/wQIMAYBAf8CAQAwHQYDVR0lBBYwFAYIKwYBBQUHAwIGCCsGAQUFBwMBMA4GA1Ud
DwEB/wQEAwIBBjAdBgNVHQ4EFgQUkZQVIgbddCDi2o0Dfb5PKVS55s8wDQYJKoZI
hvcNAQELBQADggEBAIabm5BHsEbAIilUg9GGdU0xRULHW1Xax6oBIt2zIcVojbhV
ZU1nYlqsbu0RthYgwMDo+lq/9XuQZ7bjTzeQITtU3BRG2AtmFs0fORmoVSgFAUW7
EBLueQDpibCeKY9l3qDKqHLzDY4/h2Nv+tU8gY7J3kF90FgBWPloCb3s8BwHQYrr
GfdqEs/IT4OWTvJ0BvSWkzTTnVCZSs/VdNVTV+Et1D3/5rqWbr950s8/QxEZUZnT
mnmPLTkUBQTdNIXGlnfPphLeBHMU3z0cu+Y/VmOPBTKwvbnOQlT5W19Y+yOC9Jgf
okc/xkGjOF4Kzxv6t3l99v38XyH004VWL5PVMdE=
-----END CERTIFICATE-----
