Certificate:
    Data:
        Version: 3 (0x2)
        Serial Number:
            aa:65:e5:ba:8b:dd:de:71:f2:da:f6:84:23:39:b7:17
        Signature Algorithm: sha256WithRSAEncryption
        Issuer: CN=IotSchool Root CA
        Validity
            Not Before: Apr 25 16:49:38 2023 GMT
            Not After : Apr 22 16:49:38 2033 GMT
        Subject: CN=IotSchool Sub CA
        Subject Public Key Info:
            Public Key Algorithm: rsaEncryption
                Public-Key: (2048 bit)
                Modulus:
                    00:ad:25:37:7b:e9:4e:12:f5:10:a9:30:2b:91:08:
                    4b:37:a5:cb:93:c0:12:38:56:46:b9:6d:a9:4a:fa:
                    c0:19:fb:b4:cf:4a:6b:01:fb:28:84:dc:92:01:bb:
                    58:97:98:18:c1:b5:53:ba:ca:3f:52:ac:06:4b:f0:
                    ae:89:8a:bb:eb:37:db:78:36:69:24:70:af:f7:9e:
                    ba:b8:17:e3:ac:4c:70:25:c9:9e:45:7c:f8:a7:12:
                    53:02:91:af:0e:eb:2d:50:2a:6f:5b:d1:13:b1:22:
                    92:6d:70:e4:69:9f:13:87:bb:9d:82:15:a2:36:3c:
                    b5:10:d3:71:cc:5d:6f:d4:75:98:d0:77:b4:94:8c:
                    02:7d:0a:10:40:97:7f:47:15:bb:00:ae:d1:ed:47:
                    7b:70:32:3f:03:63:ba:66:d7:1a:20:a2:09:ba:49:
                    f8:ea:82:78:cb:52:cd:af:e8:1f:e9:8a:35:97:61:
                    cf:b3:f3:15:ea:8f:d8:77:d3:67:35:8a:d6:83:c5:
                    a1:2a:e9:08:38:d2:68:07:73:ab:99:f5:ac:2e:52:
                    b6:9d:ac:75:0d:28:b0:f7:bf:1d:1f:68:b3:61:cb:
                    ed:b8:d5:ce:7c:7d:c6:86:57:82:f0:be:0b:20:9e:
                    15:51:3a:93:a2:c9:86:30:35:52:9e:2e:73:0e:29:
                    cd:eb
                Exponent: 65537 (0x10001)
        X509v3 extensions:
            X509v3 Authority Key Identifier: 
                9C:C6:5F:2E:18:33:EE:D4:16:2C:1F:E3:71:F8:98:EA:D5:22:19:EC
            X509v3 Basic Constraints: critical
                CA:TRUE, pathlen:0
            X509v3 Extended Key Usage: 
                TLS Web Client Authentication, TLS Web Server Authentication
            X509v3 Key Usage: critical
                Certificate Sign, CRL Sign
            X509v3 Subject Key Identifier: 
                F3:3C:97:FE:C9:BD:A9:FB:66:DC:45:4E:D6:6D:CB:E5:89:F3:D3:B5
    Signature Algorithm: sha256WithRSAEncryption
    Signature Value:
        91:59:b1:51:56:01:8f:1b:a6:f9:6d:e2:b5:0f:8f:d2:1e:1f:
        06:51:12:87:af:a1:3a:48:30:9d:0d:3b:fd:b7:2a:7c:49:ae:
        5f:5a:ff:1a:86:f3:4d:43:bb:3c:23:39:98:a3:e9:ef:2f:02:
        9f:1c:cf:56:fe:2c:55:83:c0:bd:37:8f:e2:89:9f:b9:62:cf:
        e2:3f:c0:9e:b6:23:c9:a5:ec:6b:51:50:01:99:cd:0a:b3:1f:
        d0:77:4c:01:cb:4e:df:f4:98:3c:46:e5:3d:54:4b:b5:ec:9b:
        8b:62:cf:f4:36:12:b4:fd:a4:dd:52:a5:b9:7a:a3:48:e9:1f:
        ec:4e:97:36:dc:64:d1:3c:2a:8d:5e:49:76:ae:a8:db:e1:b9:
        67:61:92:31:af:b2:73:57:62:4d:4e:46:f1:b1:10:e6:41:ae:
        40:e0:1c:f9:c8:87:a4:c8:5c:13:1c:5f:21:84:0f:a7:74:bf:
        fb:31:9b:1a:73:91:09:47:a6:e5:12:ad:e4:bb:56:31:dc:9e:
        fc:0e:ad:26:c9:58:ea:15:ce:f9:8a:d7:99:68:d6:b4:58:10:
        12:29:4f:27:1b:43:4b:83:4a:f7:f1:97:3b:75:c2:ab:bf:b8:
        b2:a1:a8:8c:0e:d2:cb:90:e0:6a:ad:68:00:25:91:e7:09:9c:
        81:8b:7b:d0
-----BEGIN CERTIFICATE-----
MIIDSTCCAjGgAwIBAgIRAKpl5bqL3d5x8tr2hCM5txcwDQYJKoZIhvcNAQELBQAw
HDEaMBgGA1UEAwwRSW90U2Nob29sIFJvb3QgQ0EwHhcNMjMwNDI1MTY0OTM4WhcN
MzMwNDIyMTY0OTM4WjAbMRkwFwYDVQQDDBBJb3RTY2hvb2wgU3ViIENBMIIBIjAN
BgkqhkiG9w0BAQEFAAOCAQ8AMIIBCgKCAQEArSU3e+lOEvUQqTArkQhLN6XLk8AS
OFZGuW2pSvrAGfu0z0prAfsohNySAbtYl5gYwbVTuso/UqwGS/CuiYq76zfbeDZp
JHCv9566uBfjrExwJcmeRXz4pxJTApGvDustUCpvW9ETsSKSbXDkaZ8Th7udghWi
Njy1ENNxzF1v1HWY0He0lIwCfQoQQJd/RxW7AK7R7Ud7cDI/A2O6ZtcaIKIJukn4
6oJ4y1LNr+gf6Yo1l2HPs/MV6o/Yd9NnNYrWg8WhKukIONJoB3OrmfWsLlK2nax1
DSiw978dH2izYcvtuNXOfH3GhleC8L4LIJ4VUTqTosmGMDVSni5zDinN6wIDAQAB
o4GGMIGDMB8GA1UdIwQYMBaAFJzGXy4YM+7UFiwf43H4mOrVIhnsMBIGA1UdEwEB
/wQIMAYBAf8CAQAwHQYDVR0lBBYwFAYIKwYBBQUHAwIGCCsGAQUFBwMBMA4GA1Ud
DwEB/wQEAwIBBjAdBgNVHQ4EFgQU8zyX/sm9qftm3EVO1m3L5Ynz07UwDQYJKoZI
hvcNAQELBQADggEBAJFZsVFWAY8bpvlt4rUPj9IeHwZREoevoTpIMJ0NO/23KnxJ
rl9a/xqG801DuzwjOZij6e8vAp8cz1b+LFWDwL03j+KJn7liz+I/wJ62I8ml7GtR
UAGZzQqzH9B3TAHLTt/0mDxG5T1US7Xsm4tiz/Q2ErT9pN1Spbl6o0jpH+xOlzbc
ZNE8Ko1eSXauqNvhuWdhkjGvsnNXYk1ORvGxEOZBrkDgHPnIh6TIXBMcXyGED6d0
v/sxmxpzkQlHpuUSreS7VjHcnvwOrSbJWOoVzvmK15lo1rRYEBIpTycbQ0uDSvfx
lzt1wqu/uLKhqIwO0suQ4GqtaAAlkecJnIGLe9A=
-----END CERTIFICATE-----
