Certificate:
    Data:
        Version: 3 (0x2)
        Serial Number:
            b4:05:cf:20:6c:2d:ae:8c:4e:89:58:57:78:2a:6c:48
        Signature Algorithm: sha256WithRSAEncryption
        Issuer: CN=IotSchool Root CA
        Validity
            Not Before: Apr 25 14:25:35 2023 GMT
            Not After : Apr 22 14:25:35 2033 GMT
        Subject: CN=IotSchool Sub CA
        Subject Public Key Info:
            Public Key Algorithm: rsaEncryption
                Public-Key: (2048 bit)
                Modulus:
                    00:9b:bf:fe:82:af:e9:c0:3d:ec:ed:64:8c:b0:dc:
                    d2:2c:ac:11:29:27:2b:b5:65:90:07:02:1d:11:28:
                    62:19:76:33:7c:fd:dc:e1:9b:13:40:a1:57:82:d8:
                    a7:58:6f:dd:dc:69:1a:ca:77:b8:13:c7:0b:71:24:
                    f2:0d:9e:da:dc:ab:74:16:1b:4f:a4:d9:6a:98:1a:
                    2f:de:09:2e:6b:a9:d9:df:32:9e:af:b8:40:6e:98:
                    e0:b2:e9:a1:9c:6b:60:03:38:3b:54:ac:89:04:8d:
                    2b:e5:25:11:cc:83:61:72:30:71:b0:df:a7:bc:c9:
                    e5:ef:84:7b:a5:71:fd:5b:6e:1a:66:48:b6:2c:9d:
                    c1:a2:34:73:f9:d0:c2:96:cd:63:29:d0:cd:4f:18:
                    fa:f0:18:3b:de:ed:c3:8c:f3:39:74:e3:6b:9e:50:
                    88:91:d7:0b:9b:73:cf:17:86:90:c0:5a:1b:eb:b8:
                    fc:3f:8a:33:58:93:05:b7:52:69:97:b7:1d:85:35:
                    bf:b7:b4:7a:f2:9d:0c:1b:8e:9f:7d:bf:da:92:a3:
                    46:94:d1:96:cc:f6:4f:57:f5:1e:d3:8d:21:f8:ac:
                    13:4e:bb:5e:5a:1d:4e:6b:32:bb:66:4e:66:f5:80:
                    15:17:2f:d5:91:00:bf:b4:61:a4:50:ec:1d:63:52:
                    85:9d
                Exponent: 65537 (0x10001)
        X509v3 extensions:
            X509v3 Authority Key Identifier: 
                9C:C6:5F:2E:18:33:EE:D4:16:2C:1F:E3:71:F8:98:EA:D5:22:19:EC
            X509v3 Basic Constraints: critical
                CA:TRUE, pathlen:0
            X509v3 Extended Key Usage: 
                TLS Web Client Authentication, TLS Web Server Authentication
            X509v3 Key Usage: critical
                Certificate Sign, CRL Sign
            X509v3 Subject Key Identifier: 
                5E:FD:8A:43:A8:F2:EC:C2:18:93:A2:05:6F:39:04:33:34:BB:AA:58
    Signature Algorithm: sha256WithRSAEncryption
    Signature Value:
        ba:b8:11:f9:2e:4e:5b:e3:20:54:d9:cf:80:e0:0a:a4:38:a5:
        41:2d:c3:ac:26:95:59:1e:ed:07:d6:22:d5:17:d5:0e:d4:1b:
        f7:1c:cd:d8:23:c8:06:29:4c:ec:d8:24:0e:7e:d8:bf:1a:d5:
        cf:38:d1:a6:a0:8c:a1:77:94:91:86:a1:9c:83:e4:1e:dd:c6:
        cb:69:c6:e2:24:2b:8a:27:bc:b0:35:8c:93:62:44:5d:2c:95:
        6c:7c:c3:d0:a6:50:28:2c:a2:34:f4:9c:b5:35:c5:f6:0a:2d:
        c0:14:59:36:40:2f:6f:83:ef:6c:fc:1d:4e:d9:50:80:f1:25:
        af:3b:a2:c3:f8:cb:5b:e2:f8:61:c8:a2:09:51:bb:df:77:78:
        21:16:dc:b6:32:f2:17:6d:e3:9c:ea:21:1a:15:bb:72:3f:ec:
        97:ca:47:7f:9b:db:a6:e9:44:08:3f:09:05:15:69:1c:5d:7d:
        42:35:d4:21:18:e7:08:7e:a4:e1:dc:7b:22:fd:36:08:db:a9:
        da:0c:3d:62:4d:10:23:d6:a6:ed:1f:e3:06:53:bb:55:ab:38:
        6d:56:4f:2f:14:6f:ab:7d:4e:3e:92:52:bf:2b:f3:a9:10:a9:
        57:30:38:6f:7d:07:e5:5b:eb:d4:e7:57:ce:47:b0:1a:0e:02:
        6c:49:4e:21
-----BEGIN CERTIFICATE-----
MIIDSTCCAjGgAwIBAgIRALQFzyBsLa6MTolYV3gqbEgwDQYJKoZIhvcNAQELBQAw
HDEaMBgGA1UEAwwRSW90U2Nob29sIFJvb3QgQ0EwHhcNMjMwNDI1MTQyNTM1WhcN
MzMwNDIyMTQyNTM1WjAbMRkwFwYDVQQDDBBJb3RTY2hvb2wgU3ViIENBMIIBIjAN
BgkqhkiG9w0BAQEFAAOCAQ8AMIIBCgKCAQEAm7/+gq/pwD3s7WSMsNzSLKwRKScr
tWWQBwIdEShiGXYzfP3c4ZsTQKFXgtinWG/d3Gkayne4E8cLcSTyDZ7a3Kt0FhtP
pNlqmBov3gkua6nZ3zKer7hAbpjgsumhnGtgAzg7VKyJBI0r5SURzINhcjBxsN+n
vMnl74R7pXH9W24aZki2LJ3BojRz+dDCls1jKdDNTxj68Bg73u3DjPM5dONrnlCI
kdcLm3PPF4aQwFob67j8P4ozWJMFt1Jpl7cdhTW/t7R68p0MG46ffb/akqNGlNGW
zPZPV/Ue040h+KwTTrteWh1OazK7Zk5m9YAVFy/VkQC/tGGkUOwdY1KFnQIDAQAB
o4GGMIGDMB8GA1UdIwQYMBaAFJzGXy4YM+7UFiwf43H4mOrVIhnsMBIGA1UdEwEB
/wQIMAYBAf8CAQAwHQYDVR0lBBYwFAYIKwYBBQUHAwIGCCsGAQUFBwMBMA4GA1Ud
DwEB/wQEAwIBBjAdBgNVHQ4EFgQUXv2KQ6jy7MIYk6IFbzkEMzS7qlgwDQYJKoZI
hvcNAQELBQADggEBALq4EfkuTlvjIFTZz4DgCqQ4pUEtw6wmlVke7QfWItUX1Q7U
G/cczdgjyAYpTOzYJA5+2L8a1c840aagjKF3lJGGoZyD5B7dxstpxuIkK4onvLA1
jJNiRF0slWx8w9CmUCgsojT0nLU1xfYKLcAUWTZAL2+D72z8HU7ZUIDxJa87osP4
y1vi+GHIoglRu993eCEW3LYy8hdt45zqIRoVu3I/7JfKR3+b26bpRAg/CQUVaRxd
fUI11CEY5wh+pOHceyL9NgjbqdoMPWJNECPWpu0f4wZTu1WrOG1WTy8Ub6t9Tj6S
Ur8r86kQqVcwOG99B+Vb69TnV85HsBoOAmxJTiE=
-----END CERTIFICATE-----
