Certificate:
    Data:
        Version: 3 (0x2)
        Serial Number:
            bb:2d:d0:db:33:0d:43:11:42:a5:3e:44:c7:e8:77:e9
        Signature Algorithm: sha256WithRSAEncryption
        Issuer: CN=IotSchool Root CA
        Validity
            Not Before: Sep  6 08:09:19 2021 GMT
            Not After : Sep  4 08:09:19 2031 GMT
        Subject: CN=IotSchool Sub CA
        Subject Public Key Info:
            Public Key Algorithm: rsaEncryption
                RSA Public-Key: (2048 bit)
                Modulus:
                    00:b8:cf:94:bf:fc:54:c7:c2:b9:34:47:38:a6:5e:
                    ab:fb:14:d3:1a:6e:df:c6:fb:d7:63:11:ac:5d:15:
                    15:3a:9e:68:d2:50:23:cb:68:d2:10:9b:86:8a:c4:
                    96:a5:75:41:60:3b:99:1b:f6:af:bb:d2:e5:cc:24:
                    58:b1:3c:48:5c:25:08:d2:5c:4c:6f:d0:b1:ec:70:
                    7b:3a:16:1e:08:bd:70:44:9b:93:a9:fa:96:98:5e:
                    08:cb:a3:3c:60:18:a3:6c:c3:5f:65:b9:fd:ba:66:
                    cd:de:19:b6:75:c1:f9:58:ab:4e:3d:5a:c3:c9:c3:
                    6c:f5:9d:7b:4e:2a:aa:68:cd:32:46:37:e2:29:b2:
                    01:2a:9a:7a:20:27:f3:f7:38:c8:ef:a1:a4:2b:cf:
                    2a:ab:7e:11:09:7c:40:6c:25:2f:cc:15:b9:3b:f4:
                    a5:2e:bf:5c:a2:2a:ca:5f:cb:09:5d:b8:c5:30:35:
                    61:da:09:7a:c8:50:04:43:a5:df:80:0e:c1:ac:95:
                    17:99:01:ad:e8:ba:2f:ad:45:59:42:0b:2c:f2:05:
                    ec:37:52:d0:93:72:23:1c:fc:b1:9c:e8:b1:bb:48:
                    67:ce:e5:4a:8b:58:54:29:fd:5c:b7:58:c5:ea:6a:
                    4c:24:98:e8:ea:e4:ed:2b:ae:9c:61:13:e9:d2:cb:
                    40:5b
                Exponent: 65537 (0x10001)
        X509v3 extensions:
            X509v3 Authority Key Identifier: 
                keyid:9C:C6:5F:2E:18:33:EE:D4:16:2C:1F:E3:71:F8:98:EA:D5:22:19:EC

            X509v3 Basic Constraints: critical
                CA:TRUE, pathlen:0
            X509v3 Extended Key Usage: 
                TLS Web Client Authentication, TLS Web Server Authentication
            X509v3 Key Usage: critical
                Certificate Sign, CRL Sign
            X509v3 Subject Key Identifier: 
                45:71:B8:D6:CB:31:F1:D2:2D:82:94:66:1C:C2:E9:F2:5D:33:24:C4
    Signature Algorithm: sha256WithRSAEncryption
         4f:ca:d1:c1:07:1b:aa:c4:5d:7e:ab:4b:6b:53:e5:2f:34:0f:
         24:71:f1:f6:6a:b2:d1:cd:3e:04:56:b7:c0:4b:c5:1c:b6:b3:
         14:fe:dd:fe:9b:75:db:ed:72:0b:51:e8:30:b4:b1:c0:cf:b0:
         c7:6c:e1:fb:30:dd:50:72:f0:29:02:1f:19:a6:34:1a:ea:80:
         b2:19:08:ad:d5:30:7b:f4:46:7d:f1:cc:0e:76:d1:0f:d0:23:
         69:27:7c:c3:39:59:b3:a4:71:cf:7f:4f:07:18:8c:6a:44:89:
         e1:7d:d6:d5:db:95:6c:be:67:f4:f7:ff:c8:ec:a7:1b:49:6f:
         c9:db:22:e7:3b:5b:cd:64:e4:c7:74:77:20:41:f9:2e:8d:67:
         3f:6e:74:13:6a:e7:49:91:a6:42:a4:8b:bb:45:f1:85:d4:51:
         73:4d:1f:91:fd:aa:6a:68:ec:8c:cb:3b:d3:a1:a4:e6:c2:e9:
         25:e8:f4:7f:1c:39:bc:af:7a:61:52:b0:84:4a:08:b3:27:3a:
         72:66:ca:cb:ee:89:27:6c:29:5e:4f:b6:db:43:b8:99:a9:fd:
         f0:36:a3:99:2c:89:30:65:2f:8b:6a:8a:8f:17:e5:ee:90:ae:
         b9:a9:1f:9a:07:8b:f2:72:33:36:32:10:aa:f7:fd:19:1a:c1:
         d7:85:ce:35
-----BEGIN CERTIFICATE-----
MIIDSTCCAjGgAwIBAgIRALst0NszDUMRQqU+RMfod+kwDQYJKoZIhvcNAQELBQAw
HDEaMBgGA1UEAwwRSW90U2Nob29sIFJvb3QgQ0EwHhcNMjEwOTA2MDgwOTE5WhcN
MzEwOTA0MDgwOTE5WjAbMRkwFwYDVQQDDBBJb3RTY2hvb2wgU3ViIENBMIIBIjAN
BgkqhkiG9w0BAQEFAAOCAQ8AMIIBCgKCAQEAuM+Uv/xUx8K5NEc4pl6r+xTTGm7f
xvvXYxGsXRUVOp5o0lAjy2jSEJuGisSWpXVBYDuZG/avu9LlzCRYsTxIXCUI0lxM
b9Cx7HB7OhYeCL1wRJuTqfqWmF4Iy6M8YBijbMNfZbn9umbN3hm2dcH5WKtOPVrD
ycNs9Z17TiqqaM0yRjfiKbIBKpp6ICfz9zjI76GkK88qq34RCXxAbCUvzBW5O/Sl
Lr9coirKX8sJXbjFMDVh2gl6yFAEQ6XfgA7BrJUXmQGt6LovrUVZQgss8gXsN1LQ
k3IjHPyxnOixu0hnzuVKi1hUKf1ct1jF6mpMJJjo6uTtK66cYRPp0stAWwIDAQAB
o4GGMIGDMB8GA1UdIwQYMBaAFJzGXy4YM+7UFiwf43H4mOrVIhnsMBIGA1UdEwEB
/wQIMAYBAf8CAQAwHQYDVR0lBBYwFAYIKwYBBQUHAwIGCCsGAQUFBwMBMA4GA1Ud
DwEB/wQEAwIBBjAdBgNVHQ4EFgQURXG41ssx8dItgpRmHMLp8l0zJMQwDQYJKoZI
hvcNAQELBQADggEBAE/K0cEHG6rEXX6rS2tT5S80DyRx8fZqstHNPgRWt8BLxRy2
sxT+3f6bddvtcgtR6DC0scDPsMds4fsw3VBy8CkCHxmmNBrqgLIZCK3VMHv0Rn3x
zA520Q/QI2knfMM5WbOkcc9/TwcYjGpEieF91tXblWy+Z/T3/8jspxtJb8nbIuc7
W81k5Md0dyBB+S6NZz9udBNq50mRpkKki7tF8YXUUXNNH5H9qmpo7IzLO9OhpObC
6SXo9H8cObyvemFSsIRKCLMnOnJmysvuiSdsKV5PtttDuJmp/fA2o5ksiTBlL4tq
io8X5e6QrrmpH5oHi/JyMzYyEKr3/RkawdeFzjU=
-----END CERTIFICATE-----
