Certificate:
    Data:
        Version: 3 (0x2)
        Serial Number:
            c0:b9:c7:54:c5:e9:af:f5:d1:3c:cf:84:2d:df:5d:20
        Signature Algorithm: sha256WithRSAEncryption
        Issuer: CN=IotSchool Root CA
        Validity
            Not Before: Sep  6 08:04:30 2021 GMT
            Not After : Sep  4 08:04:30 2031 GMT
        Subject: CN=IotSchool Sub CA
        Subject Public Key Info:
            Public Key Algorithm: rsaEncryption
                RSA Public-Key: (2048 bit)
                Modulus:
                    00:cb:27:d0:4e:6c:0a:d7:5b:90:3d:1e:8c:25:04:
                    14:6a:82:f7:e5:53:08:d7:8d:5c:c9:f9:4a:91:f0:
                    52:0f:1d:a9:76:55:23:60:28:86:d2:97:c7:20:da:
                    a4:1b:20:ac:ff:b9:74:6a:1f:45:96:16:11:84:bf:
                    40:30:0b:b0:ee:ea:c4:9d:87:61:57:d2:54:2b:1b:
                    6f:8e:af:71:20:32:ff:e1:cb:d0:aa:3f:73:4a:37:
                    07:b5:94:db:60:d1:ca:dd:1c:1b:78:aa:5c:f3:54:
                    20:ad:2e:e7:38:a8:2f:08:72:9f:87:02:70:da:4b:
                    54:2d:f7:72:e9:cb:05:3e:ef:ff:65:98:93:b9:6c:
                    d9:03:e8:7f:48:e5:b0:4b:f3:39:5c:e6:d3:8b:b9:
                    3e:87:41:de:02:2a:24:57:a9:99:8e:d3:32:22:dc:
                    57:8a:c4:7d:3c:db:26:c0:b8:a6:d4:71:70:a1:9b:
                    8a:b0:2a:d4:22:1e:a3:5a:b3:5a:46:1c:8c:01:a0:
                    5d:2c:97:00:9b:67:49:db:55:24:0b:af:a1:b0:ee:
                    63:5e:59:a5:1a:44:03:cb:99:b2:a2:77:06:d8:19:
                    d3:5f:85:07:7d:37:e1:90:5d:e8:40:aa:9d:1e:82:
                    31:a3:d9:90:2e:ab:ca:3c:b8:49:fd:5d:77:0b:db:
                    3a:93
                Exponent: 65537 (0x10001)
        X509v3 extensions:
            X509v3 Authority Key Identifier: 
                keyid:9C:C6:5F:2E:18:33:EE:D4:16:2C:1F:E3:71:F8:98:EA:D5:22:19:EC

            X509v3 Basic Constraints: critical
                CA:TRUE, pathlen:0
            X509v3 Extended Key Usage: 
                TLS Web Client Authentication, TLS Web Server Authentication
            X509v3 Key Usage: critical
                Certificate Sign, CRL Sign
            X509v3 Subject Key Identifier: 
                0F:8E:26:E3:9B:5E:5A:4D:1E:47:1F:BC:2A:68:A9:8F:6C:AA:3C:4A
    Signature Algorithm: sha256WithRSAEncryption
         ba:ec:32:19:8b:d2:db:38:c6:49:c3:72:10:24:b0:88:d1:dd:
         5d:f2:91:97:f8:91:e9:56:08:93:d8:09:de:05:ce:23:f9:3a:
         34:4b:76:b5:c3:4d:59:bd:ff:b3:2f:f7:a2:ef:be:83:50:b9:
         b8:ab:c7:8a:67:e3:8d:25:1d:13:28:a5:a2:d9:25:08:cc:4d:
         98:00:5d:30:67:f1:63:cc:15:5d:8e:c1:a6:2b:8c:9e:3f:70:
         89:c7:59:f5:4c:23:65:34:4f:10:d5:70:01:fa:b8:b3:b7:a7:
         17:f1:16:1d:57:65:32:8c:5c:4b:5e:fa:93:bf:27:3d:10:9f:
         89:86:8e:c0:19:27:6f:3c:f0:9a:6d:6f:6b:c6:d1:89:e1:e7:
         08:76:18:48:e2:de:83:24:22:9c:20:06:8a:63:d9:e8:2e:b5:
         72:67:48:b2:a4:b8:75:39:25:45:58:9b:5f:4d:80:c2:68:40:
         c3:9a:69:f9:70:84:a1:c4:c6:38:09:14:fc:9d:ae:5e:56:67:
         11:e7:b8:4c:b3:d2:08:5c:01:7c:f4:aa:54:ce:6e:59:7a:e4:
         cc:43:cf:b1:f2:69:a0:c7:30:20:a6:c9:ff:c9:44:70:29:de:
         d7:aa:08:df:93:1c:ff:38:f9:91:29:6e:4f:38:1e:39:b7:0b:
         01:ec:78:31
-----BEGIN CERTIFICATE-----
MIIDSTCCAjGgAwIBAgIRAMC5x1TF6a/10TzPhC3fXSAwDQYJKoZIhvcNAQELBQAw
HDEaMBgGA1UEAwwRSW90U2Nob29sIFJvb3QgQ0EwHhcNMjEwOTA2MDgwNDMwWhcN
MzEwOTA0MDgwNDMwWjAbMRkwFwYDVQQDDBBJb3RTY2hvb2wgU3ViIENBMIIBIjAN
BgkqhkiG9w0BAQEFAAOCAQ8AMIIBCgKCAQEAyyfQTmwK11uQPR6MJQQUaoL35VMI
141cyflKkfBSDx2pdlUjYCiG0pfHINqkGyCs/7l0ah9FlhYRhL9AMAuw7urEnYdh
V9JUKxtvjq9xIDL/4cvQqj9zSjcHtZTbYNHK3RwbeKpc81QgrS7nOKgvCHKfhwJw
2ktULfdy6csFPu//ZZiTuWzZA+h/SOWwS/M5XObTi7k+h0HeAiokV6mZjtMyItxX
isR9PNsmwLim1HFwoZuKsCrUIh6jWrNaRhyMAaBdLJcAm2dJ21UkC6+hsO5jXlml
GkQDy5myoncG2BnTX4UHfTfhkF3oQKqdHoIxo9mQLqvKPLhJ/V13C9s6kwIDAQAB
o4GGMIGDMB8GA1UdIwQYMBaAFJzGXy4YM+7UFiwf43H4mOrVIhnsMBIGA1UdEwEB
/wQIMAYBAf8CAQAwHQYDVR0lBBYwFAYIKwYBBQUHAwIGCCsGAQUFBwMBMA4GA1Ud
DwEB/wQEAwIBBjAdBgNVHQ4EFgQUD44m45teWk0eRx+8Kmipj2yqPEowDQYJKoZI
hvcNAQELBQADggEBALrsMhmL0ts4xknDchAksIjR3V3ykZf4kelWCJPYCd4FziP5
OjRLdrXDTVm9/7Mv96LvvoNQubirx4pn440lHRMopaLZJQjMTZgAXTBn8WPMFV2O
waYrjJ4/cInHWfVMI2U0TxDVcAH6uLO3pxfxFh1XZTKMXEte+pO/Jz0Qn4mGjsAZ
J2888Jptb2vG0Ynh5wh2GEji3oMkIpwgBopj2egutXJnSLKkuHU5JUVYm19NgMJo
QMOaaflwhKHExjgJFPydrl5WZxHnuEyz0ghcAXz0qlTObll65MxDz7HyaaDHMCCm
yf/JRHAp3teqCN+THP84+ZEpbk84Hjm3CwHseDE=
-----END CERTIFICATE-----
