Certificate:
    Data:
        Version: 3 (0x2)
        Serial Number:
            ce:c7:05:86:88:9f:b4:c3:93:e8:b6:9e:2e:74:a9:cb
        Signature Algorithm: sha256WithRSAEncryption
        Issuer: CN=IotSchool Root CA
        Validity
            Not Before: Apr 25 08:31:16 2023 GMT
            Not After : Apr 22 08:31:16 2033 GMT
        Subject: CN=IotSchool Sub CA
        Subject Public Key Info:
            Public Key Algorithm: rsaEncryption
                Public-Key: (2048 bit)
                Modulus:
                    00:a7:9e:e7:5a:b0:f2:ff:53:0f:19:ff:f5:18:e3:
                    77:1f:9a:5f:bd:33:37:e5:0e:07:04:a7:9a:0f:ea:
                    cb:50:e4:a3:4e:ca:84:3c:5d:53:e7:7c:21:b5:0a:
                    1e:b4:06:a4:05:a1:90:bc:46:1b:bc:69:70:33:99:
                    78:1f:1d:b0:b1:4b:54:9d:0e:71:af:a3:74:15:0e:
                    04:9d:58:30:b3:f3:ae:f7:2c:e6:75:30:c3:61:74:
                    ca:58:40:fe:50:32:e2:f2:dd:23:1c:de:c2:00:03:
                    9c:d7:1d:ce:bc:fb:46:e4:ea:bb:ec:f7:da:82:6b:
                    c7:26:d2:da:5a:97:8e:3c:79:a7:27:4c:1e:72:5b:
                    24:b7:28:79:a9:e0:99:6b:0d:76:e3:24:3d:40:94:
                    11:74:a1:06:a6:de:ff:af:aa:1d:0a:2c:c7:a0:12:
                    ea:1d:9e:7c:ae:e8:e6:ef:49:08:7b:15:fd:56:d2:
                    bb:67:97:7a:d1:65:d1:b7:bb:f7:5d:ca:f9:82:a5:
                    e6:d9:8f:99:7e:a6:10:1e:35:96:0b:b4:74:11:a7:
                    87:6a:18:a6:49:cb:43:c6:c7:12:1a:da:19:87:93:
                    49:6c:4e:54:6f:f8:d1:dc:8a:ac:d5:99:54:56:5e:
                    72:7b:e4:e0:88:62:36:cb:f3:9e:8f:15:50:02:2a:
                    00:4f
                Exponent: 65537 (0x10001)
        X509v3 extensions:
            X509v3 Authority Key Identifier: 
                9C:C6:5F:2E:18:33:EE:D4:16:2C:1F:E3:71:F8:98:EA:D5:22:19:EC
            X509v3 Basic Constraints: critical
                CA:TRUE, pathlen:0
            X509v3 Extended Key Usage: 
                TLS Web Client Authentication, TLS Web Server Authentication
            X509v3 Key Usage: critical
                Certificate Sign, CRL Sign
            X509v3 Subject Key Identifier: 
                E9:55:CC:6C:B1:49:91:6E:AC:63:82:DC:84:27:09:D8:F2:EC:ED:2E
    Signature Algorithm: sha256WithRSAEncryption
    Signature Value:
        08:3f:56:32:d5:98:11:c5:54:02:2c:5e:70:b5:d5:5d:60:8d:
        bd:cf:45:5c:3a:ea:d8:a0:0b:e9:de:13:f7:6d:4c:4c:6b:46:
        58:f9:d7:b7:13:93:72:76:2f:e3:29:08:68:f3:ef:f6:93:1f:
        dd:2e:bd:21:50:f4:4b:cb:6f:76:f1:1c:fe:3a:43:d3:2f:8e:
        31:dd:35:93:ea:d1:8f:82:42:20:52:4c:27:1d:21:ea:02:65:
        5c:75:62:eb:24:a9:a3:71:3b:6c:13:38:bc:93:1f:5b:f0:0d:
        d0:a3:6e:4f:b9:21:b9:c5:3d:ce:d2:7b:9f:4e:9c:e0:9b:fc:
        2c:27:4f:db:83:23:f6:16:93:55:ac:09:dd:48:e0:6d:cf:f9:
        a5:35:c8:96:c0:3c:ee:d5:48:3a:5e:8e:3a:be:cd:7e:14:6e:
        38:5b:4c:25:ab:5d:d2:40:be:cb:18:13:15:83:a8:0b:23:b6:
        b9:4b:ec:17:b1:81:7e:b6:c8:31:43:f4:fe:1d:e3:33:50:a3:
        f6:45:6c:9b:3f:fe:51:c8:f2:b4:12:31:fc:d7:00:78:33:88:
        f3:3b:0c:c6:5a:3a:c3:2b:83:04:68:90:03:17:28:40:50:71:
        22:15:21:2b:fd:a7:2e:49:d7:20:9d:8f:16:52:9e:de:de:d4:
        e0:22:44:f1
-----BEGIN CERTIFICATE-----
MIIDSTCCAjGgAwIBAgIRAM7HBYaIn7TDk+i2ni50qcswDQYJKoZIhvcNAQELBQAw
HDEaMBgGA1UEAwwRSW90U2Nob29sIFJvb3QgQ0EwHhcNMjMwNDI1MDgzMTE2WhcN
MzMwNDIyMDgzMTE2WjAbMRkwFwYDVQQDDBBJb3RTY2hvb2wgU3ViIENBMIIBIjAN
BgkqhkiG9w0BAQEFAAOCAQ8AMIIBCgKCAQEAp57nWrDy/1MPGf/1GON3H5pfvTM3
5Q4HBKeaD+rLUOSjTsqEPF1T53whtQoetAakBaGQvEYbvGlwM5l4Hx2wsUtUnQ5x
r6N0FQ4EnVgws/Ou9yzmdTDDYXTKWED+UDLi8t0jHN7CAAOc1x3OvPtG5Oq77Pfa
gmvHJtLaWpeOPHmnJ0weclsktyh5qeCZaw124yQ9QJQRdKEGpt7/r6odCizHoBLq
HZ58rujm70kIexX9VtK7Z5d60WXRt7v3Xcr5gqXm2Y+ZfqYQHjWWC7R0EaeHahim
SctDxscSGtoZh5NJbE5Ub/jR3Iqs1ZlUVl5ye+TgiGI2y/OejxVQAioATwIDAQAB
o4GGMIGDMB8GA1UdIwQYMBaAFJzGXy4YM+7UFiwf43H4mOrVIhnsMBIGA1UdEwEB
/wQIMAYBAf8CAQAwHQYDVR0lBBYwFAYIKwYBBQUHAwIGCCsGAQUFBwMBMA4GA1Ud
DwEB/wQEAwIBBjAdBgNVHQ4EFgQU6VXMbLFJkW6sY4LchCcJ2PLs7S4wDQYJKoZI
hvcNAQELBQADggEBAAg/VjLVmBHFVAIsXnC11V1gjb3PRVw66tigC+neE/dtTExr
Rlj517cTk3J2L+MpCGjz7/aTH90uvSFQ9EvLb3bxHP46Q9MvjjHdNZPq0Y+CQiBS
TCcdIeoCZVx1YuskqaNxO2wTOLyTH1vwDdCjbk+5IbnFPc7Se59OnOCb/CwnT9uD
I/YWk1WsCd1I4G3P+aU1yJbAPO7VSDpejjq+zX4UbjhbTCWrXdJAvssYExWDqAsj
trlL7BexgX62yDFD9P4d4zNQo/ZFbJs//lHI8rQSMfzXAHgziPM7DMZaOsMrgwRo
kAMXKEBQcSIVISv9py5J1yCdjxZSnt7e1OAiRPE=
-----END CERTIFICATE-----
