Certificate:
    Data:
        Version: 3 (0x2)
        Serial Number:
            d8:4b:f1:37:71:f4:98:49:61:bc:35:2c:7b:48:93:96
        Signature Algorithm: sha256WithRSAEncryption
        Issuer: CN=IotSchool Root CA
        Validity
            Not Before: Apr 25 08:30:53 2023 GMT
            Not After : Apr 22 08:30:53 2033 GMT
        Subject: CN=IotSchool Sub CA
        Subject Public Key Info:
            Public Key Algorithm: rsaEncryption
                Public-Key: (2048 bit)
                Modulus:
                    00:c2:86:f6:0f:d9:16:1d:af:51:bb:02:fc:3d:7d:
                    78:a5:23:e7:07:d6:01:6b:ab:ea:1d:ee:da:70:90:
                    fe:d7:49:fb:eb:93:52:16:27:ed:04:18:77:12:81:
                    2b:09:cc:94:5a:06:5c:ce:cc:21:90:8a:09:12:93:
                    f5:51:8c:fd:cb:d9:79:2a:53:80:79:0a:b0:fe:c2:
                    66:24:a9:b8:89:7f:b0:5a:49:2b:df:c8:6c:f4:aa:
                    16:df:cc:5c:9e:de:85:cf:f8:d5:d8:ad:d9:ca:df:
                    eb:76:b9:ba:c9:9c:8a:cb:95:69:99:35:0a:82:d9:
                    49:a1:80:7c:02:77:24:8b:2d:d5:50:45:c3:37:b8:
                    76:43:0a:67:51:5c:d1:ec:25:a4:43:5b:36:55:7a:
                    62:de:23:7f:c3:52:15:be:1f:79:da:7a:05:47:48:
                    80:c7:c5:17:b3:95:ff:89:22:5f:3a:a0:04:1c:56:
                    a8:d0:5d:3f:b1:0c:c6:54:d8:26:af:1f:17:83:a3:
                    57:6e:15:4d:96:5b:fc:4a:67:57:da:f1:49:5d:09:
                    72:dd:ea:33:2e:05:45:79:9e:5e:6f:d0:eb:60:47:
                    1c:0d:00:cc:e6:18:45:51:37:d4:80:41:58:f0:5b:
                    31:7c:3b:76:ab:05:d3:e6:04:7b:ee:1e:c8:75:a0:
                    2c:97
                Exponent: 65537 (0x10001)
        X509v3 extensions:
            X509v3 Authority Key Identifier: 
                9C:C6:5F:2E:18:33:EE:D4:16:2C:1F:E3:71:F8:98:EA:D5:22:19:EC
            X509v3 Basic Constraints: critical
                CA:TRUE, pathlen:0
            X509v3 Extended Key Usage: 
                TLS Web Client Authentication, TLS Web Server Authentication
            X509v3 Key Usage: critical
                Certificate Sign, CRL Sign
            X509v3 Subject Key Identifier: 
                B9:AF:DE:48:16:1A:73:FD:40:FE:B3:EF:EF:5A:64:71:F4:9E:7A:7F
    Signature Algorithm: sha256WithRSAEncryption
    Signature Value:
        5c:55:27:13:cf:36:df:fe:6c:f0:0a:71:01:ab:8e:91:ee:1c:
        c9:e9:de:9b:1a:15:76:c7:20:78:88:2e:41:9b:01:36:34:8d:
        5e:5b:5f:5e:df:0a:51:83:20:2c:6c:76:0b:e0:74:6b:4c:ea:
        81:e2:ff:5b:28:78:d6:c5:34:61:ac:91:9d:b3:6b:50:10:9e:
        0a:1b:80:d6:82:e8:e6:7a:5c:de:67:d4:ac:c0:bc:05:b0:ff:
        b4:58:b2:b8:48:2e:eb:1d:fa:71:12:e6:04:ef:d9:f4:b0:59:
        a5:19:28:cd:82:ea:0f:f0:62:79:9c:54:14:c3:4f:bb:e3:5d:
        42:c7:0c:52:2c:38:a9:93:e2:58:84:b7:bd:29:ec:4f:67:bf:
        ff:db:0a:28:05:62:77:a4:50:ab:b8:17:8e:70:f2:4d:9f:6b:
        82:d1:c1:12:98:b7:cc:51:85:4f:41:4a:b3:e5:6a:25:d3:c9:
        fb:a3:92:09:ab:69:e4:2e:43:82:79:07:2b:00:81:24:4b:22:
        46:ce:1a:40:75:5e:c5:63:fb:f3:7d:62:a7:95:a0:04:fe:23:
        c3:ae:f9:bb:34:a7:3f:85:ba:37:2d:48:09:c6:fb:5e:07:b2:
        d0:8c:70:dc:f6:8c:e6:a7:1b:21:65:40:c2:31:42:a2:77:c9:
        4b:b5:80:f2
-----BEGIN CERTIFICATE-----
MIIDSTCCAjGgAwIBAgIRANhL8Tdx9JhJYbw1LHtIk5YwDQYJKoZIhvcNAQELBQAw
HDEaMBgGA1UEAwwRSW90U2Nob29sIFJvb3QgQ0EwHhcNMjMwNDI1MDgzMDUzWhcN
MzMwNDIyMDgzMDUzWjAbMRkwFwYDVQQDDBBJb3RTY2hvb2wgU3ViIENBMIIBIjAN
BgkqhkiG9w0BAQEFAAOCAQ8AMIIBCgKCAQEAwob2D9kWHa9RuwL8PX14pSPnB9YB
a6vqHe7acJD+10n765NSFiftBBh3EoErCcyUWgZczswhkIoJEpP1UYz9y9l5KlOA
eQqw/sJmJKm4iX+wWkkr38hs9KoW38xcnt6Fz/jV2K3Zyt/rdrm6yZyKy5VpmTUK
gtlJoYB8Anckiy3VUEXDN7h2QwpnUVzR7CWkQ1s2VXpi3iN/w1IVvh952noFR0iA
x8UXs5X/iSJfOqAEHFao0F0/sQzGVNgmrx8Xg6NXbhVNllv8SmdX2vFJXQly3eoz
LgVFeZ5eb9DrYEccDQDM5hhFUTfUgEFY8FsxfDt2qwXT5gR77h7IdaAslwIDAQAB
o4GGMIGDMB8GA1UdIwQYMBaAFJzGXy4YM+7UFiwf43H4mOrVIhnsMBIGA1UdEwEB
/wQIMAYBAf8CAQAwHQYDVR0lBBYwFAYIKwYBBQUHAwIGCCsGAQUFBwMBMA4GA1Ud
DwEB/wQEAwIBBjAdBgNVHQ4EFgQUua/eSBYac/1A/rPv71pkcfSeen8wDQYJKoZI
hvcNAQELBQADggEBAFxVJxPPNt/+bPAKcQGrjpHuHMnp3psaFXbHIHiILkGbATY0
jV5bX17fClGDICxsdgvgdGtM6oHi/1soeNbFNGGskZ2za1AQngobgNaC6OZ6XN5n
1KzAvAWw/7RYsrhILusd+nES5gTv2fSwWaUZKM2C6g/wYnmcVBTDT7vjXULHDFIs
OKmT4liEt70p7E9nv//bCigFYnekUKu4F45w8k2fa4LRwRKYt8xRhU9BSrPlaiXT
yfujkgmraeQuQ4J5BysAgSRLIkbOGkB1XsVj+/N9YqeVoAT+I8Ou+bs0pz+Fujct
SAnG+14HstCMcNz2jOanGyFlQMIxQqJ3yUu1gPI=
-----END CERTIFICATE-----
