Certificate:
    Data:
        Version: 3 (0x2)
        Serial Number:
            e4:27:f0:f7:a1:d9:b6:a1:75:d7:5d:1a:0d:77:db:c2
        Signature Algorithm: sha256WithRSAEncryption
        Issuer: CN=IotSchool Root CA
        Validity
            Not Before: Apr 25 08:30:27 2023 GMT
            Not After : Apr 22 08:30:27 2033 GMT
        Subject: CN=IotSchool Sub CA
        Subject Public Key Info:
            Public Key Algorithm: rsaEncryption
                Public-Key: (2048 bit)
                Modulus:
                    00:e3:f4:19:3f:a1:62:9c:c0:f0:83:a7:e6:37:99:
                    32:65:b3:e3:f1:56:cc:e7:1b:dc:e7:e9:5d:a5:a4:
                    07:01:68:bf:c5:3a:cd:70:8a:b4:83:db:15:d8:af:
                    f8:d2:38:0d:98:98:97:c8:41:3d:ab:5d:5b:8a:8b:
                    71:41:2f:5b:9a:e2:66:8c:ba:45:df:80:90:12:b1:
                    29:1f:ae:48:e9:a1:cb:db:cb:a8:dd:04:24:d9:db:
                    0e:24:d8:49:19:a3:79:45:b2:d8:32:66:d3:00:ea:
                    3d:32:19:d0:e0:86:b2:1f:b1:dd:be:fb:d6:e0:fd:
                    a0:a9:bf:4b:bc:18:df:56:29:cc:51:d6:4c:74:cb:
                    32:06:df:e9:9a:c1:4e:6a:9e:c8:5e:2a:a1:ca:4e:
                    cb:2e:26:6f:3c:06:1e:72:cf:f2:80:04:1e:af:fd:
                    db:bc:8b:1c:0e:2c:f1:ff:de:c9:48:cb:c0:d8:52:
                    cd:09:d5:bf:5b:16:a3:db:0e:c7:ca:49:cf:8f:60:
                    03:f9:40:c2:27:25:fa:ea:a9:12:00:fa:97:e7:1b:
                    89:c5:8b:6d:e7:19:fb:c3:83:54:0a:ac:04:6b:06:
                    66:53:85:b0:6c:40:fb:a0:37:15:8c:52:13:f7:5e:
                    5d:88:bc:0c:00:a6:19:61:78:8f:e1:9e:f2:19:ed:
                    81:f7
                Exponent: 65537 (0x10001)
        X509v3 extensions:
            X509v3 Authority Key Identifier: 
                9C:C6:5F:2E:18:33:EE:D4:16:2C:1F:E3:71:F8:98:EA:D5:22:19:EC
            X509v3 Basic Constraints: critical
                CA:TRUE, pathlen:0
            X509v3 Extended Key Usage: 
                TLS Web Client Authentication, TLS Web Server Authentication
            X509v3 Key Usage: critical
                Certificate Sign, CRL Sign
            X509v3 Subject Key Identifier: 
                F0:05:3A:3C:E1:D1:C7:4F:75:47:64:C9:66:6B:B8:0B:EB:BD:17:69
    Signature Algorithm: sha256WithRSAEncryption
    Signature Value:
        1f:d5:b4:d7:98:48:7b:e9:a9:e8:38:d9:68:25:6d:42:a9:79:
        b3:15:1b:e6:d9:84:5f:f2:06:8b:3a:df:df:23:9a:87:1e:e6:
        96:9a:43:22:7a:b0:aa:53:6b:98:d7:cf:04:3a:9c:8e:47:ea:
        99:07:4e:8b:cc:1c:4b:d8:be:48:4b:0d:ef:35:e3:19:d7:c2:
        69:c5:7f:77:78:ff:45:39:d4:bb:2e:d6:e3:02:47:af:25:e0:
        60:a1:d5:72:b8:e7:08:fb:80:95:13:c4:24:fc:8f:80:35:d9:
        b5:95:4b:0c:29:d1:38:b6:b0:29:a6:89:54:3d:f8:7a:5a:4d:
        48:d5:4e:98:63:05:ef:e6:4d:62:d7:6a:07:3a:74:4b:80:36:
        d0:10:ed:b6:7c:25:76:c2:11:66:38:31:d4:96:bc:af:a6:de:
        61:68:72:94:f9:61:9f:ef:8d:75:f0:47:7a:6a:99:c5:99:27:
        f0:71:c7:82:d4:24:db:1b:70:61:d3:76:8a:82:8f:bc:04:f6:
        47:78:b3:01:6e:ed:02:9f:4c:fd:70:2b:bf:6f:a4:5c:06:d1:
        e0:97:cd:54:a3:d5:35:4b:af:54:5e:28:cc:01:d9:fc:25:6e:
        1d:cb:99:2a:ba:68:f1:79:77:e4:ed:1c:bd:81:fb:70:66:34:
        bf:44:ed:0e
-----BEGIN CERTIFICATE-----
MIIDSTCCAjGgAwIBAgIRAOQn8Peh2bahddddGg1328IwDQYJKoZIhvcNAQELBQAw
HDEaMBgGA1UEAwwRSW90U2Nob29sIFJvb3QgQ0EwHhcNMjMwNDI1MDgzMDI3WhcN
MzMwNDIyMDgzMDI3WjAbMRkwFwYDVQQDDBBJb3RTY2hvb2wgU3ViIENBMIIBIjAN
BgkqhkiG9w0BAQEFAAOCAQ8AMIIBCgKCAQEA4/QZP6FinMDwg6fmN5kyZbPj8VbM
5xvc5+ldpaQHAWi/xTrNcIq0g9sV2K/40jgNmJiXyEE9q11biotxQS9bmuJmjLpF
34CQErEpH65I6aHL28uo3QQk2dsOJNhJGaN5RbLYMmbTAOo9MhnQ4IayH7HdvvvW
4P2gqb9LvBjfVinMUdZMdMsyBt/pmsFOap7IXiqhyk7LLiZvPAYecs/ygAQer/3b
vIscDizx/97JSMvA2FLNCdW/Wxaj2w7HyknPj2AD+UDCJyX66qkSAPqX5xuJxYtt
5xn7w4NUCqwEawZmU4WwbED7oDcVjFIT915diLwMAKYZYXiP4Z7yGe2B9wIDAQAB
o4GGMIGDMB8GA1UdIwQYMBaAFJzGXy4YM+7UFiwf43H4mOrVIhnsMBIGA1UdEwEB
/wQIMAYBAf8CAQAwHQYDVR0lBBYwFAYIKwYBBQUHAwIGCCsGAQUFBwMBMA4GA1Ud
DwEB/wQEAwIBBjAdBgNVHQ4EFgQU8AU6POHRx091R2TJZmu4C+u9F2kwDQYJKoZI
hvcNAQELBQADggEBAB/VtNeYSHvpqeg42WglbUKpebMVG+bZhF/yBos6398jmoce
5paaQyJ6sKpTa5jXzwQ6nI5H6pkHTovMHEvYvkhLDe814xnXwmnFf3d4/0U51Lsu
1uMCR68l4GCh1XK45wj7gJUTxCT8j4A12bWVSwwp0Ti2sCmmiVQ9+HpaTUjVTphj
Be/mTWLXagc6dEuANtAQ7bZ8JXbCEWY4MdSWvK+m3mFocpT5YZ/vjXXwR3pqmcWZ
J/Bxx4LUJNsbcGHTdoqCj7wE9kd4swFu7QKfTP1wK79vpFwG0eCXzVSj1TVLr1Re
KMwB2fwlbh3LmSq6aPF5d+TtHL2B+3BmNL9E7Q4=
-----END CERTIFICATE-----
