Certificate:
    Data:
        Version: 3 (0x2)
        Serial Number:
            f1:cf:fa:d8:2d:9c:05:52:ec:e7:29:ce:2a:35:ed:8d
        Signature Algorithm: sha256WithRSAEncryption
        Issuer: CN=IotSchool Root CA
        Validity
            Not Before: Apr 25 08:30:28 2023 GMT
            Not After : Apr 22 08:30:28 2033 GMT
        Subject: CN=IotSchool Sub CA
        Subject Public Key Info:
            Public Key Algorithm: rsaEncryption
                Public-Key: (2048 bit)
                Modulus:
                    00:b1:a6:6a:d7:97:40:c8:52:f1:cc:78:a6:f5:06:
                    11:35:89:7e:82:0d:61:4d:3f:84:84:32:b0:cc:e7:
                    59:64:83:2a:18:9e:ee:72:c9:d2:3f:0a:6f:8f:3e:
                    89:e8:2f:10:91:10:f5:f7:04:f4:e3:d9:ae:ac:5b:
                    eb:72:bb:39:71:83:5e:67:17:13:91:ab:bc:b5:e9:
                    be:00:7e:03:4b:12:19:e1:79:10:3b:75:ff:ab:da:
                    d8:ae:dc:a7:8d:01:aa:25:3c:84:41:5d:df:f1:9a:
                    8a:ae:b2:28:2b:ff:30:23:fa:73:39:c0:7b:86:d8:
                    d3:28:cf:a1:0a:27:a5:e4:7f:bf:25:43:5f:18:77:
                    b1:aa:c1:c2:14:e2:cd:5f:f6:d9:c5:3e:b4:ac:80:
                    0b:80:96:02:12:0d:c9:c0:97:26:f9:22:09:03:1c:
                    77:b7:78:00:24:e5:d2:2a:de:83:0e:ca:d8:8b:41:
                    6a:29:d7:94:ba:32:a9:d6:20:df:bc:f7:5e:6d:b3:
                    0e:da:05:05:5c:64:b9:5d:d5:18:78:2e:ae:92:cf:
                    40:d2:36:9f:b1:fa:78:82:55:5c:45:9e:65:90:d1:
                    e9:7d:3d:03:29:df:f8:39:7a:21:c4:43:05:dc:f9:
                    6c:66:0d:d0:08:1a:9e:0d:3c:98:de:da:21:ec:3d:
                    b1:29
                Exponent: 65537 (0x10001)
        X509v3 extensions:
            X509v3 Authority Key Identifier: 
                9C:C6:5F:2E:18:33:EE:D4:16:2C:1F:E3:71:F8:98:EA:D5:22:19:EC
            X509v3 Basic Constraints: critical
                CA:TRUE, pathlen:0
            X509v3 Extended Key Usage: 
                TLS Web Client Authentication, TLS Web Server Authentication
            X509v3 Key Usage: critical
                Certificate Sign, CRL Sign
            X509v3 Subject Key Identifier: 
                4D:B7:13:A4:BD:B8:C6:E9:49:EA:20:DF:2F:D8:11:52:D1:E6:D1:03
    Signature Algorithm: sha256WithRSAEncryption
    Signature Value:
        76:35:ef:34:4c:29:d2:8c:16:a1:2c:26:af:42:e3:f1:f1:f4:
        4a:ba:6f:d1:88:68:86:a3:66:85:7f:94:68:44:69:e1:fc:f1:
        16:70:71:b0:b0:6c:9c:76:07:7a:b4:e2:b7:85:c1:51:d3:2d:
        76:e0:b3:65:ee:19:65:79:15:6d:9b:2d:ec:a8:36:c4:fe:39:
        a4:cd:29:42:85:19:90:25:07:4f:73:a0:cb:69:a7:7f:ef:a0:
        5d:1c:a8:d8:2d:8e:e2:b2:4d:b3:9e:40:10:26:01:2d:24:68:
        bf:64:fe:ec:8c:0f:67:94:6b:0b:b9:e1:8d:3f:cb:98:2b:88:
        a7:f1:34:7d:f3:6e:49:94:0a:e0:6a:16:50:4a:4f:cf:56:34:
        ba:9e:60:3a:18:1e:95:5a:de:6c:0e:8d:6a:83:3d:5e:ed:2f:
        a9:b9:07:dd:9b:16:2a:d2:86:ba:2c:e7:20:82:07:ec:34:2d:
        ea:2c:9a:29:4d:8d:83:70:45:7f:03:c9:2f:0d:f0:48:10:fe:
        a9:6a:12:5a:98:0c:bd:35:76:19:83:53:3b:d2:db:68:db:a8:
        68:1c:41:18:b5:94:ef:3a:14:ef:1e:eb:05:03:d4:44:b0:5a:
        ed:73:bc:23:19:50:73:69:24:2d:10:3d:c2:e1:c7:0a:75:52:
        4e:fe:2d:2e
-----BEGIN CERTIFICATE-----
MIIDSTCCAjGgAwIBAgIRAPHP+tgtnAVS7Ocpzio17Y0wDQYJKoZIhvcNAQELBQAw
HDEaMBgGA1UEAwwRSW90U2Nob29sIFJvb3QgQ0EwHhcNMjMwNDI1MDgzMDI4WhcN
MzMwNDIyMDgzMDI4WjAbMRkwFwYDVQQDDBBJb3RTY2hvb2wgU3ViIENBMIIBIjAN
BgkqhkiG9w0BAQEFAAOCAQ8AMIIBCgKCAQEAsaZq15dAyFLxzHim9QYRNYl+gg1h
TT+EhDKwzOdZZIMqGJ7ucsnSPwpvjz6J6C8QkRD19wT049murFvrcrs5cYNeZxcT
kau8tem+AH4DSxIZ4XkQO3X/q9rYrtynjQGqJTyEQV3f8ZqKrrIoK/8wI/pzOcB7
htjTKM+hCiel5H+/JUNfGHexqsHCFOLNX/bZxT60rIALgJYCEg3JwJcm+SIJAxx3
t3gAJOXSKt6DDsrYi0FqKdeUujKp1iDfvPdebbMO2gUFXGS5XdUYeC6uks9A0jaf
sfp4glVcRZ5lkNHpfT0DKd/4OXohxEMF3PlsZg3QCBqeDTyY3toh7D2xKQIDAQAB
o4GGMIGDMB8GA1UdIwQYMBaAFJzGXy4YM+7UFiwf43H4mOrVIhnsMBIGA1UdEwEB
/wQIMAYBAf8CAQAwHQYDVR0lBBYwFAYIKwYBBQUHAwIGCCsGAQUFBwMBMA4GA1Ud
DwEB/wQEAwIBBjAdBgNVHQ4EFgQUTbcTpL24xulJ6iDfL9gRUtHm0QMwDQYJKoZI
hvcNAQELBQADggEBAHY17zRMKdKMFqEsJq9C4/Hx9Eq6b9GIaIajZoV/lGhEaeH8
8RZwcbCwbJx2B3q04reFwVHTLXbgs2XuGWV5FW2bLeyoNsT+OaTNKUKFGZAlB09z
oMtpp3/voF0cqNgtjuKyTbOeQBAmAS0kaL9k/uyMD2eUawu54Y0/y5griKfxNH3z
bkmUCuBqFlBKT89WNLqeYDoYHpVa3mwOjWqDPV7tL6m5B92bFirShros5yCCB+w0
LeosmilNjYNwRX8DyS8N8EgQ/qlqElqYDL01dhmDUzvS22jbqGgcQRi1lO86FO8e
6wUD1ESwWu1zvCMZUHNpJC0QPcLhxwp1Uk7+LS4=
-----END CERTIFICATE-----
