Certificate:
    Data:
        Version: 3 (0x2)
        Serial Number:
            f6:57:2f:28:28:36:3e:26:99:06:31:bc:9b:7a:c1:e4
        Signature Algorithm: sha256WithRSAEncryption
        Issuer: CN=IotSchool Root CA
        Validity
            Not Before: Sep  6 08:08:33 2021 GMT
            Not After : Sep  4 08:08:33 2031 GMT
        Subject: CN=IotSchool Sub CA
        Subject Public Key Info:
            Public Key Algorithm: rsaEncryption
                RSA Public-Key: (2048 bit)
                Modulus:
                    00:be:cf:9c:39:5c:78:93:59:03:0e:79:ac:3c:84:
                    9b:53:ed:0c:50:31:f5:81:d6:88:a6:88:e4:a1:a3:
                    10:45:0a:7b:03:67:61:e9:87:3a:2a:04:b6:22:f4:
                    76:b4:9b:b0:87:f3:6d:ef:4b:46:88:d0:2a:7f:fc:
                    c2:ac:ae:5f:7f:69:de:dd:41:c6:df:b8:59:97:dd:
                    da:80:6d:d9:01:97:dc:f9:fe:0e:09:06:79:e9:51:
                    b1:df:c7:e9:6f:27:2d:ae:c4:41:96:30:7c:7d:cc:
                    04:47:25:56:77:18:4c:a6:31:af:11:ca:8b:8b:c6:
                    2b:1d:2b:b6:82:44:0c:35:03:19:ae:8b:5b:69:66:
                    26:c2:9d:c7:b2:5c:91:f4:01:55:fd:f0:f3:a8:01:
                    56:fa:83:de:d9:49:1a:cb:7a:68:36:c5:fe:e9:36:
                    db:1b:46:f9:88:cd:49:c9:02:20:c1:8e:0f:92:98:
                    d5:29:68:8c:2b:a0:f5:d5:3c:b0:71:78:b6:1d:3d:
                    16:e6:46:b6:ae:59:d3:0f:b0:2b:ef:e9:a6:13:5f:
                    06:2c:bc:17:3c:4c:9d:b0:4e:1e:ad:ee:18:00:63:
                    90:7a:79:91:af:d1:c6:44:ab:3f:d6:a1:64:6e:8e:
                    be:d9:25:73:46:90:5e:b4:fc:5d:0c:bb:fc:99:5c:
                    db:f7
                Exponent: 65537 (0x10001)
        X509v3 extensions:
            X509v3 Authority Key Identifier: 
                keyid:9C:C6:5F:2E:18:33:EE:D4:16:2C:1F:E3:71:F8:98:EA:D5:22:19:EC

            X509v3 Basic Constraints: critical
                CA:TRUE, pathlen:0
            X509v3 Extended Key Usage: 
                TLS Web Client Authentication, TLS Web Server Authentication
            X509v3 Key Usage: critical
                Certificate Sign, CRL Sign
            X509v3 Subject Key Identifier: 
                91:94:15:22:06:DD:74:20:E2:DA:8D:03:7D:BE:4F:29:54:B9:E6:CF
    Signature Algorithm: sha256WithRSAEncryption
         56:dd:02:ed:68:ee:48:b6:0b:ee:25:82:f4:4e:53:ac:f6:0e:
         9e:a9:dd:ce:57:a3:94:60:13:9f:90:85:6a:7f:bc:d2:3e:bb:
         71:bd:76:be:42:b0:b3:ab:4c:64:ae:0d:fa:23:2d:21:3f:d2:
         cd:d0:c2:a4:0f:f3:a7:e7:33:bd:7f:44:60:41:29:87:2a:09:
         a9:8a:03:96:30:45:c5:5d:cf:d1:f7:d2:50:a4:19:25:bd:b8:
         db:ab:5c:a4:ef:06:fd:b2:e1:83:00:e5:ea:a1:a7:9f:c3:d9:
         d7:b0:28:e7:17:93:59:e7:ef:ab:87:d9:87:bb:26:44:53:3d:
         fc:a1:cc:c1:63:22:15:c2:a1:f9:6b:bd:95:39:f2:a8:41:d2:
         19:a9:de:a9:c4:4a:fd:23:34:f8:62:ef:ce:69:89:68:34:ed:
         cd:9d:4c:7b:68:15:ff:d4:cb:c5:e0:31:d9:39:e2:b6:81:db:
         68:ad:e9:d2:35:a5:4d:7a:e8:2f:61:d8:11:e2:66:6c:cb:0c:
         bd:af:ec:99:6e:e6:c0:b8:28:a8:0e:40:44:02:3e:8b:93:a6:
         13:c0:84:21:0a:24:01:e9:33:7a:09:11:3c:d0:ae:52:c4:f1:
         27:72:24:8f:5e:fc:e1:00:34:b0:46:bd:a5:bb:b5:1a:16:95:
         cd:9a:bd:ca
-----BEGIN CERTIFICATE-----
MIIDSTCCAjGgAwIBAgIRAPZXLygoNj4mmQYxvJt6weQwDQYJKoZIhvcNAQELBQAw
HDEaMBgGA1UEAwwRSW90U2Nob29sIFJvb3QgQ0EwHhcNMjEwOTA2MDgwODMzWhcN
MzEwOTA0MDgwODMzWjAbMRkwFwYDVQQDDBBJb3RTY2hvb2wgU3ViIENBMIIBIjAN
BgkqhkiG9w0BAQEFAAOCAQ8AMIIBCgKCAQEAvs+cOVx4k1kDDnmsPISbU+0MUDH1
gdaIpojkoaMQRQp7A2dh6Yc6KgS2IvR2tJuwh/Nt70tGiNAqf/zCrK5ff2ne3UHG
37hZl93agG3ZAZfc+f4OCQZ56VGx38fpbyctrsRBljB8fcwERyVWdxhMpjGvEcqL
i8YrHSu2gkQMNQMZrotbaWYmwp3HslyR9AFV/fDzqAFW+oPe2Ukay3poNsX+6Tbb
G0b5iM1JyQIgwY4PkpjVKWiMK6D11TywcXi2HT0W5ka2rlnTD7Ar7+mmE18GLLwX
PEydsE4ere4YAGOQenmRr9HGRKs/1qFkbo6+2SVzRpBetPxdDLv8mVzb9wIDAQAB
o4GGMIGDMB8GA1UdIwQYMBaAFJzGXy4YM+7UFiwf43H4mOrVIhnsMBIGA1UdEwEB
/wQIMAYBAf8CAQAwHQYDVR0lBBYwFAYIKwYBBQUHAwIGCCsGAQUFBwMBMA4GA1Ud
DwEB/wQEAwIBBjAdBgNVHQ4EFgQUkZQVIgbddCDi2o0Dfb5PKVS55s8wDQYJKoZI
hvcNAQELBQADggEBAFbdAu1o7ki2C+4lgvROU6z2Dp6p3c5Xo5RgE5+QhWp/vNI+
u3G9dr5CsLOrTGSuDfojLSE/0s3QwqQP86fnM71/RGBBKYcqCamKA5YwRcVdz9H3
0lCkGSW9uNurXKTvBv2y4YMA5eqhp5/D2dewKOcXk1nn76uH2Ye7JkRTPfyhzMFj
IhXCoflrvZU58qhB0hmp3qnESv0jNPhi785piWg07c2dTHtoFf/Uy8XgMdk54raB
22it6dI1pU166C9h2BHiZmzLDL2v7Jlu5sC4KKgOQEQCPouTphPAhCEKJAHpM3oJ
ETzQrlLE8SdyJI9e/OEANLBGvaW7tRoWlc2avco=
-----END CERTIFICATE-----
