Certificate:
    Data:
        Version: 3 (0x2)
        Serial Number:
            2c:40:3c:96:1e:4e:cb:5f:3f:1d:ab:97:98:69:58:aa
        Signature Algorithm: sha256WithRSAEncryption
        Issuer: CN=IotSchool Sub CA
        Validity
            Not Before: May  5 11:24:45 2023 GMT
            Not After : May  4 11:24:45 2024 GMT
        Subject: C=DE, ST=Bavaria, O=IoT School, OU=PKI Services, CN=sample/emailAddress=iotschool@maibornwolff.de
        Subject Public Key Info:
            Public Key Algorithm: rsaEncryption
                Public-Key: (2048 bit)
                Modulus:
                    00:e8:76:47:47:5c:14:de:34:ea:3b:54:55:4a:b8:
                    94:ea:f9:b0:0b:28:5c:46:c9:25:9d:cc:f9:82:36:
                    df:75:f9:33:d7:36:17:6a:c9:95:97:c0:6b:3f:17:
                    b5:63:be:96:6d:76:e4:93:20:79:f5:ec:38:61:ce:
                    f7:94:a7:b1:24:e6:d2:f6:8f:e2:8f:8c:82:65:45:
                    ca:37:81:2f:72:1a:03:1c:dc:6f:f9:d8:fa:64:b3:
                    2d:93:79:ef:41:0b:d7:ab:20:a8:7e:54:6d:e4:35:
                    76:a6:65:df:a5:0d:af:f3:ee:bb:4a:50:e1:69:bc:
                    29:91:ad:d8:ac:f2:e1:76:32:80:f9:91:47:4d:79:
                    b7:8c:99:7b:04:64:b6:42:16:cd:ce:88:c8:69:bd:
                    9d:36:ba:92:88:ec:05:3d:fd:3e:9d:dc:02:52:d4:
                    85:65:5b:5e:a9:a6:e5:2d:2a:c2:1d:af:e5:91:9c:
                    71:53:23:4e:5a:cc:a7:01:3e:75:5a:9a:20:a9:b0:
                    bf:d0:c5:bd:75:dc:b2:24:a4:4b:91:ab:70:e1:29:
                    43:86:7d:06:08:0d:25:b4:5e:e9:c1:13:79:50:06:
                    b8:d2:2f:60:52:08:39:30:e0:53:da:cb:45:6d:bc:
                    a4:d0:d7:de:db:1d:ec:b6:db:05:9b:29:18:a2:26:
                    81:0b
                Exponent: 65537 (0x10001)
        X509v3 extensions:
            X509v3 Authority Key Identifier: 
                D1:E7:53:F6:EF:9F:E6:28:7B:71:4A:F9:55:D8:5C:40:74:32:A1:FC
            X509v3 Basic Constraints: critical
                CA:FALSE
            X509v3 Extended Key Usage: 
                TLS Web Client Authentication
            X509v3 Key Usage: critical
                Digital Signature
            X509v3 Subject Key Identifier: 
                97:1E:01:B7:25:DB:73:20:B5:6F:C6:0F:6A:56:CB:51:05:B3:24:5E
            X509v3 Subject Alternative Name: 
                DNS:sample
    Signature Algorithm: sha256WithRSAEncryption
    Signature Value:
        29:d2:d2:63:78:17:d6:c0:65:d1:4c:e6:c8:2f:fe:c6:e5:4d:
        56:30:ae:a1:ab:ca:39:45:ec:18:e9:e1:21:61:4a:e1:0f:cb:
        d0:ea:58:82:55:05:17:ef:6e:7e:90:84:6f:7a:c7:9b:3b:4a:
        14:7a:25:55:5d:3e:d4:06:5d:35:dc:f3:d0:d3:67:83:b7:14:
        87:59:9e:ab:93:a3:96:e0:aa:9a:82:06:de:a2:0b:63:66:32:
        c3:f5:91:14:d1:e4:cb:f4:f5:2d:6d:a8:d4:1e:75:6d:d1:73:
        e2:a8:68:cc:21:da:6e:c1:5b:c5:aa:29:46:78:7b:b5:7f:3a:
        ef:46:9f:df:b7:bd:0d:36:9c:81:c5:6d:01:9e:95:2a:36:fa:
        3e:40:0f:24:6c:d8:5d:61:ac:fc:74:02:d8:7c:dc:65:1c:b6:
        2c:30:8c:1b:e0:f6:6d:37:27:7b:3c:d3:4d:02:e5:d7:35:f9:
        48:df:e9:13:92:cf:03:6b:9b:fb:fc:ed:52:a6:e5:dc:53:9e:
        80:8e:a7:ce:ec:ae:3d:20:ca:1e:1d:d0:c3:fa:b7:16:79:f7:
        2b:15:12:23:55:71:72:f5:c5:de:51:5e:cf:61:f7:ae:ef:a9:
        f9:50:a1:cc:79:f8:38:c0:62:56:62:79:a0:82:7a:2d:f7:66:
        41:3b:c0:e1
-----BEGIN CERTIFICATE-----
MIIDtjCCAp6gAwIBAgIQLEA8lh5Oy18/HauXmGlYqjANBgkqhkiG9w0BAQsFADAb
MRkwFwYDVQQDDBBJb3RTY2hvb2wgU3ViIENBMB4XDTIzMDUwNTExMjQ0NVoXDTI0
MDUwNDExMjQ0NVowgYYxCzAJBgNVBAYTAkRFMRAwDgYDVQQIDAdCYXZhcmlhMRMw
EQYDVQQKDApJb1QgU2Nob29sMRUwEwYDVQQLDAxQS0kgU2VydmljZXMxDzANBgNV
BAMMBnNhbXBsZTEoMCYGCSqGSIb3DQEJARYZaW90c2Nob29sQG1haWJvcm53b2xm
Zi5kZTCCASIwDQYJKoZIhvcNAQEBBQADggEPADCCAQoCggEBAOh2R0dcFN406jtU
VUq4lOr5sAsoXEbJJZ3M+YI233X5M9c2F2rJlZfAaz8XtWO+lm125JMgefXsOGHO
95SnsSTm0vaP4o+MgmVFyjeBL3IaAxzcb/nY+mSzLZN570EL16sgqH5UbeQ1dqZl
36UNr/Puu0pQ4Wm8KZGt2Kzy4XYygPmRR015t4yZewRktkIWzc6IyGm9nTa6kojs
BT39Pp3cAlLUhWVbXqmm5S0qwh2v5ZGccVMjTlrMpwE+dVqaIKmwv9DFvXXcsiSk
S5GrcOEpQ4Z9BggNJbRe6cETeVAGuNIvYFIIOTDgU9rLRW28pNDX3tsd7LbbBZsp
GKImgQsCAwEAAaOBiTCBhjAfBgNVHSMEGDAWgBTR51P275/mKHtxSvlV2FxAdDKh
/DAMBgNVHRMBAf8EAjAAMBMGA1UdJQQMMAoGCCsGAQUFBwMCMA4GA1UdDwEB/wQE
AwIHgDAdBgNVHQ4EFgQUlx4BtyXbcyC1b8YPalbLUQWzJF4wEQYDVR0RBAowCIIG
c2FtcGxlMA0GCSqGSIb3DQEBCwUAA4IBAQAp0tJjeBfWwGXRTObIL/7G5U1WMK6h
q8o5RewY6eEhYUrhD8vQ6liCVQUX725+kIRvesebO0oUeiVVXT7UBl013PPQ02eD
txSHWZ6rk6OW4KqaggbeogtjZjLD9ZEU0eTL9PUtbajUHnVt0XPiqGjMIdpuwVvF
qilGeHu1fzrvRp/ft70NNpyBxW0BnpUqNvo+QA8kbNhdYaz8dALYfNxlHLYsMIwb
4PZtNyd7PNNNAuXXNflI3+kTks8Da5v7/O1SpuXcU56AjqfO7K49IMoeHdDD+rcW
efcrFRIjVXFy9cXeUV7PYfeu76n5UKHMefg4wGJWYnmggnot92ZBO8Dh
-----END CERTIFICATE-----
