Certificate:
    Data:
        Version: 3 (0x2)
        Serial Number:
            2c:40:3c:96:1e:4e:cb:5f:3f:1d:ab:97:98:69:58:a1
        Signature Algorithm: sha256WithRSAEncryption
        Issuer: CN=IotSchool Sub CA
        Validity
            Not Before: May  5 11:24:35 2023 GMT
            Not After : May  4 11:24:35 2024 GMT
        Subject: C=DE, ST=Bavaria, O=IoT School, OU=PKI Services, CN=sample/emailAddress=iotschool@maibornwolff.de
        Subject Public Key Info:
            Public Key Algorithm: rsaEncryption
                Public-Key: (2048 bit)
                Modulus:
                    00:90:0f:d1:9b:4e:55:d0:c5:a5:21:31:bd:10:a4:
                    2b:86:aa:b7:e2:b2:1c:95:8d:46:2f:e1:51:54:a7:
                    6a:47:76:3a:8a:cd:79:46:92:fa:1a:37:96:f2:d0:
                    70:d5:f2:ad:4d:8d:f8:e0:ad:44:b2:fa:51:3c:64:
                    8d:77:bf:ad:1e:e9:c3:9f:90:2c:ae:f1:5d:19:8a:
                    37:9e:6a:5d:96:4c:8e:5f:34:bc:41:d2:a8:b4:58:
                    f5:9c:1a:5f:39:5b:f8:83:29:59:dc:e9:8b:24:b1:
                    44:de:8d:ea:d9:2e:13:66:fd:0d:15:50:9d:5a:05:
                    1e:b1:2a:c9:2c:d3:71:12:24:98:b0:6d:14:51:0a:
                    44:05:4a:6e:a3:4c:23:64:b2:45:10:ff:a9:61:28:
                    b2:76:a9:5e:8f:ea:45:84:79:c7:65:df:1f:0d:45:
                    55:72:c8:da:82:25:df:aa:e0:60:b3:00:ee:79:00:
                    fc:ae:19:fd:50:1b:e4:81:6e:76:bd:b7:2b:b5:80:
                    7e:07:2b:65:d6:72:08:dd:d2:eb:31:a0:7e:c6:a0:
                    15:51:50:fd:82:72:5a:85:27:90:e7:f9:28:bc:ce:
                    64:be:81:e2:04:4e:99:8b:6e:15:76:8c:0b:eb:21:
                    4c:7a:66:71:d0:42:de:6b:a8:31:32:08:e3:93:ce:
                    ec:27
                Exponent: 65537 (0x10001)
        X509v3 extensions:
            X509v3 Authority Key Identifier: 
                AC:D6:0C:39:4E:A1:00:ED:C1:45:39:97:6D:46:1F:E2:58:CB:7C:08
            X509v3 Basic Constraints: critical
                CA:FALSE
            X509v3 Extended Key Usage: 
                TLS Web Client Authentication
            X509v3 Key Usage: critical
                Digital Signature
            X509v3 Subject Key Identifier: 
                CB:32:7D:C4:ED:59:14:B3:A4:4D:2B:EB:C0:C1:94:0C:3E:9F:03:2C
            X509v3 Subject Alternative Name: 
                DNS:sample
    Signature Algorithm: sha256WithRSAEncryption
    Signature Value:
        53:fc:c4:99:9e:f3:35:67:60:e0:86:61:3f:72:44:a2:a3:48:
        f2:5c:33:19:46:62:cd:e2:92:99:a3:c2:62:dd:a8:a2:ac:0d:
        2f:6b:9b:38:83:60:d1:58:64:d8:f8:13:25:01:b0:99:f5:0f:
        76:50:37:b9:57:b7:1c:53:33:f2:e2:a4:fc:4d:36:94:a8:16:
        29:01:d8:0a:f8:06:43:38:f6:0f:cc:cf:c3:a1:35:69:a1:12:
        00:e9:11:94:11:82:2a:7a:10:55:20:bc:ba:c4:4c:f8:18:51:
        94:0b:f7:e3:86:20:ad:34:0c:14:37:e3:aa:0c:d1:d8:eb:b9:
        e7:59:0c:ab:fc:9d:57:8e:b5:8d:89:76:38:30:87:aa:6f:a2:
        99:13:14:5a:50:fe:14:87:b3:17:cd:29:ff:10:53:9b:08:71:
        82:93:b3:03:0e:3a:75:2d:ab:17:87:e0:7e:e1:ef:77:b5:76:
        75:9f:46:0b:06:b4:7a:c2:66:d0:56:48:ed:dd:e5:99:c3:de:
        1b:62:c2:f8:af:79:0d:9c:75:95:f1:12:ee:39:83:d1:45:6f:
        fb:3a:77:ff:52:6c:fa:62:5c:f1:3b:96:6b:60:83:4b:82:44:
        0f:31:fe:ec:9a:8d:cf:b9:8e:aa:10:aa:cf:e9:e0:57:66:10:
        0c:2a:dc:4b
-----BEGIN CERTIFICATE-----
MIIDtjCCAp6gAwIBAgIQLEA8lh5Oy18/HauXmGlYoTANBgkqhkiG9w0BAQsFADAb
MRkwFwYDVQQDDBBJb3RTY2hvb2wgU3ViIENBMB4XDTIzMDUwNTExMjQzNVoXDTI0
MDUwNDExMjQzNVowgYYxCzAJBgNVBAYTAkRFMRAwDgYDVQQIDAdCYXZhcmlhMRMw
EQYDVQQKDApJb1QgU2Nob29sMRUwEwYDVQQLDAxQS0kgU2VydmljZXMxDzANBgNV
BAMMBnNhbXBsZTEoMCYGCSqGSIb3DQEJARYZaW90c2Nob29sQG1haWJvcm53b2xm
Zi5kZTCCASIwDQYJKoZIhvcNAQEBBQADggEPADCCAQoCggEBAJAP0ZtOVdDFpSEx
vRCkK4aqt+KyHJWNRi/hUVSnakd2OorNeUaS+ho3lvLQcNXyrU2N+OCtRLL6UTxk
jXe/rR7pw5+QLK7xXRmKN55qXZZMjl80vEHSqLRY9ZwaXzlb+IMpWdzpiySxRN6N
6tkuE2b9DRVQnVoFHrEqySzTcRIkmLBtFFEKRAVKbqNMI2SyRRD/qWEosnapXo/q
RYR5x2XfHw1FVXLI2oIl36rgYLMA7nkA/K4Z/VAb5IFudr23K7WAfgcrZdZyCN3S
6zGgfsagFVFQ/YJyWoUnkOf5KLzOZL6B4gROmYtuFXaMC+shTHpmcdBC3muoMTII
45PO7CcCAwEAAaOBiTCBhjAfBgNVHSMEGDAWgBSs1gw5TqEA7cFFOZdtRh/iWMt8
CDAMBgNVHRMBAf8EAjAAMBMGA1UdJQQMMAoGCCsGAQUFBwMCMA4GA1UdDwEB/wQE
AwIHgDAdBgNVHQ4EFgQUyzJ9xO1ZFLOkTSvrwMGUDD6fAywwEQYDVR0RBAowCIIG
c2FtcGxlMA0GCSqGSIb3DQEBCwUAA4IBAQBT/MSZnvM1Z2DghmE/ckSio0jyXDMZ
RmLN4pKZo8Ji3aiirA0va5s4g2DRWGTY+BMlAbCZ9Q92UDe5V7ccUzPy4qT8TTaU
qBYpAdgK+AZDOPYPzM/DoTVpoRIA6RGUEYIqehBVILy6xEz4GFGUC/fjhiCtNAwU
N+OqDNHY67nnWQyr/J1XjrWNiXY4MIeqb6KZExRaUP4Uh7MXzSn/EFObCHGCk7MD
Djp1LasXh+B+4e93tXZ1n0YLBrR6wmbQVkjt3eWZw94bYsL4r3kNnHWV8RLuOYPR
RW/7Onf/Umz6YlzxO5ZrYINLgkQPMf7smo3PuY6qEKrP6eBXZhAMKtxL
-----END CERTIFICATE-----
