Certificate:
    Data:
        Version: 3 (0x2)
        Serial Number:
            2c:40:3c:96:1e:4e:cb:5f:3f:1d:ab:97:98:69:58:a0
        Signature Algorithm: sha256WithRSAEncryption
        Issuer: CN=IotSchool Sub CA
        Validity
            Not Before: May  5 11:24:32 2023 GMT
            Not After : May  4 11:24:32 2024 GMT
        Subject: C=DE, ST=Bavaria, O=IoT School, OU=PKI Services, CN=sample/emailAddress=iotschool@maibornwolff.de
        Subject Public Key Info:
            Public Key Algorithm: rsaEncryption
                Public-Key: (2048 bit)
                Modulus:
                    00:c6:53:86:4f:a4:dc:ac:6b:01:03:64:a7:72:61:
                    a9:de:52:9f:3a:5c:16:db:f5:f5:63:38:09:a2:c6:
                    98:27:67:c2:d2:54:3f:19:1b:a4:3e:59:a4:45:2f:
                    7a:69:7f:9f:da:9e:a0:6e:cd:05:e6:1c:47:d4:2f:
                    87:01:60:2e:b9:46:df:22:a7:49:4c:ed:67:02:6e:
                    b7:b7:39:ad:e4:e2:57:c0:65:8e:18:0f:26:23:a4:
                    38:67:e3:29:c4:fa:11:29:85:db:26:84:27:19:47:
                    d0:cf:df:d6:92:ca:b9:0d:00:60:79:45:be:ba:27:
                    65:02:1a:7b:4a:74:65:9b:54:0f:b4:a8:9d:b8:c7:
                    5e:ad:2f:c0:eb:a2:9d:dc:ea:6c:6d:94:8e:da:1c:
                    fb:0b:2e:b8:61:49:5e:8d:82:b2:8d:a6:16:cf:70:
                    31:1f:86:3b:eb:63:da:af:4b:28:a5:f5:e8:e9:ed:
                    51:aa:23:e8:6c:17:69:7b:c5:90:c7:66:c9:43:68:
                    3b:0e:a0:cf:32:d5:34:24:a3:0a:ef:d9:b9:dc:d9:
                    8e:9f:7f:fe:64:b0:ec:e2:ab:5c:f6:2e:dc:d3:e4:
                    c9:6e:80:67:51:63:a3:7c:d3:98:1d:e0:05:34:17:
                    b6:ef:2d:7e:e6:13:b3:8d:83:2c:7a:5f:00:2c:e3:
                    74:7d
                Exponent: 65537 (0x10001)
        X509v3 extensions:
            X509v3 Authority Key Identifier: 
                DF:63:E8:C5:AC:13:9F:03:B6:48:72:56:65:FD:34:26:BB:CE:27:F5
            X509v3 Basic Constraints: critical
                CA:FALSE
            X509v3 Extended Key Usage: 
                TLS Web Client Authentication
            X509v3 Key Usage: critical
                Digital Signature
            X509v3 Subject Key Identifier: 
                23:8C:27:E4:C2:1C:D9:E4:40:C9:21:04:C7:E2:78:4E:8A:AB:62:B8
            X509v3 Subject Alternative Name: 
                DNS:sample
    Signature Algorithm: sha256WithRSAEncryption
    Signature Value:
        9e:ee:f8:75:47:54:e3:05:d9:8b:21:d4:31:de:da:31:b2:f4:
        cb:72:0e:92:12:a8:9d:c5:b8:4e:30:31:c6:58:b4:0f:86:30:
        cb:30:39:3a:bf:0a:c6:19:ac:de:b7:4d:4c:9c:bd:68:c8:70:
        96:41:f9:e0:5c:fa:43:8d:32:11:cb:f9:a5:2a:82:8f:f6:53:
        d4:ca:7e:e3:5f:44:f4:a0:cb:1a:cb:6a:a1:38:33:3e:e5:d8:
        d5:3e:ae:6a:47:1e:bb:77:c4:29:eb:14:10:e6:96:02:ee:ce:
        a7:b8:20:60:db:25:67:d9:6f:d5:db:8c:0e:3b:78:6a:05:8b:
        aa:a9:d8:30:e3:40:3d:90:d0:30:9d:1d:2b:66:b5:0f:58:9c:
        fd:ad:ad:d5:e3:b3:d4:9a:2e:c5:fc:49:48:7f:10:49:d2:56:
        1d:9d:da:be:9b:86:ef:42:58:59:c3:ee:39:36:27:90:a5:25:
        09:2e:de:1c:ba:88:d3:e3:6e:ae:76:80:c0:3f:a1:07:50:3a:
        a8:6c:95:c4:d1:82:28:04:d9:d3:be:c7:81:c2:fd:97:78:0d:
        22:5a:a5:2e:21:1a:8e:48:6d:8e:8c:03:97:b8:17:3b:e2:5f:
        24:2c:da:0b:fa:48:b4:c3:54:7e:9e:d5:7d:59:cd:fa:4d:21:
        29:95:ff:fc
-----BEGIN CERTIFICATE-----
MIIDtjCCAp6gAwIBAgIQLEA8lh5Oy18/HauXmGlYoDANBgkqhkiG9w0BAQsFADAb
MRkwFwYDVQQDDBBJb3RTY2hvb2wgU3ViIENBMB4XDTIzMDUwNTExMjQzMloXDTI0
MDUwNDExMjQzMlowgYYxCzAJBgNVBAYTAkRFMRAwDgYDVQQIDAdCYXZhcmlhMRMw
EQYDVQQKDApJb1QgU2Nob29sMRUwEwYDVQQLDAxQS0kgU2VydmljZXMxDzANBgNV
BAMMBnNhbXBsZTEoMCYGCSqGSIb3DQEJARYZaW90c2Nob29sQG1haWJvcm53b2xm
Zi5kZTCCASIwDQYJKoZIhvcNAQEBBQADggEPADCCAQoCggEBAMZThk+k3KxrAQNk
p3Jhqd5SnzpcFtv19WM4CaLGmCdnwtJUPxkbpD5ZpEUveml/n9qeoG7NBeYcR9Qv
hwFgLrlG3yKnSUztZwJut7c5reTiV8BljhgPJiOkOGfjKcT6ESmF2yaEJxlH0M/f
1pLKuQ0AYHlFvronZQIae0p0ZZtUD7SonbjHXq0vwOuindzqbG2Ujtoc+wsuuGFJ
Xo2Cso2mFs9wMR+GO+tj2q9LKKX16OntUaoj6GwXaXvFkMdmyUNoOw6gzzLVNCSj
Cu/ZudzZjp9//mSw7OKrXPYu3NPkyW6AZ1Fjo3zTmB3gBTQXtu8tfuYTs42DLHpf
ACzjdH0CAwEAAaOBiTCBhjAfBgNVHSMEGDAWgBTfY+jFrBOfA7ZIclZl/TQmu84n
9TAMBgNVHRMBAf8EAjAAMBMGA1UdJQQMMAoGCCsGAQUFBwMCMA4GA1UdDwEB/wQE
AwIHgDAdBgNVHQ4EFgQUI4wn5MIc2eRAySEEx+J4ToqrYrgwEQYDVR0RBAowCIIG
c2FtcGxlMA0GCSqGSIb3DQEBCwUAA4IBAQCe7vh1R1TjBdmLIdQx3toxsvTLcg6S
EqidxbhOMDHGWLQPhjDLMDk6vwrGGazet01MnL1oyHCWQfngXPpDjTIRy/mlKoKP
9lPUyn7jX0T0oMsay2qhODM+5djVPq5qRx67d8Qp6xQQ5pYC7s6nuCBg2yVn2W/V
24wOO3hqBYuqqdgw40A9kNAwnR0rZrUPWJz9ra3V47PUmi7F/ElIfxBJ0lYdndq+
m4bvQlhZw+45NieQpSUJLt4cuojT426udoDAP6EHUDqobJXE0YIoBNnTvseBwv2X
eA0iWqUuIRqOSG2OjAOXuBc74l8kLNoL+ki0w1R+ntV9Wc36TSEplf/8
-----END CERTIFICATE-----
