Certificate:
    Data:
        Version: 3 (0x2)
        Serial Number:
            2c:40:3c:96:1e:4e:cb:5f:3f:1d:ab:97:98:69:58:a7
        Signature Algorithm: sha256WithRSAEncryption
        Issuer: CN=IotSchool Sub CA
        Validity
            Not Before: May  5 11:24:41 2023 GMT
            Not After : May  4 11:24:41 2024 GMT
        Subject: C=DE, ST=Bavaria, O=IoT School, OU=PKI Services, CN=sample/emailAddress=iotschool@maibornwolff.de
        Subject Public Key Info:
            Public Key Algorithm: rsaEncryption
                Public-Key: (2048 bit)
                Modulus:
                    00:ba:45:d9:62:9b:e8:9a:c8:c5:1f:d1:08:4c:63:
                    05:1d:c2:1a:06:5b:64:70:47:e4:bb:d0:11:7e:d2:
                    1c:f6:4c:b5:ff:75:c7:21:8a:46:fa:5a:b3:45:74:
                    3c:4f:92:57:22:26:eb:ff:e0:b4:6b:a9:f9:6e:6e:
                    17:72:92:d9:4c:a2:45:96:b4:63:b8:49:0d:f6:dd:
                    fa:52:06:09:1b:29:ee:38:ec:5e:97:02:6f:33:a2:
                    60:d4:01:af:97:74:a7:26:b9:3f:8d:8d:30:64:18:
                    a3:47:d6:c6:10:d7:40:dd:16:6a:af:98:18:6a:1c:
                    1c:e9:b6:7a:f4:cb:68:6f:6d:71:0c:50:f5:75:61:
                    04:6b:de:db:77:07:6b:53:58:6b:f0:2c:9b:2f:a2:
                    ea:51:48:cd:74:e2:31:81:38:0c:3e:e0:c0:1a:57:
                    02:b3:b8:a8:a3:77:7c:57:dc:eb:5f:32:6a:40:b6:
                    b5:9d:c6:bc:20:79:13:01:71:6a:b1:a9:31:8a:8b:
                    54:98:b7:06:04:d5:00:1f:27:58:72:e3:70:3b:5c:
                    68:1f:3a:e7:99:10:17:41:31:81:69:45:ed:c0:33:
                    a2:b9:38:52:bc:6a:65:4f:80:cf:df:79:b0:3c:5e:
                    7a:aa:52:d3:ca:7b:6b:15:a8:d4:6f:97:0f:e2:34:
                    ca:37
                Exponent: 65537 (0x10001)
        X509v3 extensions:
            X509v3 Authority Key Identifier: 
                7B:0F:03:2B:46:D0:6A:B1:DB:BC:B5:83:44:C2:23:F2:0B:4E:BF:AA
            X509v3 Basic Constraints: critical
                CA:FALSE
            X509v3 Extended Key Usage: 
                TLS Web Client Authentication
            X509v3 Key Usage: critical
                Digital Signature
            X509v3 Subject Key Identifier: 
                4E:BB:E3:ED:C1:17:E7:B1:35:B8:B1:5B:51:64:D4:F3:E3:0A:2A:CE
            X509v3 Subject Alternative Name: 
                DNS:sample
    Signature Algorithm: sha256WithRSAEncryption
    Signature Value:
        98:3c:8d:51:41:34:eb:ec:f8:7b:81:97:85:01:e5:48:aa:89:
        ed:ba:48:af:45:15:80:9d:c6:70:8f:42:89:d3:d7:66:65:e9:
        2e:7a:30:99:f8:9d:ec:05:58:17:1c:31:42:0b:d2:dc:ca:50:
        d0:b1:d6:06:0a:a4:4b:79:e3:1e:2f:51:3e:a1:fd:55:5b:b8:
        99:79:d2:78:7c:fb:46:1a:58:fb:fb:b1:8a:93:3a:e6:03:66:
        65:cc:f4:e5:7a:8c:e8:3a:49:2b:59:df:30:3e:0e:1e:ea:27:
        80:eb:83:76:5e:b4:1b:3b:04:88:05:d6:20:31:f2:5c:83:2c:
        a7:37:7d:98:b2:d9:8d:d1:c8:ad:5d:e1:8c:19:bc:c3:75:6a:
        7f:a0:d1:b5:9c:cf:6c:98:42:a1:37:d5:c6:9e:ee:45:2f:1c:
        ab:42:e7:49:40:60:b5:9d:cf:64:dc:14:2b:15:b9:37:a2:de:
        0c:af:63:71:3b:7f:d0:00:2b:b7:e6:a1:58:06:87:49:40:ba:
        b5:4b:79:1c:75:a6:98:a5:bb:f5:3d:0d:d2:53:ce:24:d9:6c:
        c3:d0:1d:f5:5a:7a:2e:89:6f:e1:fd:96:5f:99:99:7d:87:1e:
        38:85:43:4d:ba:92:7c:84:c6:fe:17:f2:d5:c7:cf:9c:5d:68:
        1c:1e:02:52
-----BEGIN CERTIFICATE-----
MIIDtjCCAp6gAwIBAgIQLEA8lh5Oy18/HauXmGlYpzANBgkqhkiG9w0BAQsFADAb
MRkwFwYDVQQDDBBJb3RTY2hvb2wgU3ViIENBMB4XDTIzMDUwNTExMjQ0MVoXDTI0
MDUwNDExMjQ0MVowgYYxCzAJBgNVBAYTAkRFMRAwDgYDVQQIDAdCYXZhcmlhMRMw
EQYDVQQKDApJb1QgU2Nob29sMRUwEwYDVQQLDAxQS0kgU2VydmljZXMxDzANBgNV
BAMMBnNhbXBsZTEoMCYGCSqGSIb3DQEJARYZaW90c2Nob29sQG1haWJvcm53b2xm
Zi5kZTCCASIwDQYJKoZIhvcNAQEBBQADggEPADCCAQoCggEBALpF2WKb6JrIxR/R
CExjBR3CGgZbZHBH5LvQEX7SHPZMtf91xyGKRvpas0V0PE+SVyIm6//gtGup+W5u
F3KS2UyiRZa0Y7hJDfbd+lIGCRsp7jjsXpcCbzOiYNQBr5d0pya5P42NMGQYo0fW
xhDXQN0Waq+YGGocHOm2evTLaG9tcQxQ9XVhBGve23cHa1NYa/Asmy+i6lFIzXTi
MYE4DD7gwBpXArO4qKN3fFfc618yakC2tZ3GvCB5EwFxarGpMYqLVJi3BgTVAB8n
WHLjcDtcaB8655kQF0ExgWlF7cAzork4UrxqZU+Az995sDxeeqpS08p7axWo1G+X
D+I0yjcCAwEAAaOBiTCBhjAfBgNVHSMEGDAWgBR7DwMrRtBqsdu8tYNEwiPyC06/
qjAMBgNVHRMBAf8EAjAAMBMGA1UdJQQMMAoGCCsGAQUFBwMCMA4GA1UdDwEB/wQE
AwIHgDAdBgNVHQ4EFgQUTrvj7cEX57E1uLFbUWTU8+MKKs4wEQYDVR0RBAowCIIG
c2FtcGxlMA0GCSqGSIb3DQEBCwUAA4IBAQCYPI1RQTTr7Ph7gZeFAeVIqontukiv
RRWAncZwj0KJ09dmZekuejCZ+J3sBVgXHDFCC9LcylDQsdYGCqRLeeMeL1E+of1V
W7iZedJ4fPtGGlj7+7GKkzrmA2ZlzPTleozoOkkrWd8wPg4e6ieA64N2XrQbOwSI
BdYgMfJcgyynN32YstmN0citXeGMGbzDdWp/oNG1nM9smEKhN9XGnu5FLxyrQudJ
QGC1nc9k3BQrFbk3ot4Mr2NxO3/QACu35qFYBodJQLq1S3kcdaaYpbv1PQ3SU84k
2WzD0B31WnouiW/h/ZZfmZl9hx44hUNNupJ8hMb+F/LVx8+cXWgcHgJS
-----END CERTIFICATE-----
