Certificate:
    Data:
        Version: 3 (0x2)
        Serial Number:
            2c:40:3c:96:1e:4e:cb:5f:3f:1d:ab:97:98:69:58:af
        Signature Algorithm: sha256WithRSAEncryption
        Issuer: CN=IotSchool Sub CA
        Validity
            Not Before: May  5 11:24:59 2023 GMT
            Not After : May  4 11:24:59 2024 GMT
        Subject: C=DE, ST=Bavaria, O=IoT School, OU=PKI Services, CN=sample/emailAddress=iotschool@maibornwolff.de
        Subject Public Key Info:
            Public Key Algorithm: rsaEncryption
                Public-Key: (2048 bit)
                Modulus:
                    00:aa:63:dc:e1:43:e7:88:7d:f3:ef:96:e8:ba:4b:
                    5a:e1:79:04:41:7b:77:d1:52:30:e5:ac:08:22:ac:
                    48:74:e1:4e:6d:68:1e:e6:04:cc:f0:7b:33:da:3c:
                    12:bc:ed:ab:b2:3a:0e:4a:61:3b:a2:c3:d2:c8:55:
                    09:80:ba:ce:fb:0b:c2:a0:a7:86:72:c9:1b:f1:33:
                    b1:98:81:63:23:e8:ed:ac:a0:57:e8:61:6d:a7:ee:
                    c5:9b:8e:0d:8f:c0:cb:58:0c:0a:28:99:37:69:ab:
                    67:08:a7:49:4e:47:79:cb:32:b5:01:19:31:0e:5b:
                    90:92:8e:4d:d7:dc:52:0a:26:9a:e1:a1:01:1a:d6:
                    09:d5:9c:b9:42:96:af:cd:7b:df:06:a8:32:f5:12:
                    6f:96:89:11:c2:e6:44:c3:9b:61:e9:f5:db:4c:6c:
                    01:f8:bc:94:4f:68:93:74:0a:8d:09:0f:18:02:4b:
                    e1:b9:09:9d:3e:49:72:4c:a5:ea:8f:17:00:e0:6b:
                    8e:82:70:38:72:f1:38:57:fa:4b:18:db:df:50:4c:
                    35:59:ee:8a:ac:71:13:65:32:60:30:58:31:2a:ec:
                    bb:42:b2:32:cc:5f:4e:35:6d:12:a4:5b:28:ac:bd:
                    68:08:72:5c:39:fc:0c:ae:9b:17:47:3e:34:5d:f0:
                    33:13
                Exponent: 65537 (0x10001)
        X509v3 extensions:
            X509v3 Authority Key Identifier: 
                5E:FD:8A:43:A8:F2:EC:C2:18:93:A2:05:6F:39:04:33:34:BB:AA:58
            X509v3 Basic Constraints: critical
                CA:FALSE
            X509v3 Extended Key Usage: 
                TLS Web Client Authentication
            X509v3 Key Usage: critical
                Digital Signature
            X509v3 Subject Key Identifier: 
                A4:7D:76:5F:3D:F9:B0:8E:5B:AD:F9:36:7E:B3:84:BC:6A:66:1F:11
            X509v3 Subject Alternative Name: 
                DNS:sample
    Signature Algorithm: sha256WithRSAEncryption
    Signature Value:
        5e:f7:5f:09:a0:89:c1:24:32:aa:4a:9d:7c:84:57:35:8b:b1:
        7c:0f:55:a1:f2:25:29:1a:84:44:5a:92:21:d8:c8:f0:a2:18:
        03:a4:d1:79:53:09:cf:ad:a1:1c:c1:c8:8d:95:66:40:8e:d5:
        ce:41:b6:37:44:e5:18:36:7d:5a:7c:af:7b:90:98:c0:11:46:
        24:af:26:df:13:b4:d0:c3:6a:17:8b:ac:53:1b:73:f7:a4:5d:
        84:06:6b:bb:b8:f3:2c:d1:b2:29:b1:21:c1:cc:43:5b:c6:4b:
        d4:76:a2:fb:39:b7:32:73:54:80:01:7f:c5:f8:91:13:b1:a7:
        f3:94:f6:b3:77:d3:a8:a0:e1:a8:0d:28:af:78:b8:a7:e0:be:
        1a:69:a6:bb:ce:af:6c:95:8b:18:af:e5:89:6b:29:fd:2c:73:
        65:51:e4:fc:02:34:d2:dd:08:56:1f:ac:7b:d1:f4:4d:88:f8:
        c2:24:c3:ac:51:2f:a4:8b:0e:c1:7d:c7:62:1c:53:fa:1a:62:
        fe:b1:26:ae:42:bf:0d:97:59:ff:51:28:94:66:19:d5:5d:33:
        5b:c5:6e:af:9f:95:5b:45:10:fe:33:43:1f:eb:82:b8:6c:05:
        36:08:44:96:5e:c4:3a:c1:98:7e:1f:e8:44:69:ef:33:59:f1:
        de:b8:d4:74
-----BEGIN CERTIFICATE-----
MIIDtjCCAp6gAwIBAgIQLEA8lh5Oy18/HauXmGlYrzANBgkqhkiG9w0BAQsFADAb
MRkwFwYDVQQDDBBJb3RTY2hvb2wgU3ViIENBMB4XDTIzMDUwNTExMjQ1OVoXDTI0
MDUwNDExMjQ1OVowgYYxCzAJBgNVBAYTAkRFMRAwDgYDVQQIDAdCYXZhcmlhMRMw
EQYDVQQKDApJb1QgU2Nob29sMRUwEwYDVQQLDAxQS0kgU2VydmljZXMxDzANBgNV
BAMMBnNhbXBsZTEoMCYGCSqGSIb3DQEJARYZaW90c2Nob29sQG1haWJvcm53b2xm
Zi5kZTCCASIwDQYJKoZIhvcNAQEBBQADggEPADCCAQoCggEBAKpj3OFD54h98++W
6LpLWuF5BEF7d9FSMOWsCCKsSHThTm1oHuYEzPB7M9o8Erztq7I6DkphO6LD0shV
CYC6zvsLwqCnhnLJG/EzsZiBYyPo7aygV+hhbafuxZuODY/Ay1gMCiiZN2mrZwin
SU5HecsytQEZMQ5bkJKOTdfcUgommuGhARrWCdWcuUKWr8173waoMvUSb5aJEcLm
RMObYen120xsAfi8lE9ok3QKjQkPGAJL4bkJnT5Jckyl6o8XAOBrjoJwOHLxOFf6
Sxjb31BMNVnuiqxxE2UyYDBYMSrsu0KyMsxfTjVtEqRbKKy9aAhyXDn8DK6bF0c+
NF3wMxMCAwEAAaOBiTCBhjAfBgNVHSMEGDAWgBRe/YpDqPLswhiTogVvOQQzNLuq
WDAMBgNVHRMBAf8EAjAAMBMGA1UdJQQMMAoGCCsGAQUFBwMCMA4GA1UdDwEB/wQE
AwIHgDAdBgNVHQ4EFgQUpH12Xz35sI5brfk2frOEvGpmHxEwEQYDVR0RBAowCIIG
c2FtcGxlMA0GCSqGSIb3DQEBCwUAA4IBAQBe918JoInBJDKqSp18hFc1i7F8D1Wh
8iUpGoREWpIh2MjwohgDpNF5UwnPraEcwciNlWZAjtXOQbY3ROUYNn1afK97kJjA
EUYkrybfE7TQw2oXi6xTG3P3pF2EBmu7uPMs0bIpsSHBzENbxkvUdqL7Obcyc1SA
AX/F+JETsafzlPazd9OooOGoDSiveLin4L4aaaa7zq9slYsYr+WJayn9LHNlUeT8
AjTS3QhWH6x70fRNiPjCJMOsUS+kiw7BfcdiHFP6GmL+sSauQr8Nl1n/USiUZhnV
XTNbxW6vn5VbRRD+M0Mf64K4bAU2CESWXsQ6wZh+H+hEae8zWfHeuNR0
-----END CERTIFICATE-----
