Certificate:
    Data:
        Version: 3 (0x2)
        Serial Number:
            2c:40:3c:96:1e:4e:cb:5f:3f:1d:ab:97:98:69:58:a8
        Signature Algorithm: sha256WithRSAEncryption
        Issuer: CN=IotSchool Sub CA
        Validity
            Not Before: May  5 11:24:42 2023 GMT
            Not After : May  4 11:24:42 2024 GMT
        Subject: C=DE, ST=Bavaria, O=IoT School, OU=PKI Services, CN=sample/emailAddress=iotschool@maibornwolff.de
        Subject Public Key Info:
            Public Key Algorithm: rsaEncryption
                Public-Key: (2048 bit)
                Modulus:
                    00:bb:9c:f5:b7:30:46:f7:90:4e:f5:0d:79:4d:c5:
                    36:b7:50:1e:74:6d:be:77:11:d0:8e:e0:fb:93:39:
                    df:41:a8:71:0b:3c:cd:d9:bf:90:64:ea:f4:8a:3b:
                    24:ad:9c:db:e2:c8:fd:b6:c0:20:86:b3:6d:f8:6c:
                    1f:b0:18:0c:36:86:ad:9c:ee:de:d6:80:7f:17:80:
                    f8:ef:ca:41:11:40:30:93:1a:8e:8b:25:0a:54:e0:
                    dd:c3:7d:5f:09:87:7a:f6:c2:ad:c9:ad:23:b2:85:
                    f3:c7:b2:09:05:67:71:15:37:d2:5b:b3:75:33:09:
                    6a:32:00:29:27:35:d3:21:c3:9a:84:8a:b7:be:29:
                    0f:d7:c8:ab:05:da:40:00:28:b4:13:4e:f9:66:f4:
                    df:5f:04:fa:88:3f:86:18:63:cb:ea:f8:e8:ba:ce:
                    d3:cb:61:4a:b0:39:c5:d1:b6:1d:8f:f3:4a:de:1d:
                    1c:16:1b:8a:5a:d8:8f:b8:b8:b3:a6:c5:d3:01:2c:
                    ad:39:f5:c7:27:b9:dd:55:d8:bd:33:73:82:61:1b:
                    21:51:76:a8:71:1c:61:36:a5:72:84:f7:f4:cb:c0:
                    e4:d8:2d:44:e7:ca:7a:74:92:aa:bc:b9:d8:db:58:
                    85:b7:6d:ff:12:3a:d6:a2:41:50:ba:e3:e6:19:70:
                    a3:0d
                Exponent: 65537 (0x10001)
        X509v3 extensions:
            X509v3 Authority Key Identifier: 
                04:F6:E2:19:B2:8C:29:FA:01:8E:F4:AC:C9:4D:98:1D:3B:75:D4:89
            X509v3 Basic Constraints: critical
                CA:FALSE
            X509v3 Extended Key Usage: 
                TLS Web Client Authentication
            X509v3 Key Usage: critical
                Digital Signature
            X509v3 Subject Key Identifier: 
                22:34:43:C9:41:48:86:EC:49:69:C7:4C:D2:43:7E:C7:16:F7:96:05
            X509v3 Subject Alternative Name: 
                DNS:sample
    Signature Algorithm: sha256WithRSAEncryption
    Signature Value:
        9e:04:e7:79:77:43:46:d6:c6:21:31:0d:11:e4:4b:4c:0c:1d:
        d4:e1:58:32:cf:77:36:60:e7:af:78:4b:68:dd:13:c5:34:3a:
        04:01:46:87:64:26:fb:83:3e:aa:12:1b:a8:46:76:64:36:ee:
        d0:68:4a:de:d1:72:79:9a:11:31:a3:b1:7b:8e:07:8f:f5:22:
        60:c2:d4:be:9b:0f:ec:83:11:d3:1e:94:bd:8a:b2:06:f7:87:
        92:c2:d4:dc:c2:d5:13:eb:56:d1:fb:b0:ae:be:20:90:40:8e:
        b5:08:bf:3d:9f:a4:67:28:64:07:7c:a1:77:80:20:2c:88:26:
        1e:3c:94:86:25:45:b7:d7:ea:f4:6c:df:1b:2c:3a:f4:32:0f:
        60:86:36:cb:bb:41:fe:f6:8a:29:4c:76:9b:eb:d4:8f:14:e8:
        d5:f2:01:ce:50:1e:2e:89:be:82:c4:55:22:1a:49:e0:64:3e:
        61:e1:ac:ae:01:17:38:cc:d7:1f:24:40:3a:42:b2:77:bd:a0:
        12:8b:6b:2e:78:76:f6:cb:1c:da:9f:b8:46:3b:55:92:54:68:
        53:b5:84:aa:65:b5:b2:3c:93:a0:1c:9f:80:ca:e1:87:62:38:
        6f:b1:85:a5:56:73:23:94:f3:6f:c4:bf:e3:53:d4:1a:44:73:
        8f:8e:51:6b
-----BEGIN CERTIFICATE-----
MIIDtjCCAp6gAwIBAgIQLEA8lh5Oy18/HauXmGlYqDANBgkqhkiG9w0BAQsFADAb
MRkwFwYDVQQDDBBJb3RTY2hvb2wgU3ViIENBMB4XDTIzMDUwNTExMjQ0MloXDTI0
MDUwNDExMjQ0MlowgYYxCzAJBgNVBAYTAkRFMRAwDgYDVQQIDAdCYXZhcmlhMRMw
EQYDVQQKDApJb1QgU2Nob29sMRUwEwYDVQQLDAxQS0kgU2VydmljZXMxDzANBgNV
BAMMBnNhbXBsZTEoMCYGCSqGSIb3DQEJARYZaW90c2Nob29sQG1haWJvcm53b2xm
Zi5kZTCCASIwDQYJKoZIhvcNAQEBBQADggEPADCCAQoCggEBALuc9bcwRveQTvUN
eU3FNrdQHnRtvncR0I7g+5M530GocQs8zdm/kGTq9Io7JK2c2+LI/bbAIIazbfhs
H7AYDDaGrZzu3taAfxeA+O/KQRFAMJMajoslClTg3cN9XwmHevbCrcmtI7KF88ey
CQVncRU30luzdTMJajIAKSc10yHDmoSKt74pD9fIqwXaQAAotBNO+Wb0318E+og/
hhhjy+r46LrO08thSrA5xdG2HY/zSt4dHBYbilrYj7i4s6bF0wEsrTn1xye53VXY
vTNzgmEbIVF2qHEcYTalcoT39MvA5NgtROfKenSSqry52NtYhbdt/xI61qJBULrj
5hlwow0CAwEAAaOBiTCBhjAfBgNVHSMEGDAWgBQE9uIZsowp+gGO9KzJTZgdO3XU
iTAMBgNVHRMBAf8EAjAAMBMGA1UdJQQMMAoGCCsGAQUFBwMCMA4GA1UdDwEB/wQE
AwIHgDAdBgNVHQ4EFgQUIjRDyUFIhuxJacdM0kN+xxb3lgUwEQYDVR0RBAowCIIG
c2FtcGxlMA0GCSqGSIb3DQEBCwUAA4IBAQCeBOd5d0NG1sYhMQ0R5EtMDB3U4Vgy
z3c2YOeveEto3RPFNDoEAUaHZCb7gz6qEhuoRnZkNu7QaEre0XJ5mhExo7F7jgeP
9SJgwtS+mw/sgxHTHpS9irIG94eSwtTcwtUT61bR+7CuviCQQI61CL89n6RnKGQH
fKF3gCAsiCYePJSGJUW31+r0bN8bLDr0Mg9ghjbLu0H+9oopTHab69SPFOjV8gHO
UB4uib6CxFUiGkngZD5h4ayuARc4zNcfJEA6QrJ3vaASi2sueHb2yxzan7hGO1WS
VGhTtYSqZbWyPJOgHJ+AyuGHYjhvsYWlVnMjlPNvxL/jU9QaRHOPjlFr
-----END CERTIFICATE-----
