Certificate:
    Data:
        Version: 3 (0x2)
        Serial Number:
            2c:40:3c:96:1e:4e:cb:5f:3f:1d:ab:97:98:69:58:b4
        Signature Algorithm: sha256WithRSAEncryption
        Issuer: CN=IotSchool Sub CA
        Validity
            Not Before: May  5 11:25:43 2023 GMT
            Not After : May  4 11:25:43 2024 GMT
        Subject: C=DE, ST=Bavaria, O=IoT School, OU=PKI Services, CN=sample/emailAddress=iotschool@maibornwolff.de
        Subject Public Key Info:
            Public Key Algorithm: rsaEncryption
                Public-Key: (2048 bit)
                Modulus:
                    00:8d:53:6e:bf:ec:f9:72:57:40:fe:fd:b7:ac:fe:
                    62:7d:a7:7d:4c:c2:90:99:bd:1c:49:72:cf:60:9c:
                    02:57:1b:09:03:c7:c0:54:c6:85:63:2b:37:6e:22:
                    e7:29:9b:37:1e:d6:95:00:f4:56:0c:6c:06:f5:9a:
                    ef:81:c2:f3:a4:6d:c5:85:35:b0:fb:10:19:f0:b1:
                    8d:83:f8:ba:8b:d7:05:1e:87:47:f2:b3:91:b4:c6:
                    fa:46:8c:d6:54:dd:d4:85:5f:ba:92:18:df:bd:44:
                    ca:10:a1:cb:90:dc:46:1f:2a:68:e6:cd:25:6a:72:
                    22:2b:46:ba:bb:dc:5f:4f:f4:e9:3e:52:83:b9:a4:
                    cd:c5:f7:24:68:5b:49:18:f0:94:d5:18:bb:b8:0b:
                    a7:ee:01:bf:24:b6:6c:78:91:81:99:55:00:c9:6f:
                    63:39:de:2e:3a:1c:87:05:80:8b:a8:5a:47:f5:36:
                    3c:16:d1:ae:cd:0b:07:13:d1:ee:52:a4:9f:ac:b7:
                    96:f9:0c:aa:c4:1f:8f:66:47:05:d7:20:11:8a:f8:
                    86:b5:29:a6:71:d9:01:37:c8:83:0b:19:1a:30:0e:
                    6b:eb:bf:38:00:fa:1e:27:12:e1:8c:2a:0b:91:4c:
                    3c:11:4e:90:d2:50:31:4b:d9:58:dc:59:dc:47:67:
                    a3:87
                Exponent: 65537 (0x10001)
        X509v3 extensions:
            X509v3 Authority Key Identifier: 
                8D:52:67:2C:7B:43:5B:C7:82:44:1F:87:5E:D5:10:13:DA:65:2A:7A
            X509v3 Basic Constraints: critical
                CA:FALSE
            X509v3 Extended Key Usage: 
                TLS Web Client Authentication
            X509v3 Key Usage: critical
                Digital Signature
            X509v3 Subject Key Identifier: 
                AE:70:70:BA:9B:41:51:00:8C:08:2D:39:51:66:9E:3F:4D:5C:2B:14
            X509v3 Subject Alternative Name: 
                DNS:sample
    Signature Algorithm: sha256WithRSAEncryption
    Signature Value:
        bd:f5:5f:45:c0:48:ca:f7:c2:c9:12:c3:bb:ba:7c:de:da:23:
        e7:70:71:de:6c:c0:3b:f2:82:e7:a6:07:3a:a8:03:87:a9:0a:
        ed:e0:63:c4:a8:5c:ac:50:40:4b:97:5c:cd:0e:c6:82:1d:eb:
        7b:b0:1e:28:e2:4b:ed:ae:8c:14:c1:bf:ee:a1:a3:17:4e:e6:
        48:71:c6:f8:ca:f3:39:31:f3:8a:18:53:fb:17:8d:a6:38:71:
        18:e4:6b:66:0b:a4:b0:ae:9e:58:17:e9:4b:e7:0a:50:93:b2:
        35:f3:50:5d:a6:56:4b:d1:1a:41:15:00:5e:4b:e1:1a:7d:13:
        fb:6c:a8:2e:11:a4:74:ad:3a:2d:10:55:ad:3d:35:59:8f:91:
        f7:f3:27:33:b1:95:f6:04:f9:1d:36:c1:1b:a0:ee:5a:06:f7:
        10:40:43:08:ec:cc:52:d4:46:90:5d:26:ef:6d:28:64:48:cf:
        ea:b9:e7:b6:6d:42:a1:f0:5f:d3:9b:30:1a:4c:06:1a:a6:fa:
        8f:1b:07:f6:e7:8b:16:4e:5c:b1:71:1b:89:05:6d:11:48:89:
        cc:ff:a3:a6:53:4a:79:9e:5d:4a:06:32:0c:c9:6c:5e:8a:67:
        46:21:c7:4e:59:a6:04:e9:46:bb:fb:22:68:d4:7d:b6:8c:cb:
        01:d1:4e:84
-----BEGIN CERTIFICATE-----
MIIDtjCCAp6gAwIBAgIQLEA8lh5Oy18/HauXmGlYtDANBgkqhkiG9w0BAQsFADAb
MRkwFwYDVQQDDBBJb3RTY2hvb2wgU3ViIENBMB4XDTIzMDUwNTExMjU0M1oXDTI0
MDUwNDExMjU0M1owgYYxCzAJBgNVBAYTAkRFMRAwDgYDVQQIDAdCYXZhcmlhMRMw
EQYDVQQKDApJb1QgU2Nob29sMRUwEwYDVQQLDAxQS0kgU2VydmljZXMxDzANBgNV
BAMMBnNhbXBsZTEoMCYGCSqGSIb3DQEJARYZaW90c2Nob29sQG1haWJvcm53b2xm
Zi5kZTCCASIwDQYJKoZIhvcNAQEBBQADggEPADCCAQoCggEBAI1Tbr/s+XJXQP79
t6z+Yn2nfUzCkJm9HElyz2CcAlcbCQPHwFTGhWMrN24i5ymbNx7WlQD0VgxsBvWa
74HC86RtxYU1sPsQGfCxjYP4uovXBR6HR/KzkbTG+kaM1lTd1IVfupIY371EyhCh
y5DcRh8qaObNJWpyIitGurvcX0/06T5Sg7mkzcX3JGhbSRjwlNUYu7gLp+4BvyS2
bHiRgZlVAMlvYzneLjochwWAi6haR/U2PBbRrs0LBxPR7lKkn6y3lvkMqsQfj2ZH
BdcgEYr4hrUppnHZATfIgwsZGjAOa+u/OAD6HicS4YwqC5FMPBFOkNJQMUvZWNxZ
3Edno4cCAwEAAaOBiTCBhjAfBgNVHSMEGDAWgBSNUmcse0Nbx4JEH4de1RAT2mUq
ejAMBgNVHRMBAf8EAjAAMBMGA1UdJQQMMAoGCCsGAQUFBwMCMA4GA1UdDwEB/wQE
AwIHgDAdBgNVHQ4EFgQUrnBwuptBUQCMCC05UWaeP01cKxQwEQYDVR0RBAowCIIG
c2FtcGxlMA0GCSqGSIb3DQEBCwUAA4IBAQC99V9FwEjK98LJEsO7unze2iPncHHe
bMA78oLnpgc6qAOHqQrt4GPEqFysUEBLl1zNDsaCHet7sB4o4kvtrowUwb/uoaMX
TuZIccb4yvM5MfOKGFP7F42mOHEY5GtmC6Swrp5YF+lL5wpQk7I181BdplZL0RpB
FQBeS+EafRP7bKguEaR0rTotEFWtPTVZj5H38yczsZX2BPkdNsEboO5aBvcQQEMI
7MxS1EaQXSbvbShkSM/quee2bUKh8F/TmzAaTAYapvqPGwf254sWTlyxcRuJBW0R
SInM/6OmU0p5nl1KBjIMyWxeimdGIcdOWaYE6Ua7+yJo1H22jMsB0U6E
-----END CERTIFICATE-----
