Certificate:
    Data:
        Version: 3 (0x2)
        Serial Number:
            2c:40:3c:96:1e:4e:cb:5f:3f:1d:ab:97:98:69:58:ac
        Signature Algorithm: sha256WithRSAEncryption
        Issuer: CN=IotSchool Sub CA
        Validity
            Not Before: May  5 11:24:48 2023 GMT
            Not After : May  4 11:24:48 2024 GMT
        Subject: C=DE, ST=Bavaria, O=IoT School, OU=PKI Services, CN=sample/emailAddress=iotschool@maibornwolff.de
        Subject Public Key Info:
            Public Key Algorithm: rsaEncryption
                Public-Key: (2048 bit)
                Modulus:
                    00:ae:7f:84:fb:9b:fd:84:93:eb:70:83:bd:b0:82:
                    e5:c2:4c:b2:46:e2:44:49:4e:b3:cb:93:28:1f:2b:
                    5e:f0:2d:3a:f3:49:12:a7:bf:1b:59:37:14:56:13:
                    c1:b1:04:c0:50:7c:d5:f5:d7:11:56:36:79:77:16:
                    79:94:b2:2c:8f:6a:2c:62:c4:1f:fd:2f:e7:0f:17:
                    52:58:b4:92:67:04:79:a0:04:22:d6:13:04:c9:e1:
                    60:5d:b8:e1:df:0a:42:85:4f:50:e7:82:d5:fd:ed:
                    21:e6:e9:c9:ac:b4:9c:5e:43:98:85:52:bb:06:e0:
                    8b:f0:6d:9c:3f:0b:98:b3:1c:7f:20:31:1c:13:99:
                    c9:7b:3c:33:41:ea:57:65:9d:84:02:a3:bb:50:72:
                    e6:84:2a:c8:db:d0:2b:01:c4:d6:02:ac:12:08:08:
                    61:cc:80:f4:56:97:37:41:0e:8f:67:07:b3:bd:38:
                    54:32:a1:79:3a:eb:a1:37:5e:7c:19:33:71:a8:bf:
                    2a:53:d3:15:cd:41:c7:5a:f4:92:7a:bf:af:f5:72:
                    05:55:d2:03:f1:48:ed:0a:e6:d3:7b:75:61:13:37:
                    43:6e:fe:b7:76:2c:a0:6b:d4:2e:f5:f1:4d:c1:82:
                    c8:5c:50:71:16:05:e8:3e:75:21:11:dd:bc:1b:28:
                    47:7b
                Exponent: 65537 (0x10001)
        X509v3 extensions:
            X509v3 Authority Key Identifier: 
                EC:59:A3:1E:DF:5C:14:81:8C:CD:00:A8:3C:EC:F0:F8:A0:B0:43:71
            X509v3 Basic Constraints: critical
                CA:FALSE
            X509v3 Extended Key Usage: 
                TLS Web Client Authentication
            X509v3 Key Usage: critical
                Digital Signature
            X509v3 Subject Key Identifier: 
                77:9E:D7:CD:17:88:58:B8:8D:0B:49:42:E7:52:85:AA:F9:C4:5C:38
            X509v3 Subject Alternative Name: 
                DNS:sample
    Signature Algorithm: sha256WithRSAEncryption
    Signature Value:
        21:6a:1e:94:9d:04:89:5f:e0:50:df:bf:00:9b:21:b8:29:61:
        23:3d:54:d6:c5:bb:d4:32:30:97:3a:98:08:2d:38:82:26:fa:
        6c:b1:9f:bc:1b:aa:25:54:16:d3:b6:2e:32:76:99:27:dd:03:
        57:28:74:e3:7e:72:a6:33:3f:84:7d:50:6d:68:c3:59:09:98:
        52:51:16:27:61:26:e0:51:cb:12:a8:eb:cf:8d:81:b4:f5:fc:
        1e:02:b8:ba:72:63:c7:f6:7a:8d:7f:19:a0:24:f8:9e:40:a9:
        eb:07:2d:66:ad:d0:92:51:35:dc:27:3b:5b:89:65:bc:27:32:
        77:59:f3:fc:5f:fb:2f:6f:a6:d1:7f:93:17:51:74:40:e2:15:
        f5:9d:b5:60:ee:68:be:bf:1f:06:02:68:22:2a:17:08:ea:d8:
        6f:e4:93:88:92:67:8e:bc:2d:e0:cb:00:22:25:33:d1:17:f3:
        49:c0:98:86:a0:f2:9d:fd:5f:89:35:18:5a:40:79:17:2d:83:
        eb:7d:60:c6:5c:db:d6:fb:af:e6:2e:fb:22:db:38:2d:f4:c1:
        75:b0:4c:75:1e:7a:7e:9c:4c:df:af:95:95:d6:9a:50:ba:f1:
        61:e6:9d:93:84:0b:f2:ba:c1:cf:68:28:5c:95:c0:7b:cf:f1:
        d6:cc:35:dd
-----BEGIN CERTIFICATE-----
MIIDtjCCAp6gAwIBAgIQLEA8lh5Oy18/HauXmGlYrDANBgkqhkiG9w0BAQsFADAb
MRkwFwYDVQQDDBBJb3RTY2hvb2wgU3ViIENBMB4XDTIzMDUwNTExMjQ0OFoXDTI0
MDUwNDExMjQ0OFowgYYxCzAJBgNVBAYTAkRFMRAwDgYDVQQIDAdCYXZhcmlhMRMw
EQYDVQQKDApJb1QgU2Nob29sMRUwEwYDVQQLDAxQS0kgU2VydmljZXMxDzANBgNV
BAMMBnNhbXBsZTEoMCYGCSqGSIb3DQEJARYZaW90c2Nob29sQG1haWJvcm53b2xm
Zi5kZTCCASIwDQYJKoZIhvcNAQEBBQADggEPADCCAQoCggEBAK5/hPub/YST63CD
vbCC5cJMskbiRElOs8uTKB8rXvAtOvNJEqe/G1k3FFYTwbEEwFB81fXXEVY2eXcW
eZSyLI9qLGLEH/0v5w8XUli0kmcEeaAEItYTBMnhYF244d8KQoVPUOeC1f3tIebp
yay0nF5DmIVSuwbgi/BtnD8LmLMcfyAxHBOZyXs8M0HqV2WdhAKju1By5oQqyNvQ
KwHE1gKsEggIYcyA9FaXN0EOj2cHs704VDKheTrroTdefBkzcai/KlPTFc1Bx1r0
knq/r/VyBVXSA/FI7Qrm03t1YRM3Q27+t3YsoGvULvXxTcGCyFxQcRYF6D51IRHd
vBsoR3sCAwEAAaOBiTCBhjAfBgNVHSMEGDAWgBTsWaMe31wUgYzNAKg87PD4oLBD
cTAMBgNVHRMBAf8EAjAAMBMGA1UdJQQMMAoGCCsGAQUFBwMCMA4GA1UdDwEB/wQE
AwIHgDAdBgNVHQ4EFgQUd57XzReIWLiNC0lC51KFqvnEXDgwEQYDVR0RBAowCIIG
c2FtcGxlMA0GCSqGSIb3DQEBCwUAA4IBAQAhah6UnQSJX+BQ378AmyG4KWEjPVTW
xbvUMjCXOpgILTiCJvpssZ+8G6olVBbTti4ydpkn3QNXKHTjfnKmMz+EfVBtaMNZ
CZhSURYnYSbgUcsSqOvPjYG09fweAri6cmPH9nqNfxmgJPieQKnrBy1mrdCSUTXc
JztbiWW8JzJ3WfP8X/svb6bRf5MXUXRA4hX1nbVg7mi+vx8GAmgiKhcI6thv5JOI
kmeOvC3gywAiJTPRF/NJwJiGoPKd/V+JNRhaQHkXLYPrfWDGXNvW+6/mLvsi2zgt
9MF1sEx1Hnp+nEzfr5WV1ppQuvFh5p2ThAvyusHPaChclcB7z/HWzDXd
-----END CERTIFICATE-----
