Certificate:
    Data:
        Version: 3 (0x2)
        Serial Number:
            2c:40:3c:96:1e:4e:cb:5f:3f:1d:ab:97:98:69:58:a4
        Signature Algorithm: sha256WithRSAEncryption
        Issuer: CN=IotSchool Sub CA
        Validity
            Not Before: May  5 11:24:38 2023 GMT
            Not After : May  4 11:24:38 2024 GMT
        Subject: C=DE, ST=Bavaria, O=IoT School, OU=PKI Services, CN=sample/emailAddress=iotschool@maibornwolff.de
        Subject Public Key Info:
            Public Key Algorithm: rsaEncryption
                Public-Key: (2048 bit)
                Modulus:
                    00:99:29:84:e7:fb:4f:2e:90:5a:80:9d:ba:46:9a:
                    94:0e:a2:41:50:c8:97:1c:a2:37:e3:16:b7:8a:e8:
                    38:80:6e:2f:7d:ac:be:26:d7:45:8e:31:26:2d:76:
                    b3:de:8d:80:4b:da:15:b1:29:70:15:0c:f2:1d:85:
                    af:a9:a4:95:75:72:81:6b:8c:fc:d2:95:cc:63:30:
                    7a:ff:7b:b3:12:c3:54:54:c9:fd:0e:f5:c8:78:0f:
                    52:6c:42:6b:0b:ba:13:85:d6:91:7c:46:76:f0:4f:
                    9a:bf:f5:8a:6c:49:d1:9d:78:7e:01:b1:51:99:e8:
                    05:db:69:98:c9:cd:be:85:3f:ba:24:58:f2:59:77:
                    b0:c6:5f:ef:69:c0:c3:59:3f:de:9d:7d:7d:eb:e2:
                    dd:18:47:74:e7:15:cb:83:95:73:71:1d:38:23:6d:
                    6c:ee:91:9e:b7:e4:65:0b:bd:71:2f:44:e1:3c:27:
                    25:20:af:f6:bd:7b:9d:73:31:42:18:15:d8:5c:e6:
                    7c:28:6e:6a:89:c5:ff:65:9a:0a:e8:cc:c7:e0:ef:
                    7a:29:20:b2:eb:61:74:08:c1:77:8e:12:fe:14:d7:
                    b4:e2:4e:c2:11:3a:91:f4:cb:5a:c8:4a:bc:b9:95:
                    d9:5b:21:bc:f7:73:69:5d:97:32:fb:c8:65:67:f8:
                    cf:81
                Exponent: 65537 (0x10001)
        X509v3 extensions:
            X509v3 Authority Key Identifier: 
                FC:81:CB:FD:37:F7:2F:F7:35:55:C8:41:45:D9:B3:7F:29:7A:61:EC
            X509v3 Basic Constraints: critical
                CA:FALSE
            X509v3 Extended Key Usage: 
                TLS Web Client Authentication
            X509v3 Key Usage: critical
                Digital Signature
            X509v3 Subject Key Identifier: 
                73:1C:AA:B5:58:F2:F4:17:E3:D3:5D:94:61:88:09:6C:B6:A2:F7:9D
            X509v3 Subject Alternative Name: 
                DNS:sample
    Signature Algorithm: sha256WithRSAEncryption
    Signature Value:
        2c:15:d1:db:f1:ef:00:50:66:c0:ba:dd:c1:75:0b:73:2d:45:
        92:af:ff:7f:35:4d:65:eb:e3:5f:7e:0b:34:4d:11:02:28:6a:
        d7:b1:ee:e6:2b:fd:1e:20:3b:b7:ff:bf:c2:59:25:2e:cd:54:
        15:ab:11:16:5e:d2:85:41:78:31:ef:1d:76:4c:d3:82:6b:c9:
        34:44:4b:34:de:be:9c:2b:69:d3:b0:b1:d4:dc:b8:bc:d4:81:
        71:c7:95:4b:04:b9:01:41:eb:c9:95:06:ac:43:20:cc:7c:d5:
        93:fa:ca:af:66:66:89:6b:bb:48:73:52:74:ec:c3:3d:43:76:
        0e:d6:85:f0:12:72:4c:f9:6c:b7:cd:4c:40:e5:18:0f:23:0d:
        32:47:51:1f:c2:4e:4b:dd:c2:eb:34:a0:8e:0c:6f:c0:28:49:
        da:46:1f:b7:96:ba:55:c9:d5:92:7b:ae:6d:ca:a9:5b:51:c7:
        d4:cf:e8:4c:b4:5b:60:77:66:2e:d8:09:de:17:8f:74:6a:ea:
        0c:d6:63:76:12:a5:b7:1b:1e:6a:ca:ae:f8:7d:d7:70:a7:9b:
        65:07:d9:ca:e3:c4:6c:b4:c7:69:16:91:20:bf:23:5f:bd:8f:
        22:eb:e9:ce:98:2f:b8:d6:98:59:83:43:09:04:e4:20:64:5e:
        f8:5e:cd:1e
-----BEGIN CERTIFICATE-----
MIIDtjCCAp6gAwIBAgIQLEA8lh5Oy18/HauXmGlYpDANBgkqhkiG9w0BAQsFADAb
MRkwFwYDVQQDDBBJb3RTY2hvb2wgU3ViIENBMB4XDTIzMDUwNTExMjQzOFoXDTI0
MDUwNDExMjQzOFowgYYxCzAJBgNVBAYTAkRFMRAwDgYDVQQIDAdCYXZhcmlhMRMw
EQYDVQQKDApJb1QgU2Nob29sMRUwEwYDVQQLDAxQS0kgU2VydmljZXMxDzANBgNV
BAMMBnNhbXBsZTEoMCYGCSqGSIb3DQEJARYZaW90c2Nob29sQG1haWJvcm53b2xm
Zi5kZTCCASIwDQYJKoZIhvcNAQEBBQADggEPADCCAQoCggEBAJkphOf7Ty6QWoCd
ukaalA6iQVDIlxyiN+MWt4roOIBuL32svibXRY4xJi12s96NgEvaFbEpcBUM8h2F
r6mklXVygWuM/NKVzGMwev97sxLDVFTJ/Q71yHgPUmxCawu6E4XWkXxGdvBPmr/1
imxJ0Z14fgGxUZnoBdtpmMnNvoU/uiRY8ll3sMZf72nAw1k/3p19fevi3RhHdOcV
y4OVc3EdOCNtbO6RnrfkZQu9cS9E4TwnJSCv9r17nXMxQhgV2FzmfChuaonF/2Wa
CujMx+DveikgsuthdAjBd44S/hTXtOJOwhE6kfTLWshKvLmV2VshvPdzaV2XMvvI
ZWf4z4ECAwEAAaOBiTCBhjAfBgNVHSMEGDAWgBT8gcv9N/cv9zVVyEFF2bN/KXph
7DAMBgNVHRMBAf8EAjAAMBMGA1UdJQQMMAoGCCsGAQUFBwMCMA4GA1UdDwEB/wQE
AwIHgDAdBgNVHQ4EFgQUcxyqtVjy9Bfj012UYYgJbLai950wEQYDVR0RBAowCIIG
c2FtcGxlMA0GCSqGSIb3DQEBCwUAA4IBAQAsFdHb8e8AUGbAut3BdQtzLUWSr/9/
NU1l6+Nffgs0TRECKGrXse7mK/0eIDu3/7/CWSUuzVQVqxEWXtKFQXgx7x12TNOC
a8k0REs03r6cK2nTsLHU3Li81IFxx5VLBLkBQevJlQasQyDMfNWT+sqvZmaJa7tI
c1J07MM9Q3YO1oXwEnJM+Wy3zUxA5RgPIw0yR1Efwk5L3cLrNKCODG/AKEnaRh+3
lrpVydWSe65tyqlbUcfUz+hMtFtgd2Yu2AneF490auoM1mN2EqW3Gx5qyq74fddw
p5tlB9nK48RstMdpFpEgvyNfvY8i6+nOmC+41phZg0MJBOQgZF74Xs0e
-----END CERTIFICATE-----
