Certificate:
    Data:
        Version: 3 (0x2)
        Serial Number:
            2c:40:3c:96:1e:4e:cb:5f:3f:1d:ab:97:98:69:58:a9
        Signature Algorithm: sha256WithRSAEncryption
        Issuer: CN=IotSchool Sub CA
        Validity
            Not Before: May  5 11:24:43 2023 GMT
            Not After : May  4 11:24:43 2024 GMT
        Subject: C=DE, ST=Bavaria, O=IoT School, OU=PKI Services, CN=sample/emailAddress=iotschool@maibornwolff.de
        Subject Public Key Info:
            Public Key Algorithm: rsaEncryption
                Public-Key: (2048 bit)
                Modulus:
                    00:d8:57:88:18:c3:76:09:ec:65:7b:aa:6a:2c:bf:
                    04:e3:11:c8:9f:bb:e9:91:7a:30:29:ba:64:2f:19:
                    b9:9e:16:4a:76:74:eb:4f:fa:9d:ab:a7:8e:e4:81:
                    81:39:b1:41:3c:af:dc:43:63:bc:8e:ff:99:b0:05:
                    c9:b7:d2:83:90:a5:1b:05:8b:26:55:30:c1:07:4a:
                    3f:0d:48:f5:6e:f6:cc:b8:d5:40:8a:67:dd:bf:83:
                    d4:17:85:b3:29:ac:f0:49:7c:5c:d3:b5:d2:5a:42:
                    a9:6f:25:3e:03:be:ac:d1:3e:a2:23:35:92:a3:1e:
                    aa:5c:5d:43:04:ab:95:41:8c:77:2a:39:ac:b5:e9:
                    3f:3f:92:b5:61:41:e2:2b:b4:e5:b9:11:1f:94:cf:
                    ea:53:be:46:4e:55:61:b4:0f:88:19:f6:ad:49:c7:
                    68:f2:10:ea:67:0a:53:e9:c7:af:a7:6d:48:8f:28:
                    00:25:08:55:eb:49:2e:20:d6:98:4f:23:a1:90:e8:
                    dc:d8:73:16:b1:0d:80:f5:7b:88:6c:85:75:d5:51:
                    c3:86:11:3d:b9:fd:fe:26:15:76:26:97:4a:a5:a8:
                    92:51:a1:33:bc:a0:03:c7:42:c7:bb:ae:34:36:c0:
                    5c:83:14:af:64:57:41:cd:f4:d5:13:05:f5:f5:55:
                    16:33
                Exponent: 65537 (0x10001)
        X509v3 extensions:
            X509v3 Authority Key Identifier: 
                AE:3E:25:DF:4B:91:C7:6C:4A:7B:82:D0:59:D1:E2:72:6C:9F:D9:E2
            X509v3 Basic Constraints: critical
                CA:FALSE
            X509v3 Extended Key Usage: 
                TLS Web Client Authentication
            X509v3 Key Usage: critical
                Digital Signature
            X509v3 Subject Key Identifier: 
                1F:2F:DE:71:60:60:8E:EC:1F:64:80:C2:E1:07:CC:13:14:5D:25:6A
            X509v3 Subject Alternative Name: 
                DNS:sample
    Signature Algorithm: sha256WithRSAEncryption
    Signature Value:
        51:47:4a:d6:a4:8b:7d:2b:f6:70:cb:d5:3f:22:1a:7e:76:70:
        b7:1f:09:d4:a3:eb:18:ae:9c:1d:c8:1e:11:4d:3d:92:df:a0:
        18:bc:1e:6e:0d:cd:34:29:86:3d:77:dd:a0:a8:88:51:37:9e:
        18:3f:93:72:b3:00:fb:09:19:ee:0d:b5:6b:9e:a1:09:f3:d9:
        37:a6:9f:2a:c8:12:af:9a:f4:63:b0:7a:d8:ff:6d:1f:6a:66:
        fc:76:94:f9:36:a2:e5:81:1b:fa:8a:6f:5f:aa:38:78:c0:1b:
        1d:97:86:15:34:52:bb:9e:73:e0:86:29:ba:ac:eb:e2:91:1d:
        6e:64:47:4f:b4:0d:b8:de:c5:52:ea:5f:f7:d8:29:c7:fd:3d:
        86:20:f9:17:e7:d2:c2:06:83:13:9c:95:7d:4b:b5:c7:12:42:
        1d:38:e1:1d:8a:d8:26:d2:f2:50:63:e7:46:14:9c:29:6d:1d:
        a3:00:cb:57:34:cc:95:f3:9f:13:8e:76:4d:5b:0e:ad:8c:d6:
        67:37:67:31:99:cd:e3:a7:41:8a:a5:46:00:be:cb:77:1f:17:
        5f:b3:aa:cb:d5:92:f6:30:55:f1:d2:43:af:c2:3d:99:3b:e6:
        03:b6:2e:e8:a3:d2:9a:df:be:55:af:df:c5:1c:53:66:59:3d:
        68:8f:bc:d2
-----BEGIN CERTIFICATE-----
MIIDtjCCAp6gAwIBAgIQLEA8lh5Oy18/HauXmGlYqTANBgkqhkiG9w0BAQsFADAb
MRkwFwYDVQQDDBBJb3RTY2hvb2wgU3ViIENBMB4XDTIzMDUwNTExMjQ0M1oXDTI0
MDUwNDExMjQ0M1owgYYxCzAJBgNVBAYTAkRFMRAwDgYDVQQIDAdCYXZhcmlhMRMw
EQYDVQQKDApJb1QgU2Nob29sMRUwEwYDVQQLDAxQS0kgU2VydmljZXMxDzANBgNV
BAMMBnNhbXBsZTEoMCYGCSqGSIb3DQEJARYZaW90c2Nob29sQG1haWJvcm53b2xm
Zi5kZTCCASIwDQYJKoZIhvcNAQEBBQADggEPADCCAQoCggEBANhXiBjDdgnsZXuq
aiy/BOMRyJ+76ZF6MCm6ZC8ZuZ4WSnZ060/6naunjuSBgTmxQTyv3ENjvI7/mbAF
ybfSg5ClGwWLJlUwwQdKPw1I9W72zLjVQIpn3b+D1BeFsyms8El8XNO10lpCqW8l
PgO+rNE+oiM1kqMeqlxdQwSrlUGMdyo5rLXpPz+StWFB4iu05bkRH5TP6lO+Rk5V
YbQPiBn2rUnHaPIQ6mcKU+nHr6dtSI8oACUIVetJLiDWmE8joZDo3NhzFrENgPV7
iGyFddVRw4YRPbn9/iYVdiaXSqWoklGhM7ygA8dCx7uuNDbAXIMUr2RXQc301RMF
9fVVFjMCAwEAAaOBiTCBhjAfBgNVHSMEGDAWgBSuPiXfS5HHbEp7gtBZ0eJybJ/Z
4jAMBgNVHRMBAf8EAjAAMBMGA1UdJQQMMAoGCCsGAQUFBwMCMA4GA1UdDwEB/wQE
AwIHgDAdBgNVHQ4EFgQUHy/ecWBgjuwfZIDC4QfMExRdJWowEQYDVR0RBAowCIIG
c2FtcGxlMA0GCSqGSIb3DQEBCwUAA4IBAQBRR0rWpIt9K/Zwy9U/Ihp+dnC3HwnU
o+sYrpwdyB4RTT2S36AYvB5uDc00KYY9d92gqIhRN54YP5NyswD7CRnuDbVrnqEJ
89k3pp8qyBKvmvRjsHrY/20famb8dpT5NqLlgRv6im9fqjh4wBsdl4YVNFK7nnPg
him6rOvikR1uZEdPtA243sVS6l/32CnH/T2GIPkX59LCBoMTnJV9S7XHEkIdOOEd
itgm0vJQY+dGFJwpbR2jAMtXNMyV858TjnZNWw6tjNZnN2cxmc3jp0GKpUYAvst3
Hxdfs6rL1ZL2MFXx0kOvwj2ZO+YDti7oo9Ka375Vr9/FHFNmWT1oj7zS
-----END CERTIFICATE-----
