Certificate:
    Data:
        Version: 3 (0x2)
        Serial Number:
            2c:40:3c:96:1e:4e:cb:5f:3f:1d:ab:97:98:69:58:b3
        Signature Algorithm: sha256WithRSAEncryption
        Issuer: CN=IotSchool Sub CA
        Validity
            Not Before: May  5 11:25:41 2023 GMT
            Not After : May  4 11:25:41 2024 GMT
        Subject: C=DE, ST=Bavaria, O=IoT School, OU=PKI Services, CN=sample/emailAddress=iotschool@maibornwolff.de
        Subject Public Key Info:
            Public Key Algorithm: rsaEncryption
                Public-Key: (2048 bit)
                Modulus:
                    00:bb:ac:f0:36:31:47:ef:9e:6d:37:17:aa:f1:b6:
                    35:f0:50:38:7c:04:b9:d9:47:0c:9a:7b:d5:76:5a:
                    7a:a4:bd:50:82:60:7b:41:52:78:08:4a:8d:e0:4a:
                    20:17:ed:fe:23:a8:fc:c3:54:6c:c0:a7:f2:0a:d2:
                    35:52:61:e6:39:82:d6:15:2f:93:48:6a:52:36:14:
                    92:b9:31:71:b3:54:4d:15:81:5b:41:d2:99:17:c5:
                    60:83:a6:ef:91:af:b4:a3:d7:53:b3:1d:07:a1:45:
                    23:f5:ee:25:8a:7b:96:e2:a3:85:fe:51:e3:37:ce:
                    0a:aa:0e:33:31:ae:65:6d:7d:1d:5e:93:a5:f4:08:
                    ce:1a:61:06:d1:e6:f2:10:19:b6:27:5a:eb:e4:8f:
                    c3:82:37:8e:b2:73:20:e8:80:91:e1:1a:44:af:d5:
                    c3:b8:fa:d0:5b:32:6b:21:40:39:a8:14:d2:93:ca:
                    7d:77:70:bf:b3:21:91:a7:b1:8f:bb:31:54:fb:4f:
                    de:f0:16:74:0d:18:1b:24:e5:d0:b2:f3:20:35:a1:
                    f7:bb:2c:42:2a:ec:d7:b0:3b:f0:17:f5:5b:15:5a:
                    6f:59:7c:3c:66:23:ad:17:96:dd:6d:5e:53:f2:c8:
                    96:96:fe:1d:17:a3:77:27:d5:50:25:47:4a:18:35:
                    c5:a7
                Exponent: 65537 (0x10001)
        X509v3 extensions:
            X509v3 Authority Key Identifier: 
                F8:8F:44:2E:89:88:3F:DF:7C:8A:43:51:3F:07:25:9B:F7:93:3B:20
            X509v3 Basic Constraints: critical
                CA:FALSE
            X509v3 Extended Key Usage: 
                TLS Web Client Authentication
            X509v3 Key Usage: critical
                Digital Signature
            X509v3 Subject Key Identifier: 
                79:E2:6A:93:72:5F:03:BF:DF:52:CE:9A:E5:BD:32:1C:81:EE:89:3E
            X509v3 Subject Alternative Name: 
                DNS:sample
    Signature Algorithm: sha256WithRSAEncryption
    Signature Value:
        49:90:64:76:e2:7e:b6:47:12:7e:e5:6d:bc:5b:88:72:0b:10:
        48:69:3e:35:81:c2:9d:46:8a:25:4c:1f:6a:67:14:f6:8c:81:
        78:ad:0f:13:d5:c0:be:14:2c:b1:18:fa:77:69:d0:a2:21:f9:
        0a:84:1e:3d:69:6a:de:62:07:4c:ba:c9:ba:4d:8b:6a:61:f8:
        52:7a:9b:40:fd:d8:5f:b4:6e:9f:ef:9d:20:de:99:82:99:0a:
        66:93:4a:3d:64:62:eb:cb:57:5b:1a:d8:31:7e:00:7f:f4:4d:
        4a:f2:0f:20:df:5a:22:d2:8f:c3:3f:f7:d4:b9:3f:af:7e:a5:
        f2:26:ef:af:42:6e:f0:6a:d0:a6:48:bb:98:b7:d9:95:f0:3f:
        07:81:74:d9:4f:1d:c2:8d:3c:ac:27:73:68:57:74:cf:e5:0a:
        36:a1:a4:a1:6a:3f:75:43:dd:76:6e:00:5c:26:6a:ac:d2:1e:
        5e:e3:e2:78:e5:da:f4:0b:80:43:7a:d1:e7:2c:a4:98:8b:73:
        02:7b:9a:6c:67:07:a9:8f:bf:e6:6c:e4:80:07:e4:c6:f0:ab:
        2c:bb:b6:ef:a3:3e:4d:a8:af:d7:d2:4a:3b:26:52:21:2b:7e:
        66:18:be:da:19:28:3b:a5:45:10:df:c1:45:85:46:9a:ea:36:
        34:54:ea:da
-----BEGIN CERTIFICATE-----
MIIDtjCCAp6gAwIBAgIQLEA8lh5Oy18/HauXmGlYszANBgkqhkiG9w0BAQsFADAb
MRkwFwYDVQQDDBBJb3RTY2hvb2wgU3ViIENBMB4XDTIzMDUwNTExMjU0MVoXDTI0
MDUwNDExMjU0MVowgYYxCzAJBgNVBAYTAkRFMRAwDgYDVQQIDAdCYXZhcmlhMRMw
EQYDVQQKDApJb1QgU2Nob29sMRUwEwYDVQQLDAxQS0kgU2VydmljZXMxDzANBgNV
BAMMBnNhbXBsZTEoMCYGCSqGSIb3DQEJARYZaW90c2Nob29sQG1haWJvcm53b2xm
Zi5kZTCCASIwDQYJKoZIhvcNAQEBBQADggEPADCCAQoCggEBALus8DYxR++ebTcX
qvG2NfBQOHwEudlHDJp71XZaeqS9UIJge0FSeAhKjeBKIBft/iOo/MNUbMCn8grS
NVJh5jmC1hUvk0hqUjYUkrkxcbNUTRWBW0HSmRfFYIOm75GvtKPXU7MdB6FFI/Xu
JYp7luKjhf5R4zfOCqoOMzGuZW19HV6TpfQIzhphBtHm8hAZtida6+SPw4I3jrJz
IOiAkeEaRK/Vw7j60FsyayFAOagU0pPKfXdwv7Mhkaexj7sxVPtP3vAWdA0YGyTl
0LLzIDWh97ssQirs17A78Bf1WxVab1l8PGYjrReW3W1eU/LIlpb+HRejdyfVUCVH
Shg1xacCAwEAAaOBiTCBhjAfBgNVHSMEGDAWgBT4j0QuiYg/33yKQ1E/ByWb95M7
IDAMBgNVHRMBAf8EAjAAMBMGA1UdJQQMMAoGCCsGAQUFBwMCMA4GA1UdDwEB/wQE
AwIHgDAdBgNVHQ4EFgQUeeJqk3JfA7/fUs6a5b0yHIHuiT4wEQYDVR0RBAowCIIG
c2FtcGxlMA0GCSqGSIb3DQEBCwUAA4IBAQBJkGR24n62RxJ+5W28W4hyCxBIaT41
gcKdRoolTB9qZxT2jIF4rQ8T1cC+FCyxGPp3adCiIfkKhB49aWreYgdMusm6TYtq
YfhSeptA/dhftG6f750g3pmCmQpmk0o9ZGLry1dbGtgxfgB/9E1K8g8g31oi0o/D
P/fUuT+vfqXyJu+vQm7watCmSLuYt9mV8D8HgXTZTx3CjTysJ3NoV3TP5Qo2oaSh
aj91Q912bgBcJmqs0h5e4+J45dr0C4BDetHnLKSYi3MCe5psZwepj7/mbOSAB+TG
8Kssu7bvoz5NqK/X0ko7JlIhK35mGL7aGSg7pUUQ38FFhUaa6jY0VOra
-----END CERTIFICATE-----
