Certificate:
    Data:
        Version: 3 (0x2)
        Serial Number:
            2c:40:3c:96:1e:4e:cb:5f:3f:1d:ab:97:98:69:58:b8
        Signature Algorithm: sha256WithRSAEncryption
        Issuer: CN=IotSchool Sub CA
        Validity
            Not Before: May  5 11:25:55 2023 GMT
            Not After : May  4 11:25:55 2024 GMT
        Subject: C=DE, ST=Bavaria, O=IoT School, OU=PKI Services, CN=sample/emailAddress=iotschool@maibornwolff.de
        Subject Public Key Info:
            Public Key Algorithm: rsaEncryption
                Public-Key: (2048 bit)
                Modulus:
                    00:cc:97:b6:85:10:73:bb:25:df:99:49:5d:38:20:
                    f1:59:66:b3:d8:f0:2c:07:e4:f5:f7:89:f6:38:e1:
                    68:55:6b:5a:2e:0e:91:0e:2f:70:da:1d:60:16:a4:
                    d7:73:dc:24:ee:ea:c4:ff:48:c4:01:ed:c0:31:43:
                    ec:38:56:8d:d7:c1:72:33:e1:6f:6b:b3:6f:d9:49:
                    a3:5a:a2:00:e8:58:c4:ab:ad:fa:96:02:39:fc:92:
                    36:cf:de:99:ca:96:ce:8c:d4:46:22:a8:21:4a:3d:
                    dd:68:b8:cb:be:53:93:e0:50:ed:04:40:c1:30:88:
                    5c:47:c7:7c:74:8a:9d:6d:ad:e6:5b:0e:d2:4f:9f:
                    5e:eb:30:5b:ab:6b:26:29:64:f5:9b:8f:40:a8:c0:
                    f7:58:50:15:e1:02:de:bb:fd:42:84:0d:55:8f:a1:
                    5f:cd:a1:96:1b:71:f1:db:b0:0c:d2:1f:4c:82:18:
                    59:6c:b1:a2:ab:17:44:c6:c1:23:a9:e7:62:c1:67:
                    70:0f:4e:6b:bb:79:ef:56:35:86:df:9a:c6:7e:22:
                    a7:78:09:f4:9d:4a:c0:27:a7:61:31:82:fc:b2:98:
                    1e:d1:df:80:76:f6:02:68:90:f0:0e:14:fa:eb:a4:
                    d2:7e:df:15:f8:7f:79:ab:a8:2c:e3:64:49:c6:20:
                    f1:39
                Exponent: 65537 (0x10001)
        X509v3 extensions:
            X509v3 Authority Key Identifier: 
                C1:22:82:05:7C:3F:71:28:5E:9E:B2:67:19:2F:BE:24:F8:C1:BF:8E
            X509v3 Basic Constraints: critical
                CA:FALSE
            X509v3 Extended Key Usage: 
                TLS Web Client Authentication
            X509v3 Key Usage: critical
                Digital Signature
            X509v3 Subject Key Identifier: 
                79:CB:9D:1D:17:B5:AE:A0:A4:00:80:C8:41:BE:0E:3E:F8:E9:0D:1D
            X509v3 Subject Alternative Name: 
                DNS:sample
    Signature Algorithm: sha256WithRSAEncryption
    Signature Value:
        7e:5e:e2:24:d0:84:c6:da:54:ba:44:9c:2b:a3:5d:99:74:c4:
        3c:85:b4:c3:85:59:6a:3e:ce:01:05:76:a8:9c:78:60:8c:30:
        16:0a:65:8f:11:10:e6:e3:27:1e:55:31:07:1b:f4:bf:af:ff:
        59:f6:27:33:14:0c:97:89:34:12:9e:18:3e:f4:9b:1b:b4:13:
        63:56:13:55:27:54:e9:c2:35:b0:99:05:0f:45:9b:a7:1c:15:
        c4:9e:62:05:5f:5c:05:40:d2:43:b9:b2:e4:73:d2:35:d5:ce:
        c8:23:0d:5c:ca:0e:d0:1a:f7:37:96:12:ae:4a:b5:be:e9:59:
        5b:c6:e8:3c:62:c9:da:b4:3a:02:fa:8c:b4:e5:08:21:74:5c:
        3f:97:7e:d8:8a:d0:7a:a9:da:72:f3:88:d3:78:10:43:45:5f:
        ab:53:d8:6a:06:65:13:3c:e6:4b:8e:a6:6f:e4:7e:c6:0f:49:
        a2:83:01:73:ec:06:d6:bf:f7:54:b6:8b:83:5a:e6:7c:0a:4a:
        9c:ee:e1:a3:e5:7f:3e:ec:9a:4a:7d:ec:d2:fe:bb:ac:6d:de:
        27:d4:5b:d6:03:46:7d:55:04:08:00:e9:aa:99:2b:4c:10:34:
        de:f9:e8:c6:59:e3:5f:03:f2:f3:ec:33:b1:d2:f0:bd:24:2f:
        43:26:ef:29
-----BEGIN CERTIFICATE-----
MIIDtjCCAp6gAwIBAgIQLEA8lh5Oy18/HauXmGlYuDANBgkqhkiG9w0BAQsFADAb
MRkwFwYDVQQDDBBJb3RTY2hvb2wgU3ViIENBMB4XDTIzMDUwNTExMjU1NVoXDTI0
MDUwNDExMjU1NVowgYYxCzAJBgNVBAYTAkRFMRAwDgYDVQQIDAdCYXZhcmlhMRMw
EQYDVQQKDApJb1QgU2Nob29sMRUwEwYDVQQLDAxQS0kgU2VydmljZXMxDzANBgNV
BAMMBnNhbXBsZTEoMCYGCSqGSIb3DQEJARYZaW90c2Nob29sQG1haWJvcm53b2xm
Zi5kZTCCASIwDQYJKoZIhvcNAQEBBQADggEPADCCAQoCggEBAMyXtoUQc7sl35lJ
XTgg8Vlms9jwLAfk9feJ9jjhaFVrWi4OkQ4vcNodYBak13PcJO7qxP9IxAHtwDFD
7DhWjdfBcjPhb2uzb9lJo1qiAOhYxKut+pYCOfySNs/emcqWzozURiKoIUo93Wi4
y75Tk+BQ7QRAwTCIXEfHfHSKnW2t5lsO0k+fXuswW6trJilk9ZuPQKjA91hQFeEC
3rv9QoQNVY+hX82hlhtx8duwDNIfTIIYWWyxoqsXRMbBI6nnYsFncA9Oa7t571Y1
ht+axn4ip3gJ9J1KwCenYTGC/LKYHtHfgHb2AmiQ8A4U+uuk0n7fFfh/eauoLONk
ScYg8TkCAwEAAaOBiTCBhjAfBgNVHSMEGDAWgBTBIoIFfD9xKF6esmcZL74k+MG/
jjAMBgNVHRMBAf8EAjAAMBMGA1UdJQQMMAoGCCsGAQUFBwMCMA4GA1UdDwEB/wQE
AwIHgDAdBgNVHQ4EFgQUecudHRe1rqCkAIDIQb4OPvjpDR0wEQYDVR0RBAowCIIG
c2FtcGxlMA0GCSqGSIb3DQEBCwUAA4IBAQB+XuIk0ITG2lS6RJwro12ZdMQ8hbTD
hVlqPs4BBXaonHhgjDAWCmWPERDm4yceVTEHG/S/r/9Z9iczFAyXiTQSnhg+9Jsb
tBNjVhNVJ1TpwjWwmQUPRZunHBXEnmIFX1wFQNJDubLkc9I11c7IIw1cyg7QGvc3
lhKuSrW+6Vlbxug8YsnatDoC+oy05QghdFw/l37YitB6qdpy84jTeBBDRV+rU9hq
BmUTPOZLjqZv5H7GD0migwFz7AbWv/dUtouDWuZ8Ckqc7uGj5X8+7JpKfezS/rus
bd4n1FvWA0Z9VQQIAOmqmStMEDTe+ejGWeNfA/Lz7DOx0vC9JC9DJu8p
-----END CERTIFICATE-----
