Certificate:
    Data:
        Version: 3 (0x2)
        Serial Number:
            2c:40:3c:96:1e:4e:cb:5f:3f:1d:ab:97:98:69:58:ba
        Signature Algorithm: sha256WithRSAEncryption
        Issuer: CN=IotSchool Sub CA
        Validity
            Not Before: May  5 11:26:01 2023 GMT
            Not After : May  4 11:26:01 2024 GMT
        Subject: C=DE, ST=Bavaria, O=IoT School, OU=PKI Services, CN=sample/emailAddress=iotschool@maibornwolff.de
        Subject Public Key Info:
            Public Key Algorithm: rsaEncryption
                Public-Key: (2048 bit)
                Modulus:
                    00:ad:32:74:2a:78:40:cf:51:ae:cf:d0:47:2b:61:
                    07:1a:05:6e:c0:b2:7a:19:6c:f8:79:bb:e0:4d:c3:
                    0a:e1:ca:5c:86:0f:92:ea:bb:0d:18:75:ac:8e:6f:
                    b4:8c:f8:41:9f:83:29:b6:1e:8b:90:8a:12:1c:13:
                    fc:27:6a:05:b8:1b:7d:fe:46:3c:99:70:72:ea:66:
                    41:29:8e:56:65:71:30:1a:5a:03:9e:ac:ef:7a:2a:
                    39:ae:2b:f6:d9:5b:f4:33:b9:08:98:55:66:75:cf:
                    ee:cd:f1:e8:d2:15:cf:bd:38:c0:c6:be:72:94:a8:
                    43:ec:31:f0:59:00:b0:bd:21:89:93:f4:07:00:bc:
                    eb:a6:63:3a:9f:19:e1:93:f3:9a:46:01:e9:2a:c6:
                    1f:7d:82:36:f0:43:e8:12:1b:4c:7c:22:a0:61:b9:
                    e4:e6:f1:3f:94:14:b8:7f:b2:29:bf:0e:eb:13:ef:
                    ec:57:34:cf:a7:66:1d:33:e2:bc:1d:d9:7f:21:08:
                    82:9b:d8:8f:c8:94:a5:5d:e6:58:04:cd:16:6a:d2:
                    9c:0e:82:93:59:60:25:19:71:f6:6c:ec:98:30:16:
                    9d:9b:05:8b:98:17:5b:18:24:56:b8:84:f7:8a:0a:
                    b6:9d:cc:89:2e:4a:44:eb:15:5d:ca:91:95:f6:0f:
                    cd:47
                Exponent: 65537 (0x10001)
        X509v3 extensions:
            X509v3 Authority Key Identifier: 
                DE:F2:6B:16:6D:A0:13:2B:86:F6:8D:DD:FE:FC:91:37:B9:FE:C9:A9
            X509v3 Basic Constraints: critical
                CA:FALSE
            X509v3 Extended Key Usage: 
                TLS Web Client Authentication
            X509v3 Key Usage: critical
                Digital Signature
            X509v3 Subject Key Identifier: 
                C6:03:59:3F:AE:C4:17:66:27:A2:33:D1:14:83:59:66:46:8B:82:D5
            X509v3 Subject Alternative Name: 
                DNS:sample
    Signature Algorithm: sha256WithRSAEncryption
    Signature Value:
        7d:fe:18:b5:9c:93:1e:28:9f:92:35:be:c8:69:6a:06:0a:12:
        61:2b:13:52:19:82:ee:f1:ef:86:ca:95:46:3a:9a:d4:76:44:
        65:6a:0c:74:16:92:de:da:55:36:0c:c8:eb:ce:73:2b:ee:99:
        61:f8:3e:22:c5:49:c0:06:20:25:be:1d:25:84:bd:89:f5:67:
        60:b2:f5:be:69:35:e0:7a:97:7f:dd:06:18:df:0c:e0:b3:85:
        f4:44:81:a6:0e:ea:f3:f4:aa:46:fb:8d:7a:0f:ba:92:55:28:
        4e:fb:cd:cc:b4:e2:ee:20:8e:96:97:5c:b2:cb:57:ef:b9:d0:
        25:85:93:9e:b6:3b:e4:92:f0:22:ff:39:52:1d:83:33:f7:17:
        9d:9f:4d:34:b0:0c:86:47:08:03:9f:6b:2a:fb:2a:58:fb:d3:
        14:a8:4e:7a:b1:c5:a7:8b:fa:ef:d7:f0:67:c5:b5:d9:b7:e7:
        47:32:6c:dd:c2:c6:db:9c:2c:17:05:30:0e:65:b5:36:b3:12:
        54:5d:fd:51:95:47:77:32:0b:10:cd:82:4f:56:92:40:a4:4e:
        03:48:7b:4e:8a:c9:9b:2a:5a:13:54:8a:0f:fa:ab:a2:89:6c:
        55:d4:32:2d:43:e7:9a:84:46:dd:d9:b4:e5:d7:e1:3f:06:6b:
        e6:ba:7f:df
-----BEGIN CERTIFICATE-----
MIIDtjCCAp6gAwIBAgIQLEA8lh5Oy18/HauXmGlYujANBgkqhkiG9w0BAQsFADAb
MRkwFwYDVQQDDBBJb3RTY2hvb2wgU3ViIENBMB4XDTIzMDUwNTExMjYwMVoXDTI0
MDUwNDExMjYwMVowgYYxCzAJBgNVBAYTAkRFMRAwDgYDVQQIDAdCYXZhcmlhMRMw
EQYDVQQKDApJb1QgU2Nob29sMRUwEwYDVQQLDAxQS0kgU2VydmljZXMxDzANBgNV
BAMMBnNhbXBsZTEoMCYGCSqGSIb3DQEJARYZaW90c2Nob29sQG1haWJvcm53b2xm
Zi5kZTCCASIwDQYJKoZIhvcNAQEBBQADggEPADCCAQoCggEBAK0ydCp4QM9Rrs/Q
RythBxoFbsCyehls+Hm74E3DCuHKXIYPkuq7DRh1rI5vtIz4QZ+DKbYei5CKEhwT
/CdqBbgbff5GPJlwcupmQSmOVmVxMBpaA56s73oqOa4r9tlb9DO5CJhVZnXP7s3x
6NIVz704wMa+cpSoQ+wx8FkAsL0hiZP0BwC866ZjOp8Z4ZPzmkYB6SrGH32CNvBD
6BIbTHwioGG55ObxP5QUuH+yKb8O6xPv7Fc0z6dmHTPivB3ZfyEIgpvYj8iUpV3m
WATNFmrSnA6Ck1lgJRlx9mzsmDAWnZsFi5gXWxgkVriE94oKtp3MiS5KROsVXcqR
lfYPzUcCAwEAAaOBiTCBhjAfBgNVHSMEGDAWgBTe8msWbaATK4b2jd3+/JE3uf7J
qTAMBgNVHRMBAf8EAjAAMBMGA1UdJQQMMAoGCCsGAQUFBwMCMA4GA1UdDwEB/wQE
AwIHgDAdBgNVHQ4EFgQUxgNZP67EF2YnojPRFINZZkaLgtUwEQYDVR0RBAowCIIG
c2FtcGxlMA0GCSqGSIb3DQEBCwUAA4IBAQB9/hi1nJMeKJ+SNb7IaWoGChJhKxNS
GYLu8e+GypVGOprUdkRlagx0FpLe2lU2DMjrznMr7plh+D4ixUnABiAlvh0lhL2J
9WdgsvW+aTXgepd/3QYY3wzgs4X0RIGmDurz9KpG+416D7qSVShO+83MtOLuII6W
l1yyy1fvudAlhZOetjvkkvAi/zlSHYMz9xedn000sAyGRwgDn2sq+ypY+9MUqE56
scWni/rv1/BnxbXZt+dHMmzdwsbbnCwXBTAOZbU2sxJUXf1RlUd3MgsQzYJPVpJA
pE4DSHtOismbKloTVIoP+quiiWxV1DItQ+eahEbd2bTl1+E/Bmvmun/f
-----END CERTIFICATE-----
