Certificate:
    Data:
        Version: 3 (0x2)
        Serial Number:
            2c:40:3c:96:1e:4e:cb:5f:3f:1d:ab:97:98:69:58:b7
        Signature Algorithm: sha256WithRSAEncryption
        Issuer: CN=IotSchool Sub CA
        Validity
            Not Before: May  5 11:25:54 2023 GMT
            Not After : May  4 11:25:54 2024 GMT
        Subject: C=DE, ST=Bavaria, O=IoT School, OU=PKI Services, CN=sample/emailAddress=iotschool@maibornwolff.de
        Subject Public Key Info:
            Public Key Algorithm: rsaEncryption
                Public-Key: (2048 bit)
                Modulus:
                    00:a8:b0:48:8f:66:52:44:0f:c9:7d:48:20:ff:e2:
                    8b:f7:78:22:5d:82:20:e1:82:18:cc:6d:9b:3e:d0:
                    ce:a0:d0:0d:ee:23:c7:bf:57:d8:4f:9b:3d:a7:4c:
                    0c:52:34:7d:6c:b1:ca:28:a5:45:00:1a:00:10:50:
                    c9:73:af:a9:de:3f:17:d1:5c:a8:cc:0b:66:a1:39:
                    17:02:d6:77:c5:93:45:21:dc:30:06:c4:c5:1b:6e:
                    79:e1:76:3d:7c:e7:0b:7e:9a:07:5c:c6:58:d0:d8:
                    02:32:e3:a1:0b:b1:3c:23:d0:f4:07:27:d6:ba:84:
                    4b:ff:49:14:e0:d7:05:82:11:ef:c4:82:85:d0:16:
                    13:a6:62:3c:e7:ff:5b:94:c3:93:77:19:c2:e8:55:
                    00:4c:84:6a:f2:1b:a1:17:ee:ac:74:38:cc:dd:1f:
                    09:85:af:be:0d:17:3c:47:28:09:be:71:70:d3:6f:
                    d9:70:bf:16:f9:92:f5:0f:af:d9:58:ba:50:34:0d:
                    53:8d:51:be:19:7a:79:2a:08:00:16:f7:ac:6b:94:
                    d8:d8:c4:e7:d4:7c:e7:33:fe:1e:52:ff:c3:3f:17:
                    97:34:b9:79:2a:ec:73:27:aa:6a:4c:97:30:d1:42:
                    c5:d2:c6:24:7f:4e:78:71:82:76:ae:d6:7f:07:d7:
                    3f:8f
                Exponent: 65537 (0x10001)
        X509v3 extensions:
            X509v3 Authority Key Identifier: 
                9E:58:44:D5:7C:27:FD:C3:90:45:42:97:3E:E1:FC:E9:1B:97:D8:D0
            X509v3 Basic Constraints: critical
                CA:FALSE
            X509v3 Extended Key Usage: 
                TLS Web Client Authentication
            X509v3 Key Usage: critical
                Digital Signature
            X509v3 Subject Key Identifier: 
                76:78:F9:5B:B1:53:E2:66:EC:C8:74:ED:3B:82:D9:75:D0:92:0E:D8
            X509v3 Subject Alternative Name: 
                DNS:sample
    Signature Algorithm: sha256WithRSAEncryption
    Signature Value:
        7c:95:7c:54:6d:7c:56:8b:e8:21:63:f3:40:bd:8e:13:e2:74:
        2c:64:ab:37:b9:d4:40:72:fa:4e:47:cd:a0:1c:53:53:0e:9e:
        14:a6:3c:38:c7:45:1f:17:cc:1e:24:52:f7:95:45:ab:44:e7:
        d4:48:5b:2c:89:9e:15:88:23:df:22:0c:2a:a4:32:1b:eb:90:
        46:ca:de:e0:32:b4:fe:ad:44:9d:a8:4c:a3:4b:ba:52:e8:22:
        f7:61:fb:1b:a2:f1:6f:7a:7f:47:bc:4b:02:d4:bb:71:1a:36:
        da:23:5a:2c:cc:67:b4:3f:c3:a9:fc:7f:0b:8c:ad:64:49:d9:
        11:cc:4d:7b:31:60:f2:3d:09:e0:3a:66:d9:54:68:1e:f9:a1:
        e8:6c:81:80:22:3e:d3:f1:9c:d4:db:74:02:ed:1c:9a:56:35:
        c8:7a:c8:52:19:2e:bc:cf:f7:d0:d1:e3:0c:58:ec:9e:37:1b:
        4a:ae:d9:72:e3:bd:74:2b:a8:05:80:50:60:6a:5d:32:e2:d5:
        a4:9e:82:bf:5d:7f:a6:3b:e0:11:f8:c5:0c:ab:c6:b8:05:5b:
        60:21:c1:d7:79:7a:fd:66:99:b4:be:f3:48:1c:77:92:73:8f:
        4f:10:77:ac:40:d8:d2:90:13:71:73:42:ce:4f:ce:41:10:ae:
        42:e4:9b:aa
-----BEGIN CERTIFICATE-----
MIIDtjCCAp6gAwIBAgIQLEA8lh5Oy18/HauXmGlYtzANBgkqhkiG9w0BAQsFADAb
MRkwFwYDVQQDDBBJb3RTY2hvb2wgU3ViIENBMB4XDTIzMDUwNTExMjU1NFoXDTI0
MDUwNDExMjU1NFowgYYxCzAJBgNVBAYTAkRFMRAwDgYDVQQIDAdCYXZhcmlhMRMw
EQYDVQQKDApJb1QgU2Nob29sMRUwEwYDVQQLDAxQS0kgU2VydmljZXMxDzANBgNV
BAMMBnNhbXBsZTEoMCYGCSqGSIb3DQEJARYZaW90c2Nob29sQG1haWJvcm53b2xm
Zi5kZTCCASIwDQYJKoZIhvcNAQEBBQADggEPADCCAQoCggEBAKiwSI9mUkQPyX1I
IP/ii/d4Il2CIOGCGMxtmz7QzqDQDe4jx79X2E+bPadMDFI0fWyxyiilRQAaABBQ
yXOvqd4/F9FcqMwLZqE5FwLWd8WTRSHcMAbExRtueeF2PXznC36aB1zGWNDYAjLj
oQuxPCPQ9Acn1rqES/9JFODXBYIR78SChdAWE6ZiPOf/W5TDk3cZwuhVAEyEavIb
oRfurHQ4zN0fCYWvvg0XPEcoCb5xcNNv2XC/FvmS9Q+v2Vi6UDQNU41Rvhl6eSoI
ABb3rGuU2NjE59R85zP+HlL/wz8XlzS5eSrscyeqakyXMNFCxdLGJH9OeHGCdq7W
fwfXP48CAwEAAaOBiTCBhjAfBgNVHSMEGDAWgBSeWETVfCf9w5BFQpc+4fzpG5fY
0DAMBgNVHRMBAf8EAjAAMBMGA1UdJQQMMAoGCCsGAQUFBwMCMA4GA1UdDwEB/wQE
AwIHgDAdBgNVHQ4EFgQUdnj5W7FT4mbsyHTtO4LZddCSDtgwEQYDVR0RBAowCIIG
c2FtcGxlMA0GCSqGSIb3DQEBCwUAA4IBAQB8lXxUbXxWi+ghY/NAvY4T4nQsZKs3
udRAcvpOR82gHFNTDp4Upjw4x0UfF8weJFL3lUWrROfUSFssiZ4ViCPfIgwqpDIb
65BGyt7gMrT+rUSdqEyjS7pS6CL3YfsbovFven9HvEsC1LtxGjbaI1oszGe0P8Op
/H8LjK1kSdkRzE17MWDyPQngOmbZVGge+aHobIGAIj7T8ZzU23QC7RyaVjXIeshS
GS68z/fQ0eMMWOyeNxtKrtly4710K6gFgFBgal0y4tWknoK/XX+mO+AR+MUMq8a4
BVtgIcHXeXr9Zpm0vvNIHHeSc49PEHesQNjSkBNxc0LOT85BEK5C5Juq
-----END CERTIFICATE-----
