Certificate:
    Data:
        Version: 3 (0x2)
        Serial Number:
            2c:40:3c:96:1e:4e:cb:5f:3f:1d:ab:97:98:69:58:ad
        Signature Algorithm: sha256WithRSAEncryption
        Issuer: CN=IotSchool Sub CA
        Validity
            Not Before: May  5 11:24:50 2023 GMT
            Not After : May  4 11:24:50 2024 GMT
        Subject: C=DE, ST=Bavaria, O=IoT School, OU=PKI Services, CN=sample/emailAddress=iotschool@maibornwolff.de
        Subject Public Key Info:
            Public Key Algorithm: rsaEncryption
                Public-Key: (2048 bit)
                Modulus:
                    00:ec:e0:c0:a4:67:71:cb:70:c0:6d:7f:44:15:90:
                    21:b7:57:1e:d6:9b:c3:6e:92:a4:1d:13:8c:9c:8c:
                    6a:fe:50:48:53:4c:8e:94:92:e2:2b:40:74:79:4b:
                    e8:94:ad:5b:17:e4:35:f3:bd:c9:6c:c5:2e:48:0b:
                    b7:11:06:ed:67:5a:e0:ed:08:8b:21:f3:91:ea:57:
                    93:b7:d2:f8:3c:72:50:91:43:32:bf:f6:2a:86:97:
                    50:68:57:c4:f1:5e:66:37:99:3c:a2:92:00:03:e3:
                    1c:55:d3:60:4e:6e:29:20:ec:c8:a3:c7:b8:a7:c0:
                    37:54:b5:8b:96:08:22:5f:f2:9a:cf:64:76:ff:1f:
                    76:ed:26:f3:fd:03:42:d7:ea:d5:f0:e8:5e:73:63:
                    83:94:67:ae:5d:28:0c:86:f0:be:4a:2c:e0:a5:25:
                    5f:5d:82:ca:56:22:ec:1d:38:06:0b:71:b7:ce:cf:
                    52:55:a7:02:de:7b:cb:18:be:63:d9:1a:fd:ec:a5:
                    77:4b:dd:d8:78:49:de:2a:20:22:14:0d:ed:c6:2e:
                    cd:36:e0:a5:63:db:8e:b1:22:b0:18:f2:bc:82:89:
                    56:d0:10:ca:81:c8:98:40:b8:40:79:0e:19:4f:bd:
                    db:0c:b1:c1:75:6f:3d:a5:7a:5f:28:c8:e4:a3:17:
                    86:45
                Exponent: 65537 (0x10001)
        X509v3 extensions:
            X509v3 Authority Key Identifier: 
                1C:1A:4C:F3:81:E9:BA:AB:08:9B:44:93:95:F5:D3:83:C1:BA:22:E8
            X509v3 Basic Constraints: critical
                CA:FALSE
            X509v3 Extended Key Usage: 
                TLS Web Client Authentication
            X509v3 Key Usage: critical
                Digital Signature
            X509v3 Subject Key Identifier: 
                1D:7A:6F:E0:7C:6E:C2:A0:30:8F:39:BA:A4:3D:4C:BB:A8:EC:6A:C9
            X509v3 Subject Alternative Name: 
                DNS:sample
    Signature Algorithm: sha256WithRSAEncryption
    Signature Value:
        68:03:51:c2:a0:cd:3f:c7:df:30:b8:e0:f8:c7:9d:4c:e5:44:
        45:df:d6:71:85:bf:85:e8:40:02:13:df:05:37:8d:3b:db:73:
        f4:a4:a4:4d:fe:fc:9b:32:3a:99:5a:c4:47:56:ce:94:07:1e:
        42:40:07:e0:7a:79:68:9a:f5:d3:e8:75:f6:44:e0:37:0a:fd:
        6a:2d:55:47:6a:ea:a0:69:06:77:4b:b9:5f:6f:71:e1:b9:d5:
        0f:7e:03:43:fb:7e:49:95:34:03:67:b8:04:b3:9c:3e:a2:9c:
        68:86:82:fa:86:d3:71:93:8a:be:1c:bf:5a:14:60:61:9b:89:
        50:f0:c6:61:56:c5:7d:5c:ba:65:69:fe:dd:38:72:9d:36:cb:
        64:74:91:58:9f:d2:5f:3c:b0:0c:9b:04:1e:23:6b:85:c6:00:
        17:ac:fa:d9:66:1a:ac:a3:84:ff:bd:c8:30:29:86:d4:53:a0:
        cb:42:f6:21:6e:70:92:df:c9:93:77:7c:88:7b:94:75:64:ce:
        ea:91:80:42:66:79:28:a5:7b:57:25:66:1a:f6:c8:37:b8:a0:
        55:68:d9:60:a8:a7:59:35:fb:d7:a9:32:59:f4:5b:20:03:dd:
        d4:9d:ad:99:2c:8e:9c:a2:2b:18:93:ba:45:98:42:4d:df:94:
        0e:e0:5b:6c
-----BEGIN CERTIFICATE-----
MIIDtjCCAp6gAwIBAgIQLEA8lh5Oy18/HauXmGlYrTANBgkqhkiG9w0BAQsFADAb
MRkwFwYDVQQDDBBJb3RTY2hvb2wgU3ViIENBMB4XDTIzMDUwNTExMjQ1MFoXDTI0
MDUwNDExMjQ1MFowgYYxCzAJBgNVBAYTAkRFMRAwDgYDVQQIDAdCYXZhcmlhMRMw
EQYDVQQKDApJb1QgU2Nob29sMRUwEwYDVQQLDAxQS0kgU2VydmljZXMxDzANBgNV
BAMMBnNhbXBsZTEoMCYGCSqGSIb3DQEJARYZaW90c2Nob29sQG1haWJvcm53b2xm
Zi5kZTCCASIwDQYJKoZIhvcNAQEBBQADggEPADCCAQoCggEBAOzgwKRncctwwG1/
RBWQIbdXHtabw26SpB0TjJyMav5QSFNMjpSS4itAdHlL6JStWxfkNfO9yWzFLkgL
txEG7Wda4O0IiyHzkepXk7fS+DxyUJFDMr/2KoaXUGhXxPFeZjeZPKKSAAPjHFXT
YE5uKSDsyKPHuKfAN1S1i5YIIl/yms9kdv8fdu0m8/0DQtfq1fDoXnNjg5Rnrl0o
DIbwvkos4KUlX12CylYi7B04Bgtxt87PUlWnAt57yxi+Y9ka/eyld0vd2HhJ3iog
IhQN7cYuzTbgpWPbjrEisBjyvIKJVtAQyoHImEC4QHkOGU+92wyxwXVvPaV6XyjI
5KMXhkUCAwEAAaOBiTCBhjAfBgNVHSMEGDAWgBQcGkzzgem6qwibRJOV9dODwboi
6DAMBgNVHRMBAf8EAjAAMBMGA1UdJQQMMAoGCCsGAQUFBwMCMA4GA1UdDwEB/wQE
AwIHgDAdBgNVHQ4EFgQUHXpv4HxuwqAwjzm6pD1Mu6jsaskwEQYDVR0RBAowCIIG
c2FtcGxlMA0GCSqGSIb3DQEBCwUAA4IBAQBoA1HCoM0/x98wuOD4x51M5URF39Zx
hb+F6EACE98FN40723P0pKRN/vybMjqZWsRHVs6UBx5CQAfgenlomvXT6HX2ROA3
Cv1qLVVHauqgaQZ3S7lfb3HhudUPfgND+35JlTQDZ7gEs5w+opxohoL6htNxk4q+
HL9aFGBhm4lQ8MZhVsV9XLplaf7dOHKdNstkdJFYn9JfPLAMmwQeI2uFxgAXrPrZ
Zhqso4T/vcgwKYbUU6DLQvYhbnCS38mTd3yIe5R1ZM7qkYBCZnkopXtXJWYa9sg3
uKBVaNlgqKdZNfvXqTJZ9FsgA93Una2ZLI6coisYk7pFmEJN35QO4Fts
-----END CERTIFICATE-----
