Certificate:
    Data:
        Version: 3 (0x2)
        Serial Number:
            2c:40:3c:96:1e:4e:cb:5f:3f:1d:ab:97:98:69:58:b2
        Signature Algorithm: sha256WithRSAEncryption
        Issuer: CN=IotSchool Sub CA
        Validity
            Not Before: May  5 11:25:34 2023 GMT
            Not After : May  4 11:25:34 2024 GMT
        Subject: C=DE, ST=Bavaria, O=IoT School, OU=PKI Services, CN=sample/emailAddress=iotschool@maibornwolff.de
        Subject Public Key Info:
            Public Key Algorithm: rsaEncryption
                Public-Key: (2048 bit)
                Modulus:
                    00:a3:1e:f0:5d:f2:14:0b:d4:c4:f8:37:8d:40:37:
                    c2:fb:03:0e:0b:09:2a:6c:73:3e:14:1d:2b:62:4c:
                    ce:57:03:ec:ff:32:04:84:ec:ec:3b:d0:5a:a8:c4:
                    d1:d6:79:3a:6c:b5:e5:4c:d0:44:52:77:3f:f0:eb:
                    a7:84:7e:ad:b2:ff:15:29:ef:3f:02:ea:68:2a:3e:
                    53:d1:52:47:3a:41:67:a4:29:e4:01:be:ed:76:73:
                    86:d6:29:76:9d:e5:47:b1:dc:b0:7c:1b:2f:72:a7:
                    a6:02:25:72:5f:fb:03:51:50:bf:7a:5c:43:6f:c6:
                    dc:99:2d:30:c8:c8:9c:de:b6:73:0c:1b:ce:48:5d:
                    3b:84:c3:43:1c:aa:42:5e:99:ae:84:2d:07:e2:39:
                    46:92:fb:a2:bd:d5:c4:14:ed:20:b0:d8:a8:7a:cf:
                    a8:a1:4e:e3:3c:72:ee:01:12:db:fd:d7:45:4a:a2:
                    c2:17:f6:44:fc:85:8d:37:30:c1:3d:20:18:65:55:
                    8a:e4:c8:ea:5a:d6:c7:42:c8:7f:b8:40:0c:87:27:
                    49:05:f1:1c:c5:df:94:ae:9d:ba:c7:29:d7:79:37:
                    97:e0:c4:86:50:3f:66:99:7c:de:83:0b:e5:3e:4b:
                    62:82:28:ed:97:06:d6:f8:cc:75:a2:2e:8d:d8:a4:
                    e0:7b
                Exponent: 65537 (0x10001)
        X509v3 extensions:
            X509v3 Authority Key Identifier: 
                12:4F:18:DE:F3:2F:A2:0E:9C:21:B9:D5:16:C1:68:94:41:1F:AD:AC
            X509v3 Basic Constraints: critical
                CA:FALSE
            X509v3 Extended Key Usage: 
                TLS Web Client Authentication
            X509v3 Key Usage: critical
                Digital Signature
            X509v3 Subject Key Identifier: 
                62:70:0F:3D:3D:05:8C:D9:61:08:59:8E:E4:2F:7F:67:A8:C4:1B:78
            X509v3 Subject Alternative Name: 
                DNS:sample
    Signature Algorithm: sha256WithRSAEncryption
    Signature Value:
        6b:f5:dd:9d:28:43:02:a4:08:d3:ff:e1:f8:30:b8:82:24:0b:
        d4:e9:f8:b1:f5:47:c9:36:2c:56:8b:27:d6:a3:df:b1:5b:e6:
        6e:01:d8:e1:91:17:d8:21:35:ed:2e:43:4d:ce:0c:63:de:b7:
        08:9e:d5:dd:9f:52:6d:5a:f2:ab:c4:53:d0:34:53:70:16:ae:
        5e:6c:d2:c1:3a:8c:25:32:0c:79:77:62:3c:fe:78:f1:e0:3d:
        39:76:b3:e1:ca:f7:57:eb:f5:c7:1c:cb:66:76:c6:31:52:90:
        46:6a:68:d9:f7:4e:ea:88:ca:a3:be:b5:9b:6f:7c:07:cc:25:
        09:29:65:d1:a7:89:84:91:63:35:f8:03:47:25:31:e2:b5:43:
        b2:46:65:b5:6a:3d:2e:21:f3:ce:83:85:b9:1b:02:c9:d0:38:
        11:41:64:20:f1:92:65:fe:b1:e9:e2:34:9c:ba:9e:e7:37:c7:
        ce:78:c7:c1:73:b9:9f:50:97:4f:26:b7:ef:27:ac:6c:38:d2:
        84:87:91:09:49:3c:7b:38:fc:e7:48:7f:a8:47:c9:c9:60:a9:
        4c:55:d4:53:2d:ec:a8:39:0c:b9:f3:08:3d:03:0e:56:a5:f1:
        07:ef:e8:d1:5e:bf:e2:ed:a7:5f:23:09:63:41:ba:ed:8d:43:
        63:ac:25:ca
-----BEGIN CERTIFICATE-----
MIIDtjCCAp6gAwIBAgIQLEA8lh5Oy18/HauXmGlYsjANBgkqhkiG9w0BAQsFADAb
MRkwFwYDVQQDDBBJb3RTY2hvb2wgU3ViIENBMB4XDTIzMDUwNTExMjUzNFoXDTI0
MDUwNDExMjUzNFowgYYxCzAJBgNVBAYTAkRFMRAwDgYDVQQIDAdCYXZhcmlhMRMw
EQYDVQQKDApJb1QgU2Nob29sMRUwEwYDVQQLDAxQS0kgU2VydmljZXMxDzANBgNV
BAMMBnNhbXBsZTEoMCYGCSqGSIb3DQEJARYZaW90c2Nob29sQG1haWJvcm53b2xm
Zi5kZTCCASIwDQYJKoZIhvcNAQEBBQADggEPADCCAQoCggEBAKMe8F3yFAvUxPg3
jUA3wvsDDgsJKmxzPhQdK2JMzlcD7P8yBITs7DvQWqjE0dZ5Omy15UzQRFJ3P/Dr
p4R+rbL/FSnvPwLqaCo+U9FSRzpBZ6Qp5AG+7XZzhtYpdp3lR7HcsHwbL3KnpgIl
cl/7A1FQv3pcQ2/G3JktMMjInN62cwwbzkhdO4TDQxyqQl6ZroQtB+I5RpL7or3V
xBTtILDYqHrPqKFO4zxy7gES2/3XRUqiwhf2RPyFjTcwwT0gGGVViuTI6lrWx0LI
f7hADIcnSQXxHMXflK6duscp13k3l+DEhlA/Zpl83oML5T5LYoIo7ZcG1vjMdaIu
jdik4HsCAwEAAaOBiTCBhjAfBgNVHSMEGDAWgBQSTxje8y+iDpwhudUWwWiUQR+t
rDAMBgNVHRMBAf8EAjAAMBMGA1UdJQQMMAoGCCsGAQUFBwMCMA4GA1UdDwEB/wQE
AwIHgDAdBgNVHQ4EFgQUYnAPPT0FjNlhCFmO5C9/Z6jEG3gwEQYDVR0RBAowCIIG
c2FtcGxlMA0GCSqGSIb3DQEBCwUAA4IBAQBr9d2dKEMCpAjT/+H4MLiCJAvU6fix
9UfJNixWiyfWo9+xW+ZuAdjhkRfYITXtLkNNzgxj3rcIntXdn1JtWvKrxFPQNFNw
Fq5ebNLBOowlMgx5d2I8/njx4D05drPhyvdX6/XHHMtmdsYxUpBGamjZ907qiMqj
vrWbb3wHzCUJKWXRp4mEkWM1+ANHJTHitUOyRmW1aj0uIfPOg4W5GwLJ0DgRQWQg
8ZJl/rHp4jScup7nN8fOeMfBc7mfUJdPJrfvJ6xsONKEh5EJSTx7OPznSH+oR8nJ
YKlMVdRTLeyoOQy58wg9Aw5WpfEH7+jRXr/i7adfIwljQbrtjUNjrCXK
-----END CERTIFICATE-----
