Certificate:
    Data:
        Version: 3 (0x2)
        Serial Number:
            2c:40:3c:96:1e:4e:cb:5f:3f:1d:ab:97:98:69:58:a2
        Signature Algorithm: sha256WithRSAEncryption
        Issuer: CN=IotSchool Sub CA
        Validity
            Not Before: May  5 11:24:36 2023 GMT
            Not After : May  4 11:24:36 2024 GMT
        Subject: C=DE, ST=Bavaria, O=IoT School, OU=PKI Services, CN=sample/emailAddress=iotschool@maibornwolff.de
        Subject Public Key Info:
            Public Key Algorithm: rsaEncryption
                Public-Key: (2048 bit)
                Modulus:
                    00:bd:ae:08:ea:25:57:da:f4:8d:8e:65:95:18:2e:
                    00:63:e3:f6:62:17:b2:a5:1e:d6:38:30:d6:3e:0e:
                    84:64:dc:c2:a3:a4:12:c6:06:89:41:48:7e:f9:70:
                    d4:d6:37:58:ec:d5:ca:3d:89:88:23:83:86:e6:ff:
                    56:19:94:ad:3e:07:bc:68:95:ba:53:c3:4a:26:76:
                    35:75:df:a1:65:be:c1:ee:dd:fd:7f:89:1e:1c:05:
                    24:4e:87:a2:94:ab:16:dd:62:4c:d5:b7:20:11:ca:
                    2e:83:42:b7:c3:36:1a:ce:77:c6:7a:93:2d:c5:7e:
                    5d:d6:6b:66:8e:a1:cc:71:a2:87:c3:ab:b1:60:6e:
                    b3:e1:ce:01:60:80:7b:2f:1f:ff:b3:d6:65:b7:94:
                    b7:39:2e:c3:90:49:5c:db:d9:d5:88:b2:52:37:59:
                    83:6d:50:96:ea:19:15:21:24:ed:fb:a0:3a:65:c5:
                    ee:63:2f:44:3c:bb:46:c5:e4:a3:3b:7f:ed:b2:da:
                    c5:2a:d2:14:99:91:56:b6:06:a0:d7:bd:23:92:ac:
                    17:f6:14:d3:67:f0:ee:6f:f8:df:e0:db:50:74:01:
                    f3:2f:22:db:b7:bd:2b:4c:ca:aa:a1:dd:48:6a:a0:
                    db:b5:34:16:7c:b9:bc:0f:6e:96:12:09:c6:28:a0:
                    c8:ad
                Exponent: 65537 (0x10001)
        X509v3 extensions:
            X509v3 Authority Key Identifier: 
                37:6E:D0:E1:19:13:F9:0C:3F:51:40:78:FF:4D:DF:F8:82:C6:AB:E3
            X509v3 Basic Constraints: critical
                CA:FALSE
            X509v3 Extended Key Usage: 
                TLS Web Client Authentication
            X509v3 Key Usage: critical
                Digital Signature
            X509v3 Subject Key Identifier: 
                ED:76:77:0C:E1:82:C7:C3:BB:F2:B5:4C:B7:01:52:26:E9:B3:DE:4A
            X509v3 Subject Alternative Name: 
                DNS:sample
    Signature Algorithm: sha256WithRSAEncryption
    Signature Value:
        aa:5d:b1:94:10:c1:e9:11:4c:52:92:26:ab:3a:4b:19:cd:2c:
        75:06:50:c9:bf:54:49:26:a1:4b:58:58:17:cf:30:19:e8:ff:
        6d:cf:42:9a:a5:22:35:f5:25:6b:2a:0c:f2:ab:58:13:b7:f0:
        38:a6:d1:8e:72:68:be:e3:86:89:34:36:f9:e3:b2:28:1b:f8:
        eb:3b:bd:00:6b:94:3d:7e:8d:ed:40:a5:3c:f6:5d:e8:9c:e7:
        9e:56:e2:a3:3b:11:68:d3:9c:14:a6:ad:80:69:af:95:2d:7e:
        e3:5e:c7:d2:7b:d9:84:bf:b2:c4:c7:83:90:f3:3a:1c:fb:9f:
        b8:e9:9c:a8:fe:77:23:8b:1b:60:a9:cc:1a:d8:cb:9a:e8:c9:
        2f:5d:e6:16:cd:c3:41:0d:a8:07:87:0b:f4:a8:b0:30:a7:b3:
        ff:55:0e:d0:b2:7a:1a:e5:cc:ae:1d:99:8c:85:82:48:17:73:
        b8:15:ff:7b:1a:bb:0f:ee:b3:3e:81:73:5d:a1:0c:7c:58:ec:
        de:5f:ab:d1:93:58:37:33:6c:a2:a0:ba:12:ef:38:8d:56:df:
        3d:65:89:12:65:a7:b7:c3:bf:99:18:ed:2a:09:72:7a:81:dc:
        52:04:ba:20:ae:bf:0c:c2:fe:b1:f1:be:c9:26:3f:e4:b5:e3:
        f4:a0:e6:1d
-----BEGIN CERTIFICATE-----
MIIDtjCCAp6gAwIBAgIQLEA8lh5Oy18/HauXmGlYojANBgkqhkiG9w0BAQsFADAb
MRkwFwYDVQQDDBBJb3RTY2hvb2wgU3ViIENBMB4XDTIzMDUwNTExMjQzNloXDTI0
MDUwNDExMjQzNlowgYYxCzAJBgNVBAYTAkRFMRAwDgYDVQQIDAdCYXZhcmlhMRMw
EQYDVQQKDApJb1QgU2Nob29sMRUwEwYDVQQLDAxQS0kgU2VydmljZXMxDzANBgNV
BAMMBnNhbXBsZTEoMCYGCSqGSIb3DQEJARYZaW90c2Nob29sQG1haWJvcm53b2xm
Zi5kZTCCASIwDQYJKoZIhvcNAQEBBQADggEPADCCAQoCggEBAL2uCOolV9r0jY5l
lRguAGPj9mIXsqUe1jgw1j4OhGTcwqOkEsYGiUFIfvlw1NY3WOzVyj2JiCODhub/
VhmUrT4HvGiVulPDSiZ2NXXfoWW+we7d/X+JHhwFJE6HopSrFt1iTNW3IBHKLoNC
t8M2Gs53xnqTLcV+XdZrZo6hzHGih8OrsWBus+HOAWCAey8f/7PWZbeUtzkuw5BJ
XNvZ1YiyUjdZg21QluoZFSEk7fugOmXF7mMvRDy7RsXkozt/7bLaxSrSFJmRVrYG
oNe9I5KsF/YU02fw7m/43+DbUHQB8y8i27e9K0zKqqHdSGqg27U0Fny5vA9ulhIJ
xiigyK0CAwEAAaOBiTCBhjAfBgNVHSMEGDAWgBQ3btDhGRP5DD9RQHj/Td/4gsar
4zAMBgNVHRMBAf8EAjAAMBMGA1UdJQQMMAoGCCsGAQUFBwMCMA4GA1UdDwEB/wQE
AwIHgDAdBgNVHQ4EFgQU7XZ3DOGCx8O78rVMtwFSJumz3kowEQYDVR0RBAowCIIG
c2FtcGxlMA0GCSqGSIb3DQEBCwUAA4IBAQCqXbGUEMHpEUxSkiarOksZzSx1BlDJ
v1RJJqFLWFgXzzAZ6P9tz0KapSI19SVrKgzyq1gTt/A4ptGOcmi+44aJNDb547Io
G/jrO70Aa5Q9fo3tQKU89l3onOeeVuKjOxFo05wUpq2Aaa+VLX7jXsfSe9mEv7LE
x4OQ8zoc+5+46Zyo/ncjixtgqcwa2Mua6MkvXeYWzcNBDagHhwv0qLAwp7P/VQ7Q
snoa5cyuHZmMhYJIF3O4Ff97GrsP7rM+gXNdoQx8WOzeX6vRk1g3M2yioLoS7ziN
Vt89ZYkSZae3w7+ZGO0qCXJ6gdxSBLogrr8Mwv6x8b7JJj/kteP0oOYd
-----END CERTIFICATE-----
