Certificate:
    Data:
        Version: 3 (0x2)
        Serial Number:
            2c:40:3c:96:1e:4e:cb:5f:3f:1d:ab:97:98:69:58:b6
        Signature Algorithm: sha256WithRSAEncryption
        Issuer: CN=IotSchool Sub CA
        Validity
            Not Before: May  5 11:25:50 2023 GMT
            Not After : May  4 11:25:50 2024 GMT
        Subject: C=DE, ST=Bavaria, O=IoT School, OU=PKI Services, CN=sample/emailAddress=iotschool@maibornwolff.de
        Subject Public Key Info:
            Public Key Algorithm: rsaEncryption
                Public-Key: (2048 bit)
                Modulus:
                    00:d0:95:c5:27:32:e4:39:db:52:e3:9c:6f:88:73:
                    ae:cd:3e:53:ef:66:7f:1d:52:23:fd:c4:28:7e:ac:
                    d0:3b:fb:25:58:4e:98:da:ed:47:bc:58:73:0c:32:
                    87:8d:99:2f:5d:7e:3a:e8:6c:7a:7f:bd:bc:15:9f:
                    5d:71:0e:00:46:1a:0d:3d:ac:35:da:9d:0b:8e:27:
                    ce:92:40:ac:cd:16:b5:06:88:29:7b:13:4b:62:9a:
                    fc:82:7f:bf:05:2f:0c:5c:7c:41:da:1f:d0:5e:bd:
                    37:aa:d8:39:d9:6a:ad:71:e4:98:cd:5e:1d:7b:58:
                    43:b6:ca:4e:24:7d:e1:c1:88:27:14:c2:24:06:be:
                    67:32:5d:ea:93:8c:c7:73:a3:db:1c:9c:db:e7:a7:
                    a8:b2:4f:1b:45:99:6e:2a:47:f3:a9:a2:02:7d:b7:
                    d6:62:20:ff:e7:55:2c:22:5d:03:cb:6f:82:e6:0e:
                    10:30:ad:32:11:ee:f8:62:5c:2d:5e:af:9b:95:2a:
                    a9:22:39:98:46:af:6a:c9:7d:b9:7e:d1:e8:04:19:
                    74:5b:f0:8a:c5:ca:da:47:2d:ad:e6:a5:70:95:ee:
                    47:6a:96:3c:9a:2f:da:73:04:a6:63:5a:63:09:54:
                    62:93:0a:0e:35:00:73:6a:b1:82:e9:3f:59:4e:d8:
                    dd:41
                Exponent: 65537 (0x10001)
        X509v3 extensions:
            X509v3 Authority Key Identifier: 
                F0:0B:BD:B0:D1:F4:09:2B:A3:FB:F8:76:78:1A:2F:06:2A:9C:B1:6C
            X509v3 Basic Constraints: critical
                CA:FALSE
            X509v3 Extended Key Usage: 
                TLS Web Client Authentication
            X509v3 Key Usage: critical
                Digital Signature
            X509v3 Subject Key Identifier: 
                8F:5C:5E:25:6A:7A:4D:2D:BD:B4:8C:AE:82:93:77:39:02:04:42:16
            X509v3 Subject Alternative Name: 
                DNS:sample
    Signature Algorithm: sha256WithRSAEncryption
    Signature Value:
        9b:6f:c6:23:1e:3c:39:ea:6c:31:7f:60:14:e6:4f:56:6f:e7:
        0a:f2:91:bd:fd:24:fd:dc:10:03:48:40:c5:88:c7:ef:9f:59:
        f7:d3:7a:83:0c:c4:92:09:bd:52:c6:d4:38:4f:7a:a7:4d:68:
        90:7b:c6:e7:66:c5:98:27:63:c1:d7:80:26:d7:72:d4:9a:f1:
        28:24:82:54:c8:43:5e:12:bd:d5:61:27:24:3f:0a:bf:9f:be:
        0f:46:43:fb:26:91:09:2c:51:35:ad:3c:a9:8e:56:12:bc:7c:
        6d:50:22:d0:40:7a:de:66:4f:e7:56:8d:df:ec:24:3b:0c:6c:
        88:b3:63:cb:34:c6:2b:26:cc:9a:90:d8:0c:ff:68:1e:06:b1:
        b5:5f:e3:05:d1:f2:8f:07:72:1a:fc:e8:17:1f:28:30:0d:26:
        72:c5:b4:24:69:f8:81:74:4c:2a:4f:4c:b5:fb:b7:9d:55:82:
        df:32:d4:a8:a0:5d:39:5c:ac:87:e8:df:96:39:30:60:56:84:
        e4:6c:5d:d6:be:c3:7e:14:d4:b7:d9:f5:10:22:2b:9c:72:f2:
        7b:b1:a4:06:fe:34:97:3f:9e:d0:74:48:38:41:4a:03:97:a5:
        ed:df:80:bd:01:87:a9:67:a5:9e:e9:04:92:67:8f:8d:0f:be:
        cc:b8:8a:3e
-----BEGIN CERTIFICATE-----
MIIDtjCCAp6gAwIBAgIQLEA8lh5Oy18/HauXmGlYtjANBgkqhkiG9w0BAQsFADAb
MRkwFwYDVQQDDBBJb3RTY2hvb2wgU3ViIENBMB4XDTIzMDUwNTExMjU1MFoXDTI0
MDUwNDExMjU1MFowgYYxCzAJBgNVBAYTAkRFMRAwDgYDVQQIDAdCYXZhcmlhMRMw
EQYDVQQKDApJb1QgU2Nob29sMRUwEwYDVQQLDAxQS0kgU2VydmljZXMxDzANBgNV
BAMMBnNhbXBsZTEoMCYGCSqGSIb3DQEJARYZaW90c2Nob29sQG1haWJvcm53b2xm
Zi5kZTCCASIwDQYJKoZIhvcNAQEBBQADggEPADCCAQoCggEBANCVxScy5DnbUuOc
b4hzrs0+U+9mfx1SI/3EKH6s0Dv7JVhOmNrtR7xYcwwyh42ZL11+Ouhsen+9vBWf
XXEOAEYaDT2sNdqdC44nzpJArM0WtQaIKXsTS2Ka/IJ/vwUvDFx8Qdof0F69N6rY
OdlqrXHkmM1eHXtYQ7bKTiR94cGIJxTCJAa+ZzJd6pOMx3Oj2xyc2+enqLJPG0WZ
bipH86miAn231mIg/+dVLCJdA8tvguYOEDCtMhHu+GJcLV6vm5UqqSI5mEavasl9
uX7R6AQZdFvwisXK2kctrealcJXuR2qWPJov2nMEpmNaYwlUYpMKDjUAc2qxguk/
WU7Y3UECAwEAAaOBiTCBhjAfBgNVHSMEGDAWgBTwC72w0fQJK6P7+HZ4Gi8GKpyx
bDAMBgNVHRMBAf8EAjAAMBMGA1UdJQQMMAoGCCsGAQUFBwMCMA4GA1UdDwEB/wQE
AwIHgDAdBgNVHQ4EFgQUj1xeJWp6TS29tIyugpN3OQIEQhYwEQYDVR0RBAowCIIG
c2FtcGxlMA0GCSqGSIb3DQEBCwUAA4IBAQCbb8YjHjw56mwxf2AU5k9Wb+cK8pG9
/ST93BADSEDFiMfvn1n303qDDMSSCb1SxtQ4T3qnTWiQe8bnZsWYJ2PB14Am13LU
mvEoJIJUyENeEr3VYSckPwq/n74PRkP7JpEJLFE1rTypjlYSvHxtUCLQQHreZk/n
Vo3f7CQ7DGyIs2PLNMYrJsyakNgM/2geBrG1X+MF0fKPB3Ia/OgXHygwDSZyxbQk
afiBdEwqT0y1+7edVYLfMtSooF05XKyH6N+WOTBgVoTkbF3WvsN+FNS32fUQIiuc
cvJ7saQG/jSXP57QdEg4QUoDl6Xt34C9AYepZ6We6QSSZ4+ND77MuIo+
-----END CERTIFICATE-----
