Certificate:
    Data:
        Version: 3 (0x2)
        Serial Number:
            2c:40:3c:96:1e:4e:cb:5f:3f:1d:ab:97:98:69:58:ab
        Signature Algorithm: sha256WithRSAEncryption
        Issuer: CN=IotSchool Sub CA
        Validity
            Not Before: May  5 11:24:46 2023 GMT
            Not After : May  4 11:24:46 2024 GMT
        Subject: C=DE, ST=Bavaria, O=IoT School, OU=PKI Services, CN=sample/emailAddress=iotschool@maibornwolff.de
        Subject Public Key Info:
            Public Key Algorithm: rsaEncryption
                Public-Key: (2048 bit)
                Modulus:
                    00:be:7b:b8:66:49:1f:f2:c1:b8:33:c1:49:a3:54:
                    ed:28:91:e8:bc:d3:9e:0a:25:c0:e1:1e:ec:11:bd:
                    54:6b:3a:ea:0d:42:b2:99:30:d5:8b:88:d5:75:5c:
                    1c:b3:35:58:09:e0:46:1b:9c:91:11:6c:9b:e1:96:
                    5d:a7:96:ff:7b:aa:f0:71:5a:ad:e3:29:4e:97:22:
                    ef:15:62:5d:b4:7a:b9:5d:ed:7e:a9:63:c4:e7:92:
                    b8:bb:a1:30:f2:06:ab:82:a0:99:bc:4b:c2:dc:e2:
                    8c:ba:1a:bd:9d:28:bf:79:f8:2b:0e:49:b2:d5:9f:
                    37:0a:79:32:89:4e:86:f8:8b:41:92:00:8a:3e:62:
                    e3:c9:c6:61:83:01:47:ba:41:7b:05:0e:d4:fa:6c:
                    00:4f:8d:7b:3e:3e:b9:b5:b6:31:40:ef:fc:b2:31:
                    c4:31:2f:e7:79:cd:d8:bc:75:0b:29:15:97:a0:3e:
                    6c:15:6e:52:67:58:34:60:8e:2a:f9:05:e8:db:69:
                    72:db:ec:ed:d1:b8:89:0a:36:56:b4:28:ac:3d:7d:
                    3a:79:da:7a:e5:3f:44:06:ef:0e:9b:ec:ec:5e:70:
                    c8:91:fe:ac:f8:8d:0b:60:6d:79:6e:df:cd:ed:b7:
                    a7:d4:16:dd:fb:f8:8e:15:be:6e:1d:db:86:8e:07:
                    bf:01
                Exponent: 65537 (0x10001)
        X509v3 extensions:
            X509v3 Authority Key Identifier: 
                78:5D:C5:F1:70:AD:1F:CD:E5:EB:F2:EB:EC:F0:71:42:30:5E:CC:3D
            X509v3 Basic Constraints: critical
                CA:FALSE
            X509v3 Extended Key Usage: 
                TLS Web Client Authentication
            X509v3 Key Usage: critical
                Digital Signature
            X509v3 Subject Key Identifier: 
                C4:F4:AC:FE:76:38:19:40:7C:4C:5B:F8:76:2D:7B:C5:51:8B:84:A5
            X509v3 Subject Alternative Name: 
                DNS:sample
    Signature Algorithm: sha256WithRSAEncryption
    Signature Value:
        09:63:9b:e9:a0:4f:0c:1c:51:ae:4b:4f:42:f6:58:ba:49:14:
        6c:9c:f3:93:5b:e3:54:3e:92:71:e3:2b:fc:65:f5:3d:17:ee:
        50:a9:17:bd:da:f8:a4:02:a7:34:5b:1c:f7:d3:19:06:62:59:
        16:31:f0:af:ef:ec:ca:a9:82:28:63:e2:65:20:57:91:dc:d7:
        8e:f3:aa:f9:92:6b:2f:90:72:f7:de:b9:55:bd:d7:a3:de:db:
        a0:d3:ae:2a:31:3c:91:93:e2:4a:21:1c:0d:f4:76:0d:a0:f1:
        e2:e8:32:37:72:1b:b5:84:26:29:65:c5:e6:f8:48:d7:d0:bc:
        c9:5c:93:c4:e3:71:67:96:a3:c5:ee:7d:37:d8:5c:26:a8:fd:
        30:7f:35:91:08:4c:98:1d:a9:8d:cd:f2:d3:5f:9d:6f:5a:28:
        f5:a3:70:98:5c:34:13:ed:88:a0:24:f3:b4:fc:24:be:f1:f1:
        e0:97:01:08:32:49:3a:65:74:be:f5:58:a8:f5:8e:5e:cd:68:
        cf:59:d2:7a:ed:96:35:9a:1d:1e:cb:2f:5c:ec:6d:cc:55:aa:
        f7:cd:1a:82:14:ba:0a:ec:4d:06:04:7a:28:bf:85:45:ee:d3:
        10:bc:42:7b:63:74:04:95:9f:47:96:79:51:db:5b:f1:79:2d:
        78:79:53:fd
-----BEGIN CERTIFICATE-----
MIIDtjCCAp6gAwIBAgIQLEA8lh5Oy18/HauXmGlYqzANBgkqhkiG9w0BAQsFADAb
MRkwFwYDVQQDDBBJb3RTY2hvb2wgU3ViIENBMB4XDTIzMDUwNTExMjQ0NloXDTI0
MDUwNDExMjQ0NlowgYYxCzAJBgNVBAYTAkRFMRAwDgYDVQQIDAdCYXZhcmlhMRMw
EQYDVQQKDApJb1QgU2Nob29sMRUwEwYDVQQLDAxQS0kgU2VydmljZXMxDzANBgNV
BAMMBnNhbXBsZTEoMCYGCSqGSIb3DQEJARYZaW90c2Nob29sQG1haWJvcm53b2xm
Zi5kZTCCASIwDQYJKoZIhvcNAQEBBQADggEPADCCAQoCggEBAL57uGZJH/LBuDPB
SaNU7SiR6LzTngolwOEe7BG9VGs66g1Cspkw1YuI1XVcHLM1WAngRhuckRFsm+GW
XaeW/3uq8HFareMpTpci7xViXbR6uV3tfqljxOeSuLuhMPIGq4KgmbxLwtzijLoa
vZ0ov3n4Kw5JstWfNwp5MolOhviLQZIAij5i48nGYYMBR7pBewUO1PpsAE+Nez4+
ubW2MUDv/LIxxDEv53nN2Lx1CykVl6A+bBVuUmdYNGCOKvkF6Ntpctvs7dG4iQo2
VrQorD19OnnaeuU/RAbvDpvs7F5wyJH+rPiNC2BteW7fze23p9QW3fv4jhW+bh3b
ho4HvwECAwEAAaOBiTCBhjAfBgNVHSMEGDAWgBR4XcXxcK0fzeXr8uvs8HFCMF7M
PTAMBgNVHRMBAf8EAjAAMBMGA1UdJQQMMAoGCCsGAQUFBwMCMA4GA1UdDwEB/wQE
AwIHgDAdBgNVHQ4EFgQUxPSs/nY4GUB8TFv4di17xVGLhKUwEQYDVR0RBAowCIIG
c2FtcGxlMA0GCSqGSIb3DQEBCwUAA4IBAQAJY5vpoE8MHFGuS09C9li6SRRsnPOT
W+NUPpJx4yv8ZfU9F+5QqRe92vikAqc0Wxz30xkGYlkWMfCv7+zKqYIoY+JlIFeR
3NeO86r5kmsvkHL33rlVvdej3tug064qMTyRk+JKIRwN9HYNoPHi6DI3chu1hCYp
ZcXm+EjX0LzJXJPE43FnlqPF7n032FwmqP0wfzWRCEyYHamNzfLTX51vWij1o3CY
XDQT7YigJPO0/CS+8fHglwEIMkk6ZXS+9Vio9Y5ezWjPWdJ67ZY1mh0eyy9c7G3M
Var3zRqCFLoK7E0GBHoov4VF7tMQvEJ7Y3QElZ9HlnlR21vxeS14eVP9
-----END CERTIFICATE-----
