Certificate:
    Data:
        Version: 3 (0x2)
        Serial Number:
            2c:40:3c:96:1e:4e:cb:5f:3f:1d:ab:97:98:69:58:a3
        Signature Algorithm: sha256WithRSAEncryption
        Issuer: CN=IotSchool Sub CA
        Validity
            Not Before: May  5 11:24:37 2023 GMT
            Not After : May  4 11:24:37 2024 GMT
        Subject: C=DE, ST=Bavaria, O=IoT School, OU=PKI Services, CN=sample/emailAddress=iotschool@maibornwolff.de
        Subject Public Key Info:
            Public Key Algorithm: rsaEncryption
                Public-Key: (2048 bit)
                Modulus:
                    00:c3:af:60:77:8e:45:c7:40:0a:e6:19:9f:62:3e:
                    09:74:3b:10:64:2a:b0:73:31:18:c4:e8:db:a7:50:
                    ec:c7:5e:6c:81:40:55:20:f0:7e:43:be:b8:f8:7e:
                    ab:34:16:82:c3:88:49:73:78:a4:a4:0e:81:9f:ed:
                    6b:b9:e3:59:de:cf:af:c7:88:31:8f:8b:4c:90:61:
                    6b:26:c0:05:45:ce:0f:0e:e6:80:d2:96:bc:e6:be:
                    21:87:4d:58:a3:bc:de:d7:6e:5f:bf:db:3c:bb:b2:
                    67:62:c9:9c:cb:42:15:41:82:c4:66:51:0a:2e:d6:
                    1a:fb:7a:3e:75:24:26:04:7a:80:e1:c3:e6:1f:f7:
                    f2:0b:cd:d0:94:17:a7:21:01:c6:87:57:d6:be:55:
                    cb:13:3b:7d:fc:b0:fc:ab:28:1c:42:93:58:df:f9:
                    c8:dd:3c:15:cb:60:a3:80:27:de:8f:59:df:3a:3f:
                    48:62:5c:5a:57:2d:4e:b7:1f:76:6d:43:ba:0e:84:
                    6a:a0:f5:60:9f:d0:bc:b6:10:00:f1:1d:b3:36:2a:
                    f8:be:53:5a:0f:66:11:5d:97:e6:03:59:04:5c:00:
                    21:dd:80:d6:27:f8:de:10:13:b8:ba:0a:26:5f:4c:
                    6c:4f:15:52:1c:9a:49:17:fa:e8:fe:50:6b:67:19:
                    ae:c9
                Exponent: 65537 (0x10001)
        X509v3 extensions:
            X509v3 Authority Key Identifier: 
                45:0B:5B:B6:9B:A2:81:4B:E8:AE:C3:D0:DC:3C:01:0B:8F:35:B0:56
            X509v3 Basic Constraints: critical
                CA:FALSE
            X509v3 Extended Key Usage: 
                TLS Web Client Authentication
            X509v3 Key Usage: critical
                Digital Signature
            X509v3 Subject Key Identifier: 
                C0:73:EF:E2:7B:55:1A:63:E1:B3:B1:AD:27:9D:61:A2:DF:1D:F0:13
            X509v3 Subject Alternative Name: 
                DNS:sample
    Signature Algorithm: sha256WithRSAEncryption
    Signature Value:
        79:7e:34:39:bf:81:82:35:d0:65:e1:bf:ae:4b:52:ee:72:01:
        17:6b:f0:79:7c:24:e9:57:57:f1:7d:5f:6f:7b:b3:c8:e8:9f:
        9b:76:b9:c4:13:cf:18:c3:91:73:65:a8:1c:2e:4d:68:97:77:
        3d:ae:22:aa:34:5d:40:2c:de:d7:9b:c6:db:50:c7:7b:17:b5:
        11:ee:2f:7d:84:d7:e9:95:a2:51:72:c7:64:f5:2f:44:2b:c7:
        37:56:a9:62:49:6f:8a:68:f5:7c:da:e5:d7:7a:66:63:2f:54:
        08:90:74:85:11:05:f4:64:cd:7e:24:ec:f5:cf:94:e0:83:ec:
        d7:92:59:51:ae:2a:d9:f0:cf:2f:e1:db:79:25:22:06:66:0d:
        04:ea:c3:8b:5b:34:dc:3d:d1:43:78:6f:93:5c:4c:d9:0d:d1:
        d5:99:b7:dc:0c:44:40:d3:4d:e4:6d:bb:eb:bd:ae:c7:49:5e:
        bd:77:cc:8b:94:6b:9b:5f:90:d2:3a:88:70:23:99:48:aa:4a:
        bf:a8:76:27:ee:21:2e:78:39:04:e6:04:9b:f0:ae:3a:60:66:
        ad:03:78:02:14:d9:81:93:e8:4c:29:6b:ab:ee:f5:f9:8d:d6:
        d3:11:86:b8:83:38:11:8e:26:30:04:48:84:ac:f6:17:b6:f7:
        64:5e:60:91
-----BEGIN CERTIFICATE-----
MIIDtjCCAp6gAwIBAgIQLEA8lh5Oy18/HauXmGlYozANBgkqhkiG9w0BAQsFADAb
MRkwFwYDVQQDDBBJb3RTY2hvb2wgU3ViIENBMB4XDTIzMDUwNTExMjQzN1oXDTI0
MDUwNDExMjQzN1owgYYxCzAJBgNVBAYTAkRFMRAwDgYDVQQIDAdCYXZhcmlhMRMw
EQYDVQQKDApJb1QgU2Nob29sMRUwEwYDVQQLDAxQS0kgU2VydmljZXMxDzANBgNV
BAMMBnNhbXBsZTEoMCYGCSqGSIb3DQEJARYZaW90c2Nob29sQG1haWJvcm53b2xm
Zi5kZTCCASIwDQYJKoZIhvcNAQEBBQADggEPADCCAQoCggEBAMOvYHeORcdACuYZ
n2I+CXQ7EGQqsHMxGMTo26dQ7MdebIFAVSDwfkO+uPh+qzQWgsOISXN4pKQOgZ/t
a7njWd7Pr8eIMY+LTJBhaybABUXODw7mgNKWvOa+IYdNWKO83tduX7/bPLuyZ2LJ
nMtCFUGCxGZRCi7WGvt6PnUkJgR6gOHD5h/38gvN0JQXpyEBxodX1r5VyxM7ffyw
/KsoHEKTWN/5yN08Fctgo4An3o9Z3zo/SGJcWlctTrcfdm1Dug6EaqD1YJ/QvLYQ
APEdszYq+L5TWg9mEV2X5gNZBFwAId2A1if43hATuLoKJl9MbE8VUhyaSRf66P5Q
a2cZrskCAwEAAaOBiTCBhjAfBgNVHSMEGDAWgBRFC1u2m6KBS+iuw9DcPAELjzWw
VjAMBgNVHRMBAf8EAjAAMBMGA1UdJQQMMAoGCCsGAQUFBwMCMA4GA1UdDwEB/wQE
AwIHgDAdBgNVHQ4EFgQUwHPv4ntVGmPhs7GtJ51hot8d8BMwEQYDVR0RBAowCIIG
c2FtcGxlMA0GCSqGSIb3DQEBCwUAA4IBAQB5fjQ5v4GCNdBl4b+uS1LucgEXa/B5
fCTpV1fxfV9ve7PI6J+bdrnEE88Yw5FzZagcLk1ol3c9riKqNF1ALN7Xm8bbUMd7
F7UR7i99hNfplaJRcsdk9S9EK8c3VqliSW+KaPV82uXXemZjL1QIkHSFEQX0ZM1+
JOz1z5Tgg+zXkllRrirZ8M8v4dt5JSIGZg0E6sOLWzTcPdFDeG+TXEzZDdHVmbfc
DERA003kbbvrva7HSV69d8yLlGubX5DSOohwI5lIqkq/qHYn7iEueDkE5gSb8K46
YGatA3gCFNmBk+hMKWur7vX5jdbTEYa4gzgRjiYwBEiErPYXtvdkXmCR
-----END CERTIFICATE-----
