Certificate:
    Data:
        Version: 3 (0x2)
        Serial Number:
            2c:40:3c:96:1e:4e:cb:5f:3f:1d:ab:97:98:69:58:b9
        Signature Algorithm: sha256WithRSAEncryption
        Issuer: CN=IotSchool Sub CA
        Validity
            Not Before: May  5 11:25:58 2023 GMT
            Not After : May  4 11:25:58 2024 GMT
        Subject: C=DE, ST=Bavaria, O=IoT School, OU=PKI Services, CN=sample/emailAddress=iotschool@maibornwolff.de
        Subject Public Key Info:
            Public Key Algorithm: rsaEncryption
                Public-Key: (2048 bit)
                Modulus:
                    00:ac:22:f6:84:08:57:41:23:86:d5:3e:a4:e8:c2:
                    92:43:98:74:5d:bc:1f:97:f4:c5:be:6d:3e:1c:83:
                    f4:5e:92:71:fd:ed:7b:5e:82:4a:a8:e1:24:b3:11:
                    0f:c8:c9:b1:48:aa:97:e8:e2:99:b8:8b:35:71:21:
                    ec:00:75:e5:27:84:af:99:e2:9b:8a:7d:71:bf:b4:
                    de:33:50:27:60:7c:7f:0e:4c:e7:22:6f:45:38:55:
                    c0:03:cc:04:0b:64:94:27:e0:5d:e4:89:a0:a0:02:
                    62:24:45:c2:a6:ae:d7:53:b4:de:4e:9f:35:28:7c:
                    06:c4:da:3d:ed:ee:13:8c:05:3f:2b:61:a1:cd:53:
                    11:ed:26:1f:78:e5:10:f6:81:c9:50:f5:5f:9e:12:
                    22:ca:7b:e8:84:81:98:63:f4:36:cb:ce:5d:1b:19:
                    da:35:4b:06:d8:2f:b5:90:6d:c7:53:64:4b:20:52:
                    00:d5:17:56:a4:54:56:9f:74:3c:56:42:f6:e1:20:
                    7e:30:ec:23:d8:6f:ef:1f:02:84:8d:ef:2b:6a:42:
                    45:c2:81:e7:2b:ce:fa:b0:b4:de:0b:95:8e:fc:7a:
                    bf:e9:de:fd:65:a9:8d:64:84:57:59:ea:c8:e6:3b:
                    bd:fa:71:9d:5d:11:b7:19:d0:4c:13:11:c1:65:f4:
                    f8:bd
                Exponent: 65537 (0x10001)
        X509v3 extensions:
            X509v3 Authority Key Identifier: 
                96:78:F2:E1:DD:20:43:D2:27:8F:AA:82:48:F5:2D:C4:D8:89:49:10
            X509v3 Basic Constraints: critical
                CA:FALSE
            X509v3 Extended Key Usage: 
                TLS Web Client Authentication
            X509v3 Key Usage: critical
                Digital Signature
            X509v3 Subject Key Identifier: 
                67:88:8A:EB:A9:FE:95:60:DB:73:B9:B9:23:38:BB:7E:30:A1:CB:DD
            X509v3 Subject Alternative Name: 
                DNS:sample
    Signature Algorithm: sha256WithRSAEncryption
    Signature Value:
        87:ea:b5:94:e3:1a:b8:5a:64:0b:76:ab:9e:8a:58:e5:b3:55:
        f3:99:70:4d:59:bf:6e:81:d8:65:c3:5e:d8:e6:21:04:29:37:
        7f:4a:87:66:4c:01:73:fb:2c:28:07:e5:e2:be:97:76:5b:af:
        ed:b6:06:5b:17:a5:f7:ec:3c:72:e1:56:a4:f3:16:a0:20:69:
        0b:66:48:bf:55:ed:a9:ec:ba:2c:88:37:0a:ea:95:8c:09:2c:
        40:be:4f:e8:8e:05:2b:53:11:af:74:a1:79:be:8f:87:ee:3b:
        1b:ac:87:b9:e7:b9:06:30:c2:18:ff:ea:49:d6:35:ad:c1:56:
        e4:81:f4:de:7c:e5:ac:84:f2:52:f7:46:c4:76:af:26:4f:98:
        73:cb:d2:41:97:d7:4d:e7:17:35:f1:0b:e6:f2:e0:18:c2:24:
        94:d7:c6:fa:0e:5e:90:6a:d2:41:b9:3a:57:65:14:89:d9:7f:
        6c:06:ba:b5:48:c6:5c:7e:11:6e:bc:f4:c2:88:b3:1c:62:f9:
        a7:a9:d1:34:2f:cf:eb:98:80:2a:5c:bb:4d:ed:be:5d:d9:cc:
        ee:45:cc:b8:45:d9:05:05:e2:62:1c:f5:74:dc:9e:64:de:0e:
        c6:d3:36:96:e7:7a:0c:81:4a:e3:bf:96:4c:d5:eb:26:31:d9:
        83:d8:cc:ab
-----BEGIN CERTIFICATE-----
MIIDtjCCAp6gAwIBAgIQLEA8lh5Oy18/HauXmGlYuTANBgkqhkiG9w0BAQsFADAb
MRkwFwYDVQQDDBBJb3RTY2hvb2wgU3ViIENBMB4XDTIzMDUwNTExMjU1OFoXDTI0
MDUwNDExMjU1OFowgYYxCzAJBgNVBAYTAkRFMRAwDgYDVQQIDAdCYXZhcmlhMRMw
EQYDVQQKDApJb1QgU2Nob29sMRUwEwYDVQQLDAxQS0kgU2VydmljZXMxDzANBgNV
BAMMBnNhbXBsZTEoMCYGCSqGSIb3DQEJARYZaW90c2Nob29sQG1haWJvcm53b2xm
Zi5kZTCCASIwDQYJKoZIhvcNAQEBBQADggEPADCCAQoCggEBAKwi9oQIV0EjhtU+
pOjCkkOYdF28H5f0xb5tPhyD9F6Scf3te16CSqjhJLMRD8jJsUiql+jimbiLNXEh
7AB15SeEr5nim4p9cb+03jNQJ2B8fw5M5yJvRThVwAPMBAtklCfgXeSJoKACYiRF
wqau11O03k6fNSh8BsTaPe3uE4wFPythoc1TEe0mH3jlEPaByVD1X54SIsp76ISB
mGP0NsvOXRsZ2jVLBtgvtZBtx1NkSyBSANUXVqRUVp90PFZC9uEgfjDsI9hv7x8C
hI3vK2pCRcKB5yvO+rC03guVjvx6v+ne/WWpjWSEV1nqyOY7vfpxnV0RtxnQTBMR
wWX0+L0CAwEAAaOBiTCBhjAfBgNVHSMEGDAWgBSWePLh3SBD0iePqoJI9S3E2IlJ
EDAMBgNVHRMBAf8EAjAAMBMGA1UdJQQMMAoGCCsGAQUFBwMCMA4GA1UdDwEB/wQE
AwIHgDAdBgNVHQ4EFgQUZ4iK66n+lWDbc7m5Izi7fjChy90wEQYDVR0RBAowCIIG
c2FtcGxlMA0GCSqGSIb3DQEBCwUAA4IBAQCH6rWU4xq4WmQLdqueiljls1XzmXBN
Wb9ugdhlw17Y5iEEKTd/SodmTAFz+ywoB+Xivpd2W6/ttgZbF6X37Dxy4Vak8xag
IGkLZki/Ve2p7LosiDcK6pWMCSxAvk/ojgUrUxGvdKF5vo+H7jsbrIe557kGMMIY
/+pJ1jWtwVbkgfTefOWshPJS90bEdq8mT5hzy9JBl9dN5xc18Qvm8uAYwiSU18b6
Dl6QatJBuTpXZRSJ2X9sBrq1SMZcfhFuvPTCiLMcYvmnqdE0L8/rmIAqXLtN7b5d
2czuRcy4RdkFBeJiHPV03J5k3g7G0zaW53oMgUrjv5ZM1esmMdmD2Myr
-----END CERTIFICATE-----
