Certificate:
    Data:
        Version: 3 (0x2)
        Serial Number:
            2c:40:3c:96:1e:4e:cb:5f:3f:1d:ab:97:98:69:58:b5
        Signature Algorithm: sha256WithRSAEncryption
        Issuer: CN=IotSchool Sub CA
        Validity
            Not Before: May  5 11:25:49 2023 GMT
            Not After : May  4 11:25:49 2024 GMT
        Subject: C=DE, ST=Bavaria, O=IoT School, OU=PKI Services, CN=sample/emailAddress=iotschool@maibornwolff.de
        Subject Public Key Info:
            Public Key Algorithm: rsaEncryption
                Public-Key: (2048 bit)
                Modulus:
                    00:a6:2d:bf:40:7b:c6:cc:58:68:db:51:c2:c7:82:
                    61:45:d7:60:04:3a:f1:f7:f9:ae:9b:cd:6e:19:5c:
                    ff:c5:15:15:92:8d:a3:3e:65:7d:5c:fc:1c:67:4a:
                    1f:6c:41:7f:e5:0c:0c:b2:60:99:0f:30:c2:41:5d:
                    f5:6e:38:12:aa:e1:b8:89:5b:ba:67:bd:ed:56:55:
                    fc:2e:96:d2:91:80:b0:b9:b1:4b:54:a3:d2:e1:d9:
                    0e:ee:78:b2:0c:cd:a2:b3:9f:b1:cc:9d:30:7b:23:
                    1e:7e:91:1c:64:83:a6:7f:04:0f:0b:52:ce:f0:e7:
                    60:f4:0e:8f:4a:c2:af:0c:53:83:97:4f:28:d8:31:
                    ff:d7:fc:2c:71:59:25:20:3d:fc:a7:9d:1d:02:e4:
                    8c:63:7f:02:3c:4e:1c:ce:72:69:6b:70:21:57:ce:
                    3d:f9:be:5f:ac:61:c5:31:8e:a2:af:31:30:59:3b:
                    3a:bc:3f:95:c2:68:ff:39:97:6d:4a:33:fd:4f:e8:
                    8f:2b:27:da:5d:6c:ee:8c:f0:ba:fe:7f:cd:cc:d9:
                    94:a8:9b:e2:67:4a:97:d2:6c:41:fb:11:19:08:28:
                    ff:4a:b0:54:35:cc:c2:f4:f1:58:c4:43:e3:3f:b0:
                    02:04:f4:cb:b2:2a:c8:1d:38:c8:a3:02:98:5b:b8:
                    04:d9
                Exponent: 65537 (0x10001)
        X509v3 extensions:
            X509v3 Authority Key Identifier: 
                1A:02:4C:96:88:3F:56:BE:21:72:D0:66:9F:23:2B:7F:BD:F4:CA:A2
            X509v3 Basic Constraints: critical
                CA:FALSE
            X509v3 Extended Key Usage: 
                TLS Web Client Authentication
            X509v3 Key Usage: critical
                Digital Signature
            X509v3 Subject Key Identifier: 
                28:00:DC:3E:A8:C8:93:F5:0B:59:0A:A3:0F:35:D5:1E:D8:97:77:73
            X509v3 Subject Alternative Name: 
                DNS:sample
    Signature Algorithm: sha256WithRSAEncryption
    Signature Value:
        24:d5:7a:67:96:3e:fe:c1:da:f7:5f:a6:7c:ea:59:0f:3e:0f:
        90:b4:d7:e9:e4:3c:87:36:8b:0d:dd:92:0b:b6:b2:87:6e:f8:
        ed:a3:d2:af:3f:91:19:e6:40:0b:81:60:66:8d:5c:a5:0a:74:
        f6:8d:8d:39:db:7b:a6:dc:88:c8:98:d9:3b:04:b0:6d:25:88:
        cb:23:ff:dc:a3:bc:f4:66:5d:16:35:21:ba:7b:b1:8a:95:f3:
        95:cf:50:a2:6e:4b:9c:77:af:8f:76:b9:c7:23:5c:18:62:2d:
        8e:7d:87:68:ec:32:38:26:95:c5:f9:4b:06:b7:b7:c6:6a:7c:
        cf:17:5e:b1:f6:70:b4:31:17:1f:62:15:23:45:7e:e3:9a:71:
        5a:df:da:97:3e:1c:7a:3b:bc:a1:68:01:9d:38:ab:21:7c:07:
        4c:7d:2e:29:a4:0d:34:9f:04:02:63:c6:5b:97:3d:3b:1d:00:
        97:17:26:f4:b1:db:d6:89:92:c7:8a:48:c6:6b:47:82:b6:1b:
        e3:7b:47:e4:b1:fd:b3:33:6c:f1:b6:cf:9b:35:0f:c2:20:62:
        38:77:a7:ae:aa:e7:fb:7b:b2:c2:31:ec:a9:54:5c:3b:04:82:
        44:9e:5e:ff:e6:77:1b:f0:6e:c0:99:4c:01:f9:13:71:89:6d:
        ab:e0:11:fa
-----BEGIN CERTIFICATE-----
MIIDtjCCAp6gAwIBAgIQLEA8lh5Oy18/HauXmGlYtTANBgkqhkiG9w0BAQsFADAb
MRkwFwYDVQQDDBBJb3RTY2hvb2wgU3ViIENBMB4XDTIzMDUwNTExMjU0OVoXDTI0
MDUwNDExMjU0OVowgYYxCzAJBgNVBAYTAkRFMRAwDgYDVQQIDAdCYXZhcmlhMRMw
EQYDVQQKDApJb1QgU2Nob29sMRUwEwYDVQQLDAxQS0kgU2VydmljZXMxDzANBgNV
BAMMBnNhbXBsZTEoMCYGCSqGSIb3DQEJARYZaW90c2Nob29sQG1haWJvcm53b2xm
Zi5kZTCCASIwDQYJKoZIhvcNAQEBBQADggEPADCCAQoCggEBAKYtv0B7xsxYaNtR
wseCYUXXYAQ68ff5rpvNbhlc/8UVFZKNoz5lfVz8HGdKH2xBf+UMDLJgmQ8wwkFd
9W44EqrhuIlbume97VZV/C6W0pGAsLmxS1Sj0uHZDu54sgzNorOfscydMHsjHn6R
HGSDpn8EDwtSzvDnYPQOj0rCrwxTg5dPKNgx/9f8LHFZJSA9/KedHQLkjGN/AjxO
HM5yaWtwIVfOPfm+X6xhxTGOoq8xMFk7Orw/lcJo/zmXbUoz/U/ojysn2l1s7ozw
uv5/zczZlKib4mdKl9JsQfsRGQgo/0qwVDXMwvTxWMRD4z+wAgT0y7IqyB04yKMC
mFu4BNkCAwEAAaOBiTCBhjAfBgNVHSMEGDAWgBQaAkyWiD9WviFy0GafIyt/vfTK
ojAMBgNVHRMBAf8EAjAAMBMGA1UdJQQMMAoGCCsGAQUFBwMCMA4GA1UdDwEB/wQE
AwIHgDAdBgNVHQ4EFgQUKADcPqjIk/ULWQqjDzXVHtiXd3MwEQYDVR0RBAowCIIG
c2FtcGxlMA0GCSqGSIb3DQEBCwUAA4IBAQAk1Xpnlj7+wdr3X6Z86lkPPg+QtNfp
5DyHNosN3ZILtrKHbvjto9KvP5EZ5kALgWBmjVylCnT2jY0523um3IjImNk7BLBt
JYjLI//co7z0Zl0WNSG6e7GKlfOVz1Cibkucd6+PdrnHI1wYYi2OfYdo7DI4JpXF
+UsGt7fGanzPF16x9nC0MRcfYhUjRX7jmnFa39qXPhx6O7yhaAGdOKshfAdMfS4p
pA00nwQCY8Zblz07HQCXFyb0sdvWiZLHikjGa0eCthvje0fksf2zM2zxts+bNQ/C
IGI4d6euquf7e7LCMeypVFw7BIJEnl7/5ncb8G7AmUwB+RNxiW2r4BH6
-----END CERTIFICATE-----
