Certificate:
    Data:
        Version: 3 (0x2)
        Serial Number:
            5b:25:24:95:1a:7a:20:0f:25:6c:66:d1:5a:08:37:0f
        Signature Algorithm: sha256WithRSAEncryption
        Issuer: CN=IotSchool Sub CA
        Validity
            Not Before: Apr 19 12:40:22 2023 GMT
            Not After : Apr 18 12:40:22 2024 GMT
        Subject: C=DE, ST=Bavaria, O=IoT School, OU=PKI Services, CN=station-airport-route/emailAddress=iotschool@maibornwolff.de
        Subject Public Key Info:
            Public Key Algorithm: rsaEncryption
                Public-Key: (2048 bit)
                Modulus:
                    00:a0:13:b3:2f:e9:64:24:7d:ea:80:b4:3e:b6:fb:
                    20:e9:bb:d3:4f:33:f2:92:38:03:72:48:76:43:27:
                    3e:22:14:ff:04:60:65:a5:00:1b:2d:d1:30:65:63:
                    39:2c:40:8b:af:d8:75:7a:39:23:c9:8c:62:4d:06:
                    94:05:5a:c8:81:e0:a5:4a:cf:31:ff:11:02:7d:21:
                    03:e0:a1:d9:f7:bc:ad:13:be:4f:53:60:c9:1c:e8:
                    51:60:42:7d:5e:67:22:52:c8:81:27:ca:d2:bf:2d:
                    c8:4b:78:53:8d:07:16:a9:f1:0a:20:69:b7:d9:9f:
                    46:9e:15:e6:26:b6:1a:ee:41:27:cf:cd:26:b7:20:
                    6f:a5:b0:00:f3:07:43:ce:9d:ef:3f:5d:2d:73:f1:
                    46:a0:a0:56:b7:32:53:7d:72:a5:27:4f:b8:cc:35:
                    77:07:04:49:3a:66:88:85:db:cb:94:88:da:94:c5:
                    4a:90:7c:1c:6c:06:75:5e:63:f3:62:85:c7:f2:b3:
                    18:fb:f1:1b:58:89:40:1b:41:8a:23:93:ca:fc:4f:
                    89:fe:56:8f:a3:49:e0:ee:b3:c0:b5:ed:4e:8f:ce:
                    66:23:1c:fa:d0:80:c8:88:ce:a6:e7:cc:1a:12:d3:
                    cb:c7:aa:bb:64:f3:ab:33:9b:c8:b5:cc:ca:ed:b8:
                    a6:d9
                Exponent: 65537 (0x10001)
        X509v3 extensions:
            X509v3 Authority Key Identifier: 
                0D:27:BF:AE:E6:F3:23:DB:01:CF:4A:CD:DC:62:56:B8:3B:8A:38:D2
            X509v3 Basic Constraints: critical
                CA:FALSE
            X509v3 Extended Key Usage: 
                TLS Web Client Authentication
            X509v3 Key Usage: critical
                Digital Signature
            X509v3 Subject Key Identifier: 
                AE:54:B5:BE:01:89:14:14:90:08:EF:E2:5A:4A:14:A3:FE:A0:E6:59
            X509v3 Subject Alternative Name: 
                DNS:station-airport-route
    Signature Algorithm: sha256WithRSAEncryption
    Signature Value:
        61:61:e8:6e:f0:df:e4:2c:2f:dd:e3:8c:9e:a8:b9:52:47:a9:
        35:33:a8:c5:5e:28:7e:0b:f7:49:82:8a:7f:df:24:04:f4:d3:
        e2:35:0e:9c:fc:70:ee:65:d8:05:8d:77:e4:e7:2e:eb:a5:96:
        e2:9c:8a:53:78:ac:11:26:c1:91:2f:29:9d:88:ec:8f:b2:83:
        61:15:1d:db:64:dd:a2:10:f0:bb:c2:a3:a0:58:92:0b:f4:66:
        1a:04:77:3d:47:38:2c:74:ed:40:3c:2e:11:17:46:80:62:19:
        d5:0a:3e:39:09:28:d0:3d:b5:29:ef:c8:f8:84:87:6e:91:6b:
        47:0a:d5:71:8c:88:1b:32:b9:19:3e:e2:ff:97:a7:c4:92:cb:
        12:aa:4e:e8:ea:6f:1e:5b:aa:98:b0:e5:77:f5:b5:58:5f:79:
        31:5d:14:a6:5b:e4:f7:00:84:63:c2:49:61:d2:2f:ac:b6:11:
        7d:d8:c9:68:18:9b:0e:a7:9a:fb:b0:59:14:1d:66:5c:cc:a5:
        f4:55:56:3f:06:42:52:a5:8e:e1:a8:cb:00:06:4c:74:89:6a:
        49:fe:67:c4:ef:a8:17:1b:e0:71:86:c4:40:78:55:9a:8e:a1:
        c7:38:97:e0:28:44:56:61:04:16:f9:52:e6:db:3f:1e:f4:6b:
        90:c7:6c:34
-----BEGIN CERTIFICATE-----
MIID1DCCArygAwIBAgIQWyUklRp6IA8lbGbRWgg3DzANBgkqhkiG9w0BAQsFADAb
MRkwFwYDVQQDDBBJb3RTY2hvb2wgU3ViIENBMB4XDTIzMDQxOTEyNDAyMloXDTI0
MDQxODEyNDAyMlowgZUxCzAJBgNVBAYTAkRFMRAwDgYDVQQIDAdCYXZhcmlhMRMw
EQYDVQQKDApJb1QgU2Nob29sMRUwEwYDVQQLDAxQS0kgU2VydmljZXMxHjAcBgNV
BAMMFXN0YXRpb24tYWlycG9ydC1yb3V0ZTEoMCYGCSqGSIb3DQEJARYZaW90c2No
b29sQG1haWJvcm53b2xmZi5kZTCCASIwDQYJKoZIhvcNAQEBBQADggEPADCCAQoC
ggEBAKATsy/pZCR96oC0Prb7IOm7008z8pI4A3JIdkMnPiIU/wRgZaUAGy3RMGVj
OSxAi6/YdXo5I8mMYk0GlAVayIHgpUrPMf8RAn0hA+Ch2fe8rRO+T1NgyRzoUWBC
fV5nIlLIgSfK0r8tyEt4U40HFqnxCiBpt9mfRp4V5ia2Gu5BJ8/NJrcgb6WwAPMH
Q86d7z9dLXPxRqCgVrcyU31ypSdPuMw1dwcESTpmiIXby5SI2pTFSpB8HGwGdV5j
82KFx/KzGPvxG1iJQBtBiiOTyvxPif5Wj6NJ4O6zwLXtTo/OZiMc+tCAyIjOpufM
GhLTy8equ2TzqzObyLXMyu24ptkCAwEAAaOBmDCBlTAfBgNVHSMEGDAWgBQNJ7+u
5vMj2wHPSs3cYla4O4o40jAMBgNVHRMBAf8EAjAAMBMGA1UdJQQMMAoGCCsGAQUF
BwMCMA4GA1UdDwEB/wQEAwIHgDAdBgNVHQ4EFgQUrlS1vgGJFBSQCO/iWkoUo/6g
5lkwIAYDVR0RBBkwF4IVc3RhdGlvbi1haXJwb3J0LXJvdXRlMA0GCSqGSIb3DQEB
CwUAA4IBAQBhYehu8N/kLC/d44yeqLlSR6k1M6jFXih+C/dJgop/3yQE9NPiNQ6c
/HDuZdgFjXfk5y7rpZbinIpTeKwRJsGRLymdiOyPsoNhFR3bZN2iEPC7wqOgWJIL
9GYaBHc9RzgsdO1APC4RF0aAYhnVCj45CSjQPbUp78j4hIdukWtHCtVxjIgbMrkZ
PuL/l6fEkssSqk7o6m8eW6qYsOV39bVYX3kxXRSmW+T3AIRjwklh0i+sthF92Mlo
GJsOp5r7sFkUHWZczKX0VVY/BkJSpY7hqMsABkx0iWpJ/mfE76gXG+BxhsRAeFWa
jqHHOJfgKERWYQQW+VLm2z8e9GuQx2w0
-----END CERTIFICATE-----
