Certificate:
    Data:
        Version: 3 (0x2)
        Serial Number:
            8b:f6:c8:bd:b0:0c:74:e1:36:cc:57:86:d5:95:16:ad
        Signature Algorithm: sha256WithRSAEncryption
        Issuer: CN=IotSchool Sub CA
        Validity
            Not Before: Sep  6 08:13:04 2021 GMT
            Not After : Sep  6 08:13:04 2022 GMT
        Subject: C=DE, ST=Bavaria, O=IoT School, OU=PKI Services, CN=wagon-4/emailAddress=iotschool@maibornwolff.de
        Subject Public Key Info:
            Public Key Algorithm: rsaEncryption
                RSA Public-Key: (2048 bit)
                Modulus:
                    00:c6:31:0c:ff:7d:93:40:2f:d6:0d:72:e5:33:f9:
                    91:eb:2b:52:f4:ad:ae:d6:51:9c:4b:2a:b8:23:2d:
                    4d:8e:2e:9f:61:4e:98:e0:d7:27:2a:29:57:de:c4:
                    44:cf:2b:04:3f:d8:b9:dc:4a:17:18:4b:fb:81:d1:
                    96:db:1c:78:d4:70:3d:2d:f0:ca:61:04:d5:0d:e5:
                    89:9b:a0:56:63:32:62:49:a2:54:19:4c:be:ae:17:
                    1c:eb:d9:52:3e:c5:2b:90:bf:a7:cf:44:1e:9b:d4:
                    a9:d6:87:f0:36:d0:b1:60:07:24:8a:36:3b:3b:1e:
                    90:c8:96:d4:ba:68:4a:fd:28:44:a4:b1:87:6d:ae:
                    17:37:54:cd:f7:b5:6b:e1:dc:b2:b8:23:dd:3d:d6:
                    9f:3c:57:5a:93:68:ad:6c:ef:dd:e6:c7:6a:32:10:
                    aa:f5:d5:22:fb:02:b9:13:e1:44:b7:3a:54:0e:c3:
                    08:15:57:e2:f7:dc:0a:a8:5f:bf:78:7a:5a:d5:96:
                    f6:b5:43:27:b1:d7:b9:41:65:c6:95:51:74:78:e4:
                    02:bd:54:8d:92:7c:e3:6a:43:dc:d8:66:a5:88:8e:
                    3d:2b:9e:49:47:7a:03:69:39:1b:1d:26:e6:a2:ac:
                    b2:5a:43:da:d5:b0:a3:95:9d:ec:67:71:21:10:41:
                    29:0f
                Exponent: 65537 (0x10001)
        X509v3 extensions:
            X509v3 Authority Key Identifier: 
                keyid:18:38:EE:AF:6E:44:7C:DA:78:FB:7C:F4:D1:5C:D8:60:45:A2:15:96

            X509v3 Basic Constraints: critical
                CA:FALSE
            X509v3 Extended Key Usage: 
                TLS Web Client Authentication
            X509v3 Key Usage: critical
                Digital Signature
            X509v3 Subject Key Identifier: 
                0C:26:C4:75:3D:A4:7A:1F:58:84:34:8F:D8:5E:F8:69:5F:29:6E:C2
            X509v3 Subject Alternative Name: 
                DNS:wagon-4
    Signature Algorithm: sha256WithRSAEncryption
         85:52:1a:8c:dc:09:2a:33:a7:16:09:b1:d2:d8:77:50:ce:f6:
         f9:eb:f0:e1:a9:7b:f5:c2:86:d9:c5:4a:02:7b:8d:5b:cd:3b:
         c9:2b:68:3f:a2:13:e2:b2:21:fc:2f:bb:84:aa:67:69:48:6f:
         44:d6:3c:55:17:03:86:83:e8:af:72:e8:3a:ad:62:1f:45:fc:
         45:02:8c:21:72:e8:67:a0:72:fd:3a:12:91:d6:f1:a3:79:ec:
         a6:0f:fc:f8:1e:ce:83:80:96:73:58:7c:cd:c8:66:fa:f2:36:
         60:2f:89:35:66:49:f9:a1:fa:3d:ce:c7:17:ed:d6:ef:9e:cd:
         6e:10:17:20:85:06:45:12:eb:7c:24:20:29:51:a9:48:71:98:
         10:12:2f:57:a4:37:7a:d9:b1:b8:da:3b:da:92:63:40:68:3b:
         17:56:b4:5e:2b:19:82:77:a2:fd:dd:85:97:a5:2e:58:2d:70:
         97:b7:2e:a5:d3:f0:d3:84:11:74:91:ff:15:d5:57:ce:0f:65:
         f7:81:4a:31:f0:0a:f5:0d:36:d3:a0:63:d2:0c:61:27:f9:50:
         65:1f:49:c8:7e:f3:1a:89:e2:56:4c:11:fe:08:21:ab:42:35:
         d5:8d:be:ab:c5:be:b9:ff:4e:9f:5f:2e:57:02:e8:78:f5:ba:
         c6:1d:cd:2c
-----BEGIN CERTIFICATE-----
MIIDuTCCAqGgAwIBAgIRAIv2yL2wDHThNsxXhtWVFq0wDQYJKoZIhvcNAQELBQAw
GzEZMBcGA1UEAwwQSW90U2Nob29sIFN1YiBDQTAeFw0yMTA5MDYwODEzMDRaFw0y
MjA5MDYwODEzMDRaMIGHMQswCQYDVQQGEwJERTEQMA4GA1UECAwHQmF2YXJpYTET
MBEGA1UECgwKSW9UIFNjaG9vbDEVMBMGA1UECwwMUEtJIFNlcnZpY2VzMRAwDgYD
VQQDDAd3YWdvbi00MSgwJgYJKoZIhvcNAQkBFhlpb3RzY2hvb2xAbWFpYm9ybndv
bGZmLmRlMIIBIjANBgkqhkiG9w0BAQEFAAOCAQ8AMIIBCgKCAQEAxjEM/32TQC/W
DXLlM/mR6ytS9K2u1lGcSyq4Iy1Nji6fYU6Y4NcnKilX3sREzysEP9i53EoXGEv7
gdGW2xx41HA9LfDKYQTVDeWJm6BWYzJiSaJUGUy+rhcc69lSPsUrkL+nz0Qem9Sp
1ofwNtCxYAckijY7Ox6QyJbUumhK/ShEpLGHba4XN1TN97Vr4dyyuCPdPdafPFda
k2itbO/d5sdqMhCq9dUi+wK5E+FEtzpUDsMIFVfi99wKqF+/eHpa1Zb2tUMnsde5
QWXGlVF0eOQCvVSNknzjakPc2GaliI49K55JR3oDaTkbHSbmoqyyWkPa1bCjlZ3s
Z3EhEEEpDwIDAQABo4GKMIGHMB8GA1UdIwQYMBaAFBg47q9uRHzaePt89NFc2GBF
ohWWMAwGA1UdEwEB/wQCMAAwEwYDVR0lBAwwCgYIKwYBBQUHAwIwDgYDVR0PAQH/
BAQDAgeAMB0GA1UdDgQWBBQMJsR1PaR6H1iENI/YXvhpXyluwjASBgNVHREECzAJ
ggd3YWdvbi00MA0GCSqGSIb3DQEBCwUAA4IBAQCFUhqM3AkqM6cWCbHS2HdQzvb5
6/DhqXv1wobZxUoCe41bzTvJK2g/ohPisiH8L7uEqmdpSG9E1jxVFwOGg+ivcug6
rWIfRfxFAowhcuhnoHL9OhKR1vGjeeymD/z4Hs6DgJZzWHzNyGb68jZgL4k1Zkn5
ofo9zscX7dbvns1uEBcghQZFEut8JCApUalIcZgQEi9XpDd62bG42jvakmNAaDsX
VrReKxmCd6L93YWXpS5YLXCXty6l0/DThBF0kf8V1VfOD2X3gUox8Ar1DTbToGPS
DGEn+VBlH0nIfvMaieJWTBH+CCGrQjXVjb6rxb65/06fXy5XAuh49brGHc0s
-----END CERTIFICATE-----
