Certificate:
    Data:
        Version: 3 (0x2)
        Serial Number:
            8b:f6:c8:bd:b0:0c:74:e1:36:cc:57:86:d5:95:16:b0
        Signature Algorithm: sha256WithRSAEncryption
        Issuer: CN=IotSchool Sub CA
        Validity
            Not Before: Sep  6 08:38:16 2021 GMT
            Not After : Sep  6 08:38:16 2022 GMT
        Subject: C=DE, ST=Bavaria, O=IoT School, OU=PKI Services, CN=3D29D70ADAB3D6397BC5AE0B5C941777C18784204840A222/emailAddress=iotschool@maibornwolff.de
        Subject Public Key Info:
            Public Key Algorithm: rsaEncryption
                RSA Public-Key: (2048 bit)
                Modulus:
                    00:da:00:f6:9e:0b:50:3b:51:3f:94:16:9f:3b:e9:
                    a5:a9:17:45:36:2d:f4:2c:8f:14:1b:0e:c1:04:67:
                    7c:c0:0b:ca:f6:e1:bc:da:3c:de:af:fa:3f:47:ea:
                    57:00:8f:53:a7:ab:3c:8a:46:07:10:0a:72:b3:70:
                    51:77:b0:a1:83:14:5b:66:08:d2:27:e5:e7:4b:99:
                    1d:b5:01:9f:01:28:9a:2b:8c:c4:d6:ae:83:7d:fe:
                    88:17:68:85:3d:b2:b1:c9:ec:1a:e6:87:22:60:56:
                    38:a7:33:af:36:56:14:b3:fd:e4:01:d9:8f:c6:74:
                    b0:ef:66:73:bb:00:d3:59:d8:e4:f0:35:46:b2:b9:
                    cd:67:9c:fa:d3:dd:6e:df:0f:a8:71:bb:ee:31:f5:
                    52:79:1a:5f:3d:8a:9e:32:d9:d2:75:36:c5:6c:e4:
                    da:16:98:c9:ed:65:92:2e:f8:c2:ae:29:6e:02:ab:
                    9d:d0:d8:a5:0e:06:e2:af:50:ac:bf:ea:04:b3:1e:
                    f4:17:72:29:5b:3e:64:a0:6e:4b:e4:7d:dc:66:1d:
                    f0:6a:f4:fe:de:d4:64:c3:b9:49:c7:cb:d9:b4:ad:
                    c4:a9:77:b0:3e:8d:b9:1c:db:28:1d:92:eb:a5:1f:
                    1a:f2:0e:27:0b:4a:c1:5b:b9:19:10:e2:ba:83:56:
                    e9:29
                Exponent: 65537 (0x10001)
        X509v3 extensions:
            X509v3 Authority Key Identifier: 
                keyid:BB:7B:F0:6A:C8:5E:DA:C4:9D:54:91:27:06:DC:79:F0:FC:B6:07:2B

            X509v3 Basic Constraints: critical
                CA:FALSE
            X509v3 Extended Key Usage: 
                TLS Web Client Authentication
            X509v3 Key Usage: critical
                Digital Signature
            X509v3 Subject Key Identifier: 
                8A:27:24:17:BA:0D:EC:AF:7C:2B:93:25:A1:D0:BA:4D:1A:6C:66:7F
            X509v3 Subject Alternative Name: 
                DNS:3D29D70ADAB3D6397BC5AE0B5C941777C18784204840A222
    Signature Algorithm: sha256WithRSAEncryption
         53:8a:05:21:ce:8b:ff:2c:cc:f7:e8:3b:27:5d:0b:ac:b8:5b:
         e5:5b:b6:17:78:c3:5d:a8:aa:aa:d4:6f:9d:56:a5:20:dc:88:
         71:71:f0:12:30:bc:e3:b0:21:63:c7:5f:49:88:36:44:02:ca:
         c2:c4:ad:fe:73:35:10:8d:e8:c2:8b:f2:7d:dd:27:0c:c8:1e:
         57:88:8d:47:33:09:58:73:9c:33:7c:1a:49:60:58:ec:90:46:
         36:7e:67:50:71:c8:52:fc:5a:15:7c:39:7c:86:48:0f:ff:01:
         8e:21:2b:0c:26:68:ee:eb:ba:92:32:78:b2:aa:fe:24:f4:b1:
         9e:19:f4:de:31:62:90:da:09:63:74:bb:78:f5:5a:8c:b2:3a:
         b8:19:0e:5f:85:ee:4c:d1:26:24:54:02:68:9f:c0:f8:0c:72:
         6c:96:5d:1a:82:47:37:5f:e6:5b:2c:8b:ea:a5:92:b7:00:57:
         3f:3d:65:d3:1a:f2:25:e8:03:42:14:fd:95:45:e4:96:7a:37:
         a9:35:13:a9:2c:10:ca:dd:36:a5:7d:e1:72:7b:b4:23:af:7c:
         91:03:17:62:ab:8d:24:4a:43:dd:d3:17:21:dc:8d:56:63:1e:
         a7:84:a8:17:11:e7:64:cd:ad:4a:f7:6b:d9:a3:5f:c2:6c:6e:
         48:13:b9:8c
-----BEGIN CERTIFICATE-----
MIIECzCCAvOgAwIBAgIRAIv2yL2wDHThNsxXhtWVFrAwDQYJKoZIhvcNAQELBQAw
GzEZMBcGA1UEAwwQSW90U2Nob29sIFN1YiBDQTAeFw0yMTA5MDYwODM4MTZaFw0y
MjA5MDYwODM4MTZaMIGwMQswCQYDVQQGEwJERTEQMA4GA1UECAwHQmF2YXJpYTET
MBEGA1UECgwKSW9UIFNjaG9vbDEVMBMGA1UECwwMUEtJIFNlcnZpY2VzMTkwNwYD
VQQDDDAzRDI5RDcwQURBQjNENjM5N0JDNUFFMEI1Qzk0MTc3N0MxODc4NDIwNDg0
MEEyMjIxKDAmBgkqhkiG9w0BCQEWGWlvdHNjaG9vbEBtYWlib3Jud29sZmYuZGUw
ggEiMA0GCSqGSIb3DQEBAQUAA4IBDwAwggEKAoIBAQDaAPaeC1A7UT+UFp876aWp
F0U2LfQsjxQbDsEEZ3zAC8r24bzaPN6v+j9H6lcAj1OnqzyKRgcQCnKzcFF3sKGD
FFtmCNIn5edLmR21AZ8BKJorjMTWroN9/ogXaIU9srHJ7BrmhyJgVjinM682VhSz
/eQB2Y/GdLDvZnO7ANNZ2OTwNUayuc1nnPrT3W7fD6hxu+4x9VJ5Gl89ip4y2dJ1
NsVs5NoWmMntZZIu+MKuKW4Cq53Q2KUOBuKvUKy/6gSzHvQXcilbPmSgbkvkfdxm
HfBq9P7e1GTDuUnHy9m0rcSpd7A+jbkc2ygdkuulHxryDicLSsFbuRkQ4rqDVukp
AgMBAAGjgbMwgbAwHwYDVR0jBBgwFoAUu3vwashe2sSdVJEnBtx58Py2ByswDAYD
VR0TAQH/BAIwADATBgNVHSUEDDAKBggrBgEFBQcDAjAOBgNVHQ8BAf8EBAMCB4Aw
HQYDVR0OBBYEFIonJBe6DeyvfCuTJaHQuk0abGZ/MDsGA1UdEQQ0MDKCMDNEMjlE
NzBBREFCM0Q2Mzk3QkM1QUUwQjVDOTQxNzc3QzE4Nzg0MjA0ODQwQTIyMjANBgkq
hkiG9w0BAQsFAAOCAQEAU4oFIc6L/yzM9+g7J10LrLhb5Vu2F3jDXaiqqtRvnVal
INyIcXHwEjC847AhY8dfSYg2RALKwsSt/nM1EI3owovyfd0nDMgeV4iNRzMJWHOc
M3waSWBY7JBGNn5nUHHIUvxaFXw5fIZID/8BjiErDCZo7uu6kjJ4sqr+JPSxnhn0
3jFikNoJY3S7ePVajLI6uBkOX4XuTNEmJFQCaJ/A+AxybJZdGoJHN1/mWyyL6qWS
twBXPz1l0xryJegDQhT9lUXklno3qTUTqSwQyt02pX3hcnu0I698kQMXYquNJEpD
3dMXIdyNVmMep4SoFxHnZM2tSvdr2aNfwmxuSBO5jA==
-----END CERTIFICATE-----
