Certificate:
    Data:
        Version: 3 (0x2)
        Serial Number:
            8b:f6:c8:bd:b0:0c:74:e1:36:cc:57:86:d5:95:16:b2
        Signature Algorithm: sha256WithRSAEncryption
        Issuer: CN=IotSchool Sub CA
        Validity
            Not Before: Sep  6 08:42:57 2021 GMT
            Not After : Sep  6 08:42:57 2022 GMT
        Subject: C=DE, ST=Bavaria, O=IoT School, OU=PKI Services, CN=wagon4/emailAddress=iotschool@maibornwolff.de
        Subject Public Key Info:
            Public Key Algorithm: rsaEncryption
                RSA Public-Key: (2048 bit)
                Modulus:
                    00:da:3b:59:f3:43:5c:7c:c2:00:0a:ba:a5:50:db:
                    03:ad:76:95:a5:63:d9:07:70:cd:67:49:cf:a7:de:
                    4a:eb:7e:a6:74:c4:d6:f8:49:b5:15:af:12:bd:b3:
                    30:cc:12:5b:9c:95:23:29:8e:1c:2b:a0:36:96:73:
                    80:ed:94:76:e1:a5:4f:c7:53:48:c6:16:b0:76:78:
                    f0:de:92:00:36:4f:af:e8:a2:b5:de:c8:62:2d:10:
                    ac:03:2f:09:0c:2b:6f:02:58:07:ab:69:04:63:1d:
                    05:b7:ec:03:91:f0:fa:c3:c2:5e:5a:57:96:99:24:
                    d9:97:06:bd:59:db:66:35:2b:8b:ce:41:62:f5:30:
                    e8:0c:24:31:d1:25:29:1a:64:3d:a9:61:49:7e:19:
                    e2:f7:b7:4b:62:64:14:fd:d2:de:d2:5e:c6:ef:08:
                    91:09:02:73:f4:0a:31:9e:63:96:d5:34:1c:7b:7d:
                    f2:56:6e:47:b4:7a:b6:58:77:6e:99:15:87:16:9d:
                    fc:b7:50:95:ef:67:a4:4a:81:82:ce:8e:77:fa:e3:
                    01:a8:06:f4:96:00:e3:c3:7e:4b:0a:4f:a2:d4:78:
                    56:f9:95:1b:2a:06:b8:5b:fa:67:fc:36:cd:dc:7f:
                    13:67:0d:7f:fc:12:fc:7a:5f:c3:91:b6:d0:22:22:
                    69:9b
                Exponent: 65537 (0x10001)
        X509v3 extensions:
            X509v3 Authority Key Identifier: 
                keyid:18:38:EE:AF:6E:44:7C:DA:78:FB:7C:F4:D1:5C:D8:60:45:A2:15:96

            X509v3 Basic Constraints: critical
                CA:FALSE
            X509v3 Extended Key Usage: 
                TLS Web Client Authentication
            X509v3 Key Usage: critical
                Digital Signature
            X509v3 Subject Key Identifier: 
                D5:07:26:D6:7A:8F:CD:F1:5E:6A:53:9D:D9:38:ED:C9:B9:A8:85:6F
            X509v3 Subject Alternative Name: 
                DNS:wagon4
    Signature Algorithm: sha256WithRSAEncryption
         56:cc:09:e9:bf:1e:ef:3b:d9:ac:ba:9c:45:35:26:c5:a2:72:
         15:b0:f1:37:a8:5e:7b:50:ff:b6:f4:ce:c4:8f:5f:1f:4d:e1:
         6b:5b:0e:3a:2b:e0:ba:1d:e8:c6:f7:67:8c:e2:4e:67:6a:54:
         f8:15:2a:e0:95:9b:8e:25:67:c4:58:fe:e0:7d:af:f1:47:69:
         69:eb:e7:dd:6f:51:29:c4:89:e2:1b:9b:24:d1:d4:2b:91:25:
         9a:fe:b0:ff:37:9e:77:a3:db:d4:9f:60:dc:bf:cd:0b:35:10:
         e8:99:b5:ba:30:52:26:d3:1f:82:a4:81:a7:34:49:42:4f:7d:
         d5:52:87:a7:9a:81:3a:c3:a1:9a:44:42:69:6f:18:34:e0:1d:
         a3:7e:69:6d:b3:50:1a:74:84:ff:32:03:cc:ad:b1:00:99:2b:
         64:0f:51:de:1b:fb:71:f8:a1:2f:38:e8:b1:cd:54:0c:3e:49:
         a9:15:f7:09:e0:f8:f1:38:dc:8e:9b:38:06:9d:71:90:e7:27:
         84:f6:d4:a9:b6:ed:48:af:61:c9:6d:d5:f5:aa:cb:86:75:66:
         30:3d:e7:d5:91:f5:56:25:e9:52:54:02:d7:84:1b:25:16:b1:
         82:85:bd:18:e3:4e:97:8d:6d:6d:0f:16:81:9e:46:7f:59:1e:
         1f:a0:1a:2f
-----BEGIN CERTIFICATE-----
MIIDtzCCAp+gAwIBAgIRAIv2yL2wDHThNsxXhtWVFrIwDQYJKoZIhvcNAQELBQAw
GzEZMBcGA1UEAwwQSW90U2Nob29sIFN1YiBDQTAeFw0yMTA5MDYwODQyNTdaFw0y
MjA5MDYwODQyNTdaMIGGMQswCQYDVQQGEwJERTEQMA4GA1UECAwHQmF2YXJpYTET
MBEGA1UECgwKSW9UIFNjaG9vbDEVMBMGA1UECwwMUEtJIFNlcnZpY2VzMQ8wDQYD
VQQDDAZ3YWdvbjQxKDAmBgkqhkiG9w0BCQEWGWlvdHNjaG9vbEBtYWlib3Jud29s
ZmYuZGUwggEiMA0GCSqGSIb3DQEBAQUAA4IBDwAwggEKAoIBAQDaO1nzQ1x8wgAK
uqVQ2wOtdpWlY9kHcM1nSc+n3krrfqZ0xNb4SbUVrxK9szDMEluclSMpjhwroDaW
c4DtlHbhpU/HU0jGFrB2ePDekgA2T6/oorXeyGItEKwDLwkMK28CWAeraQRjHQW3
7AOR8PrDwl5aV5aZJNmXBr1Z22Y1K4vOQWL1MOgMJDHRJSkaZD2pYUl+GeL3t0ti
ZBT90t7SXsbvCJEJAnP0CjGeY5bVNBx7ffJWbke0erZYd26ZFYcWnfy3UJXvZ6RK
gYLOjnf64wGoBvSWAOPDfksKT6LUeFb5lRsqBrhb+mf8Ns3cfxNnDX/8Evx6X8OR
ttAiImmbAgMBAAGjgYkwgYYwHwYDVR0jBBgwFoAUGDjur25EfNp4+3z00VzYYEWi
FZYwDAYDVR0TAQH/BAIwADATBgNVHSUEDDAKBggrBgEFBQcDAjAOBgNVHQ8BAf8E
BAMCB4AwHQYDVR0OBBYEFNUHJtZ6j83xXmpTndk47cm5qIVvMBEGA1UdEQQKMAiC
BndhZ29uNDANBgkqhkiG9w0BAQsFAAOCAQEAVswJ6b8e7zvZrLqcRTUmxaJyFbDx
N6hee1D/tvTOxI9fH03ha1sOOivguh3oxvdnjOJOZ2pU+BUq4JWbjiVnxFj+4H2v
8Udpaevn3W9RKcSJ4hubJNHUK5Elmv6w/zeed6Pb1J9g3L/NCzUQ6Jm1ujBSJtMf
gqSBpzRJQk991VKHp5qBOsOhmkRCaW8YNOAdo35pbbNQGnSE/zIDzK2xAJkrZA9R
3hv7cfihLzjosc1UDD5JqRX3CeD48Tjcjps4Bp1xkOcnhPbUqbbtSK9hyW3V9arL
hnVmMD3n1ZH1ViXpUlQC14QbJRaxgoW9GONOl41tbQ8WgZ5Gf1keH6AaLw==
-----END CERTIFICATE-----
