Certificate:
    Data:
        Version: 3 (0x2)
        Serial Number:
            8b:f6:c8:bd:b0:0c:74:e1:36:cc:57:86:d5:95:16:b1
        Signature Algorithm: sha256WithRSAEncryption
        Issuer: CN=IotSchool Sub CA
        Validity
            Not Before: Sep  6 08:38:42 2021 GMT
            Not After : Sep  6 08:38:42 2022 GMT
        Subject: C=DE, ST=Bavaria, O=IoT School, OU=PKI Services, CN=E045DFEB6F41A3B308E08D2963D1FD93C2A381A103BB7001/emailAddress=iotschool@maibornwolff.de
        Subject Public Key Info:
            Public Key Algorithm: rsaEncryption
                RSA Public-Key: (2048 bit)
                Modulus:
                    00:dd:6c:a0:21:7c:07:d9:86:b3:a2:97:6c:a1:19:
                    23:59:f1:b7:4d:5b:53:b3:48:6f:fe:50:ea:72:dc:
                    9d:3f:52:3b:05:0a:b5:c1:99:a4:51:08:22:a9:4e:
                    df:43:d6:03:8e:e8:b3:9a:6c:0f:11:8c:48:85:7b:
                    98:2e:05:bc:aa:9f:dd:a2:b1:cd:a1:61:43:4a:90:
                    49:d2:02:ec:40:c7:9c:f6:d6:d2:0b:3f:32:cb:4b:
                    78:d7:4b:f7:84:c8:f6:ab:fb:a3:ce:1c:77:29:ee:
                    21:7e:e7:58:8b:70:62:ac:49:62:2b:5b:ec:ab:1c:
                    57:cb:b4:d0:1f:33:ea:16:b7:37:d9:99:a3:40:e7:
                    0c:cb:3e:68:69:98:b9:96:ac:8f:6c:65:8a:b2:86:
                    d8:21:ef:b7:3c:c6:34:6c:8d:a0:89:0a:37:a3:c7:
                    60:38:ae:24:fe:e3:03:d7:f4:63:e7:93:be:da:88:
                    93:7c:6e:a9:8a:cc:0d:3c:35:07:ca:b9:b9:46:bf:
                    ae:c1:e8:70:75:4e:96:c2:10:f0:e2:86:06:4c:80:
                    1b:e6:53:dc:84:b3:05:9b:33:3a:2b:82:f6:fc:f1:
                    07:29:8d:42:65:d8:61:f2:a0:80:0b:f9:55:b4:cb:
                    08:6c:78:64:21:1a:78:29:91:39:43:a0:18:70:6c:
                    03:e5
                Exponent: 65537 (0x10001)
        X509v3 extensions:
            X509v3 Authority Key Identifier: 
                keyid:18:38:EE:AF:6E:44:7C:DA:78:FB:7C:F4:D1:5C:D8:60:45:A2:15:96

            X509v3 Basic Constraints: critical
                CA:FALSE
            X509v3 Extended Key Usage: 
                TLS Web Client Authentication
            X509v3 Key Usage: critical
                Digital Signature
            X509v3 Subject Key Identifier: 
                6E:5E:3A:5E:CF:84:65:BC:BF:EB:1E:74:B8:84:92:FA:B5:42:BC:94
            X509v3 Subject Alternative Name: 
                DNS:E045DFEB6F41A3B308E08D2963D1FD93C2A381A103BB7001
    Signature Algorithm: sha256WithRSAEncryption
         a6:b6:28:ad:52:15:7d:83:b8:7a:fe:0a:4c:5d:8b:79:6f:a9:
         d9:a0:d9:01:a6:ba:12:75:6f:e3:80:8d:fe:64:3d:30:b8:89:
         e8:04:7f:0d:47:e8:f0:d0:69:5f:0d:4d:73:d6:3f:ee:c2:ab:
         61:c2:e1:36:04:94:82:66:53:f9:50:1b:3d:58:76:f0:1f:22:
         43:df:1c:7e:c2:9e:83:e2:20:e9:d6:e2:9b:b3:36:37:1b:4d:
         80:31:a4:35:16:37:cd:cb:60:86:15:27:83:37:c5:74:99:c2:
         fb:99:9a:6d:1d:98:b7:c2:59:76:0b:fa:0f:36:16:9e:39:00:
         c1:40:93:be:30:e1:1f:65:a5:91:86:29:1d:aa:21:19:10:13:
         04:76:10:08:b9:f4:d4:76:86:9b:8e:07:d4:fe:5f:5b:a7:63:
         54:73:01:5c:ef:6e:7c:bb:84:7a:9c:65:99:3f:ba:c9:7b:6c:
         69:c3:ab:c8:a7:a6:a6:9a:37:96:85:bd:b3:88:95:c7:40:87:
         6c:6e:17:73:62:78:d6:6d:6d:ea:e8:18:32:fd:6f:97:4b:7f:
         5a:4a:dd:eb:eb:5f:ed:e8:46:53:e8:b2:8a:c0:8e:9b:4f:14:
         58:69:a4:36:03:5b:04:47:6d:72:97:ce:90:51:5c:32:f3:71:
         6a:33:3f:d7
-----BEGIN CERTIFICATE-----
MIIECzCCAvOgAwIBAgIRAIv2yL2wDHThNsxXhtWVFrEwDQYJKoZIhvcNAQELBQAw
GzEZMBcGA1UEAwwQSW90U2Nob29sIFN1YiBDQTAeFw0yMTA5MDYwODM4NDJaFw0y
MjA5MDYwODM4NDJaMIGwMQswCQYDVQQGEwJERTEQMA4GA1UECAwHQmF2YXJpYTET
MBEGA1UECgwKSW9UIFNjaG9vbDEVMBMGA1UECwwMUEtJIFNlcnZpY2VzMTkwNwYD
VQQDDDBFMDQ1REZFQjZGNDFBM0IzMDhFMDhEMjk2M0QxRkQ5M0MyQTM4MUExMDNC
QjcwMDExKDAmBgkqhkiG9w0BCQEWGWlvdHNjaG9vbEBtYWlib3Jud29sZmYuZGUw
ggEiMA0GCSqGSIb3DQEBAQUAA4IBDwAwggEKAoIBAQDdbKAhfAfZhrOil2yhGSNZ
8bdNW1OzSG/+UOpy3J0/UjsFCrXBmaRRCCKpTt9D1gOO6LOabA8RjEiFe5guBbyq
n92isc2hYUNKkEnSAuxAx5z21tILPzLLS3jXS/eEyPar+6POHHcp7iF+51iLcGKs
SWIrW+yrHFfLtNAfM+oWtzfZmaNA5wzLPmhpmLmWrI9sZYqyhtgh77c8xjRsjaCJ
Cjejx2A4riT+4wPX9GPnk77aiJN8bqmKzA08NQfKublGv67B6HB1TpbCEPDihgZM
gBvmU9yEswWbMzorgvb88QcpjUJl2GHyoIAL+VW0ywhseGQhGngpkTlDoBhwbAPl
AgMBAAGjgbMwgbAwHwYDVR0jBBgwFoAUGDjur25EfNp4+3z00VzYYEWiFZYwDAYD
VR0TAQH/BAIwADATBgNVHSUEDDAKBggrBgEFBQcDAjAOBgNVHQ8BAf8EBAMCB4Aw
HQYDVR0OBBYEFG5eOl7PhGW8v+sedLiEkvq1QryUMDsGA1UdEQQ0MDKCMEUwNDVE
RkVCNkY0MUEzQjMwOEUwOEQyOTYzRDFGRDkzQzJBMzgxQTEwM0JCNzAwMTANBgkq
hkiG9w0BAQsFAAOCAQEAprYorVIVfYO4ev4KTF2LeW+p2aDZAaa6EnVv44CN/mQ9
MLiJ6AR/DUfo8NBpXw1Nc9Y/7sKrYcLhNgSUgmZT+VAbPVh28B8iQ98cfsKeg+Ig
6dbim7M2NxtNgDGkNRY3zctghhUngzfFdJnC+5mabR2Yt8JZdgv6DzYWnjkAwUCT
vjDhH2WlkYYpHaohGRATBHYQCLn01HaGm44H1P5fW6djVHMBXO9ufLuEepxlmT+6
yXtsacOryKemppo3loW9s4iVx0CHbG4Xc2J41m1t6ugYMv1vl0t/Wkrd6+tf7ehG
U+iyisCOm08UWGmkNgNbBEdtcpfOkFFcMvNxajM/1w==
-----END CERTIFICATE-----
