Certificate:
    Data:
        Version: 3 (0x2)
        Serial Number:
            8b:f6:c8:bd:b0:0c:74:e1:36:cc:57:86:d5:95:16:ae
        Signature Algorithm: sha256WithRSAEncryption
        Issuer: CN=IotSchool Sub CA
        Validity
            Not Before: Sep  6 08:17:26 2021 GMT
            Not After : Sep  6 08:17:26 2022 GMT
        Subject: C=DE, ST=Bavaria, O=IoT School, OU=PKI Services, CN=E1BE915A3807064CDD0D656DA250CDAD7483071D089A9367/emailAddress=iotschool@maibornwolff.de
        Subject Public Key Info:
            Public Key Algorithm: rsaEncryption
                RSA Public-Key: (2048 bit)
                Modulus:
                    00:c4:24:61:53:86:a3:43:44:a5:ec:10:c9:4c:c9:
                    88:0c:bd:47:a7:2f:29:f6:43:e6:55:02:99:47:cd:
                    a0:68:62:1f:bb:55:53:4e:0d:14:4a:ea:98:62:33:
                    91:fe:28:2a:be:c2:4f:2e:53:55:61:65:62:e4:48:
                    01:87:e8:68:db:c2:92:80:d7:e5:6e:3a:1e:f3:8f:
                    bc:e3:14:56:51:1d:43:ca:fd:80:91:b2:53:2f:f5:
                    02:ef:19:ed:54:1a:49:17:c5:7f:4e:9a:c4:2e:fb:
                    9e:d3:5c:f4:f5:1f:fd:9a:13:d5:5e:c9:28:57:b5:
                    dd:ef:22:4e:bc:38:4c:3c:1f:1a:fc:d4:69:2d:83:
                    51:8a:a0:71:f9:3c:8b:47:21:68:b8:86:1f:15:cd:
                    28:0c:cf:6d:ce:42:c2:a0:bf:65:2f:7f:a8:a6:a3:
                    cc:86:53:62:6c:6f:75:e1:56:19:7a:d5:38:5e:6d:
                    23:eb:86:60:ab:5f:b7:df:02:00:fd:7a:1f:e7:28:
                    82:6f:1f:db:da:bb:3b:b4:02:51:89:32:a5:8d:5c:
                    ca:27:59:15:b0:45:03:fc:a9:9d:79:d4:b6:c2:85:
                    60:85:3f:fe:62:ff:f4:7b:b5:b5:dd:4a:ec:9f:9d:
                    0b:3c:3e:19:d6:03:9d:dd:27:55:bd:92:b4:86:de:
                    c7:d1
                Exponent: 65537 (0x10001)
        X509v3 extensions:
            X509v3 Authority Key Identifier: 
                keyid:BB:7B:F0:6A:C8:5E:DA:C4:9D:54:91:27:06:DC:79:F0:FC:B6:07:2B

            X509v3 Basic Constraints: critical
                CA:FALSE
            X509v3 Extended Key Usage: 
                TLS Web Client Authentication
            X509v3 Key Usage: critical
                Digital Signature
            X509v3 Subject Key Identifier: 
                C8:34:2D:E8:8C:D2:7A:13:A3:AB:BE:CD:E4:2A:FE:35:89:03:DB:4D
            X509v3 Subject Alternative Name: 
                DNS:E1BE915A3807064CDD0D656DA250CDAD7483071D089A9367
    Signature Algorithm: sha256WithRSAEncryption
         08:94:14:f2:38:94:61:6f:56:71:52:c0:9a:7a:7b:0a:68:6e:
         95:51:ee:27:35:62:35:7c:56:a2:ee:66:17:68:18:f5:ae:cb:
         d6:09:9e:46:58:8c:52:cb:ad:76:7e:14:23:a2:c8:e5:ac:de:
         a6:e9:47:8b:34:48:f1:8a:37:df:86:ca:de:5a:55:df:61:a7:
         db:f0:9a:00:62:99:81:7f:a0:1d:d5:2d:8a:81:b3:bc:59:71:
         9a:65:d7:45:20:80:b9:8a:9b:79:4a:b0:d8:ba:02:df:ab:fd:
         6e:ec:28:cc:24:d5:0b:2d:b1:12:78:12:ef:aa:f0:3d:82:a9:
         f2:8f:4d:cf:25:ad:19:16:3f:bf:09:74:44:4b:b6:f3:a2:fd:
         8d:df:b7:7e:c7:dc:92:db:a4:57:f2:42:41:89:3b:ee:be:29:
         4a:a3:f4:d1:85:1e:5e:71:4a:69:07:c5:40:5b:5e:21:0a:75:
         6b:24:3c:a7:98:68:25:cc:3a:93:4a:cf:28:0e:5a:6a:7a:cd:
         a8:b8:01:0d:4e:13:77:4f:d3:49:34:90:47:1f:a0:a0:8f:08:
         e9:4b:e9:3b:45:2d:8c:4e:25:7b:92:b7:0d:29:1c:2f:88:8f:
         5e:db:09:b2:4e:8e:6e:95:59:78:ad:42:75:5f:99:b6:85:ed:
         22:a1:b4:53
-----BEGIN CERTIFICATE-----
MIIECzCCAvOgAwIBAgIRAIv2yL2wDHThNsxXhtWVFq4wDQYJKoZIhvcNAQELBQAw
GzEZMBcGA1UEAwwQSW90U2Nob29sIFN1YiBDQTAeFw0yMTA5MDYwODE3MjZaFw0y
MjA5MDYwODE3MjZaMIGwMQswCQYDVQQGEwJERTEQMA4GA1UECAwHQmF2YXJpYTET
MBEGA1UECgwKSW9UIFNjaG9vbDEVMBMGA1UECwwMUEtJIFNlcnZpY2VzMTkwNwYD
VQQDDDBFMUJFOTE1QTM4MDcwNjRDREQwRDY1NkRBMjUwQ0RBRDc0ODMwNzFEMDg5
QTkzNjcxKDAmBgkqhkiG9w0BCQEWGWlvdHNjaG9vbEBtYWlib3Jud29sZmYuZGUw
ggEiMA0GCSqGSIb3DQEBAQUAA4IBDwAwggEKAoIBAQDEJGFThqNDRKXsEMlMyYgM
vUenLyn2Q+ZVAplHzaBoYh+7VVNODRRK6phiM5H+KCq+wk8uU1VhZWLkSAGH6Gjb
wpKA1+VuOh7zj7zjFFZRHUPK/YCRslMv9QLvGe1UGkkXxX9OmsQu+57TXPT1H/2a
E9VeyShXtd3vIk68OEw8Hxr81Gktg1GKoHH5PItHIWi4hh8VzSgMz23OQsKgv2Uv
f6imo8yGU2Jsb3XhVhl61ThebSPrhmCrX7ffAgD9eh/nKIJvH9vauzu0AlGJMqWN
XMonWRWwRQP8qZ151LbChWCFP/5i//R7tbXdSuyfnQs8PhnWA53dJ1W9krSG3sfR
AgMBAAGjgbMwgbAwHwYDVR0jBBgwFoAUu3vwashe2sSdVJEnBtx58Py2ByswDAYD
VR0TAQH/BAIwADATBgNVHSUEDDAKBggrBgEFBQcDAjAOBgNVHQ8BAf8EBAMCB4Aw
HQYDVR0OBBYEFMg0LeiM0noTo6u+zeQq/jWJA9tNMDsGA1UdEQQ0MDKCMEUxQkU5
MTVBMzgwNzA2NENERDBENjU2REEyNTBDREFENzQ4MzA3MUQwODlBOTM2NzANBgkq
hkiG9w0BAQsFAAOCAQEACJQU8jiUYW9WcVLAmnp7CmhulVHuJzViNXxWou5mF2gY
9a7L1gmeRliMUsutdn4UI6LI5azepulHizRI8Yo334bK3lpV32Gn2/CaAGKZgX+g
HdUtioGzvFlxmmXXRSCAuYqbeUqw2LoC36v9buwozCTVCy2xEngS76rwPYKp8o9N
zyWtGRY/vwl0REu286L9jd+3fsfcktukV/JCQYk77r4pSqP00YUeXnFKaQfFQFte
IQp1ayQ8p5hoJcw6k0rPKA5aanrNqLgBDU4Td0/TSTSQRx+goI8I6UvpO0UtjE4l
e5K3DSkcL4iPXtsJsk6ObpVZeK1CdV+ZtoXtIqG0Uw==
-----END CERTIFICATE-----
