Certificate:
    Data:
        Version: 3 (0x2)
        Serial Number:
            8b:f6:c8:bd:b0:0c:74:e1:36:cc:57:86:d5:95:16:ac
        Signature Algorithm: sha256WithRSAEncryption
        Issuer: CN=IotSchool Sub CA
        Validity
            Not Before: Sep  6 08:12:56 2021 GMT
            Not After : Sep  6 08:12:56 2022 GMT
        Subject: C=DE, ST=Bavaria, O=IoT School, OU=PKI Services, CN=wagon14/emailAddress=iotschool@maibornwolff.de
        Subject Public Key Info:
            Public Key Algorithm: rsaEncryption
                RSA Public-Key: (2048 bit)
                Modulus:
                    00:ad:35:2f:3d:ab:d6:95:c2:e8:82:89:b4:b8:c7:
                    4d:5e:f2:ac:69:81:fc:52:1e:b5:6e:1f:f6:69:e1:
                    cc:b9:f2:72:71:85:55:37:67:d8:b5:51:7d:30:9b:
                    79:2c:fc:c0:b2:e3:7d:48:8d:7d:c9:5a:46:44:6f:
                    9a:c8:60:28:b2:bf:e5:11:ae:35:13:d8:a7:e5:e3:
                    e1:cc:c1:b8:03:c5:00:da:44:6b:db:d1:e0:a1:5b:
                    71:72:31:33:0a:45:b4:9b:81:fb:5e:5e:bc:68:75:
                    33:d4:89:84:56:42:95:33:47:58:32:36:dd:cd:0a:
                    58:04:16:7b:ff:70:46:bf:74:2f:25:95:7d:a8:36:
                    a2:a3:6d:ec:95:1f:c7:f4:be:77:b6:3d:d8:30:b8:
                    0b:9f:11:c7:70:62:a2:36:ad:1a:a4:24:02:79:24:
                    51:1d:74:1a:c3:51:86:c5:c5:0e:c4:7e:85:d7:0a:
                    40:30:9c:38:6a:17:a4:74:d4:09:6a:dd:d4:b3:be:
                    01:2b:61:70:59:fc:0b:b7:e0:e1:13:60:49:4f:91:
                    7d:47:a0:03:1e:83:1d:f9:bc:71:c1:d4:5d:df:8f:
                    e6:d1:2d:a5:72:1e:1c:9d:e8:af:5c:c7:7d:60:80:
                    4b:f9:50:4e:94:6e:dc:56:5e:5b:a1:0f:8d:94:3c:
                    56:39
                Exponent: 65537 (0x10001)
        X509v3 extensions:
            X509v3 Authority Key Identifier: 
                keyid:BB:7B:F0:6A:C8:5E:DA:C4:9D:54:91:27:06:DC:79:F0:FC:B6:07:2B

            X509v3 Basic Constraints: critical
                CA:FALSE
            X509v3 Extended Key Usage: 
                TLS Web Client Authentication
            X509v3 Key Usage: critical
                Digital Signature
            X509v3 Subject Key Identifier: 
                CA:79:3D:F7:AB:DD:1B:37:72:0B:32:AE:F6:DB:50:4A:BB:84:1F:8D
            X509v3 Subject Alternative Name: 
                DNS:wagon14
    Signature Algorithm: sha256WithRSAEncryption
         4f:1d:78:71:a2:bd:b5:ae:ab:95:af:98:a4:d4:76:11:0c:af:
         28:89:a1:4e:14:a3:a3:61:85:9e:3b:20:a3:9b:a7:5c:03:20:
         ff:b5:c9:45:d2:b7:21:46:0f:f1:6c:70:18:25:1d:47:c9:e7:
         66:d4:3f:d0:cb:16:1b:ee:37:13:c9:ce:5a:47:9f:25:8d:32:
         19:1c:6e:7f:c2:48:49:84:53:db:5a:05:ba:99:1f:7d:69:27:
         03:38:4a:90:5f:ef:b7:39:d6:29:6d:e0:2a:21:4b:8e:ef:a4:
         b9:f4:29:f3:00:7b:13:74:5b:39:c4:20:ca:33:81:19:ce:8b:
         e3:bf:7b:71:03:0f:8a:5a:66:c4:5e:2a:bb:47:6d:c9:ba:36:
         72:77:89:a4:95:59:74:0d:72:21:11:35:40:5a:a7:09:7f:ba:
         ee:48:b3:c5:8a:a3:4e:82:00:04:0e:b5:bd:d6:c6:1d:02:26:
         c8:60:cc:20:ed:20:be:dd:7a:e8:c5:f8:86:07:6c:fe:88:50:
         da:ea:52:5e:67:4d:ed:ba:e7:56:b6:6b:8d:2e:09:b5:ae:2a:
         b9:f2:05:f8:b6:4d:5d:01:cf:0a:66:05:61:de:ca:2a:12:2b:
         36:40:d0:87:49:79:eb:a2:b2:c2:0e:24:d1:c6:46:b9:9d:52:
         67:72:48:9a
-----BEGIN CERTIFICATE-----
MIIDuTCCAqGgAwIBAgIRAIv2yL2wDHThNsxXhtWVFqwwDQYJKoZIhvcNAQELBQAw
GzEZMBcGA1UEAwwQSW90U2Nob29sIFN1YiBDQTAeFw0yMTA5MDYwODEyNTZaFw0y
MjA5MDYwODEyNTZaMIGHMQswCQYDVQQGEwJERTEQMA4GA1UECAwHQmF2YXJpYTET
MBEGA1UECgwKSW9UIFNjaG9vbDEVMBMGA1UECwwMUEtJIFNlcnZpY2VzMRAwDgYD
VQQDDAd3YWdvbjE0MSgwJgYJKoZIhvcNAQkBFhlpb3RzY2hvb2xAbWFpYm9ybndv
bGZmLmRlMIIBIjANBgkqhkiG9w0BAQEFAAOCAQ8AMIIBCgKCAQEArTUvPavWlcLo
gom0uMdNXvKsaYH8Uh61bh/2aeHMufJycYVVN2fYtVF9MJt5LPzAsuN9SI19yVpG
RG+ayGAosr/lEa41E9in5ePhzMG4A8UA2kRr29HgoVtxcjEzCkW0m4H7Xl68aHUz
1ImEVkKVM0dYMjbdzQpYBBZ7/3BGv3QvJZV9qDaio23slR/H9L53tj3YMLgLnxHH
cGKiNq0apCQCeSRRHXQaw1GGxcUOxH6F1wpAMJw4ahekdNQJat3Us74BK2FwWfwL
t+DhE2BJT5F9R6ADHoMd+bxxwdRd34/m0S2lch4cneivXMd9YIBL+VBOlG7cVl5b
oQ+NlDxWOQIDAQABo4GKMIGHMB8GA1UdIwQYMBaAFLt78GrIXtrEnVSRJwbcefD8
tgcrMAwGA1UdEwEB/wQCMAAwEwYDVR0lBAwwCgYIKwYBBQUHAwIwDgYDVR0PAQH/
BAQDAgeAMB0GA1UdDgQWBBTKeT33q90bN3ILMq7221BKu4QfjTASBgNVHREECzAJ
ggd3YWdvbjE0MA0GCSqGSIb3DQEBCwUAA4IBAQBPHXhxor21rquVr5ik1HYRDK8o
iaFOFKOjYYWeOyCjm6dcAyD/tclF0rchRg/xbHAYJR1Hyedm1D/QyxYb7jcTyc5a
R58ljTIZHG5/wkhJhFPbWgW6mR99aScDOEqQX++3OdYpbeAqIUuO76S59CnzAHsT
dFs5xCDKM4EZzovjv3txAw+KWmbEXiq7R23JujZyd4mklVl0DXIhETVAWqcJf7ru
SLPFiqNOggAEDrW91sYdAibIYMwg7SC+3XroxfiGB2z+iFDa6lJeZ03tuudWtmuN
Lgm1riq58gX4tk1dAc8KZgVh3soqEis2QNCHSXnrorLCDiTRxka5nVJnckia
-----END CERTIFICATE-----
