Certificate:
    Data:
        Version: 3 (0x2)
        Serial Number:
            8b:f6:c8:bd:b0:0c:74:e1:36:cc:57:86:d5:95:16:ab
        Signature Algorithm: sha256WithRSAEncryption
        Issuer: CN=IotSchool Sub CA
        Validity
            Not Before: Sep  6 08:12:46 2021 GMT
            Not After : Sep  6 08:12:46 2022 GMT
        Subject: C=DE, ST=Bavaria, O=IoT School, OU=PKI Services, CN=wagon12/emailAddress=iotschool@maibornwolff.de
        Subject Public Key Info:
            Public Key Algorithm: rsaEncryption
                RSA Public-Key: (2048 bit)
                Modulus:
                    00:e4:e2:f2:97:35:5d:b9:63:83:62:e2:90:3b:72:
                    7c:02:5f:16:74:42:a0:7c:3e:5a:86:bf:ab:8a:9d:
                    5c:13:d8:5d:c0:dc:6b:fb:53:87:e4:cb:ab:14:2e:
                    56:cd:66:99:2f:11:6e:7e:c6:17:de:54:dc:98:91:
                    78:5f:5b:02:b1:45:18:fb:8b:e7:3d:f9:c2:75:ef:
                    d9:89:da:03:c0:5d:d3:70:e9:ec:c2:e2:db:46:dc:
                    a0:d9:45:f5:55:c8:86:3b:2d:af:d8:65:3c:07:51:
                    ab:b0:00:24:8f:08:1d:74:1c:b5:63:9b:04:47:17:
                    06:6c:25:fc:48:db:e2:f7:ee:71:8e:08:cf:9f:46:
                    6c:68:fd:80:0b:8e:f8:95:27:b4:cb:dc:b7:ca:ad:
                    db:e0:5d:fa:d2:ca:7f:61:1d:e0:b3:76:00:e5:f5:
                    17:66:ae:3d:e7:5a:de:bb:5a:33:8d:9e:17:6e:56:
                    a2:77:f7:b7:0a:63:88:c5:4a:e7:44:7f:a2:c2:0e:
                    1e:23:1d:de:ad:4c:b3:12:52:43:1a:0d:33:e3:89:
                    ed:82:78:e9:4f:a9:9b:1e:57:46:c9:b7:07:35:43:
                    72:25:e1:3c:1e:96:80:77:08:81:9e:b1:73:94:5b:
                    b7:f5:40:b5:0d:59:14:21:29:e5:4c:0f:8d:f8:9d:
                    2a:35
                Exponent: 65537 (0x10001)
        X509v3 extensions:
            X509v3 Authority Key Identifier: 
                keyid:BB:7B:F0:6A:C8:5E:DA:C4:9D:54:91:27:06:DC:79:F0:FC:B6:07:2B

            X509v3 Basic Constraints: critical
                CA:FALSE
            X509v3 Extended Key Usage: 
                TLS Web Client Authentication
            X509v3 Key Usage: critical
                Digital Signature
            X509v3 Subject Key Identifier: 
                7D:2B:5A:E4:6C:D6:EC:96:0C:95:98:78:40:5F:53:44:7E:78:97:97
            X509v3 Subject Alternative Name: 
                DNS:wagon12
    Signature Algorithm: sha256WithRSAEncryption
         4a:63:1c:72:fc:a2:03:14:34:e7:4e:1b:6d:7e:eb:41:2c:23:
         a5:c0:75:ca:7e:62:21:92:39:55:92:e7:fa:c4:98:31:61:aa:
         05:ab:45:5e:02:9e:16:c0:6d:5d:83:58:51:3c:fe:47:3a:9d:
         55:f7:a0:34:cd:1b:a0:10:17:6c:19:c6:28:9d:f4:f2:94:fe:
         b8:83:8b:c3:0c:58:6e:d3:b7:53:dc:38:23:1e:8a:12:c2:cc:
         d1:33:0c:6f:79:68:ee:f7:40:d3:dd:ae:43:71:66:60:e3:2f:
         0e:45:bd:a7:69:37:e4:ef:60:2e:e7:e9:86:98:16:b9:35:2b:
         22:5c:f3:93:f4:3a:d6:b6:ac:fd:cc:8b:37:35:7e:4c:db:cc:
         9d:ca:75:13:85:41:57:8a:22:b1:a4:46:84:54:97:5b:52:92:
         b5:8e:b5:ad:d9:27:58:04:0e:75:a1:03:b2:9a:a4:82:be:05:
         70:15:16:d0:b0:c1:ad:f3:3c:5f:73:1a:40:5a:2c:c8:03:79:
         04:71:b0:b9:ec:7a:0c:12:46:01:6b:23:60:6b:ce:81:0d:1b:
         8f:d7:b1:2c:79:29:99:39:4d:86:cf:95:7d:71:04:01:35:2b:
         2c:af:d0:44:47:af:f5:bc:55:47:bb:1e:9c:58:1b:51:93:18:
         71:e5:fa:62
-----BEGIN CERTIFICATE-----
MIIDuTCCAqGgAwIBAgIRAIv2yL2wDHThNsxXhtWVFqswDQYJKoZIhvcNAQELBQAw
GzEZMBcGA1UEAwwQSW90U2Nob29sIFN1YiBDQTAeFw0yMTA5MDYwODEyNDZaFw0y
MjA5MDYwODEyNDZaMIGHMQswCQYDVQQGEwJERTEQMA4GA1UECAwHQmF2YXJpYTET
MBEGA1UECgwKSW9UIFNjaG9vbDEVMBMGA1UECwwMUEtJIFNlcnZpY2VzMRAwDgYD
VQQDDAd3YWdvbjEyMSgwJgYJKoZIhvcNAQkBFhlpb3RzY2hvb2xAbWFpYm9ybndv
bGZmLmRlMIIBIjANBgkqhkiG9w0BAQEFAAOCAQ8AMIIBCgKCAQEA5OLylzVduWOD
YuKQO3J8Al8WdEKgfD5ahr+rip1cE9hdwNxr+1OH5MurFC5WzWaZLxFufsYX3lTc
mJF4X1sCsUUY+4vnPfnCde/ZidoDwF3TcOnswuLbRtyg2UX1VciGOy2v2GU8B1Gr
sAAkjwgddBy1Y5sERxcGbCX8SNvi9+5xjgjPn0ZsaP2AC474lSe0y9y3yq3b4F36
0sp/YR3gs3YA5fUXZq4951reu1ozjZ4Xblaid/e3CmOIxUrnRH+iwg4eIx3erUyz
ElJDGg0z44ntgnjpT6mbHldGybcHNUNyJeE8HpaAdwiBnrFzlFu39UC1DVkUISnl
TA+N+J0qNQIDAQABo4GKMIGHMB8GA1UdIwQYMBaAFLt78GrIXtrEnVSRJwbcefD8
tgcrMAwGA1UdEwEB/wQCMAAwEwYDVR0lBAwwCgYIKwYBBQUHAwIwDgYDVR0PAQH/
BAQDAgeAMB0GA1UdDgQWBBR9K1rkbNbslgyVmHhAX1NEfniXlzASBgNVHREECzAJ
ggd3YWdvbjEyMA0GCSqGSIb3DQEBCwUAA4IBAQBKYxxy/KIDFDTnThttfutBLCOl
wHXKfmIhkjlVkuf6xJgxYaoFq0VeAp4WwG1dg1hRPP5HOp1V96A0zRugEBdsGcYo
nfTylP64g4vDDFhu07dT3DgjHooSwszRMwxveWju90DT3a5DcWZg4y8ORb2naTfk
72Au5+mGmBa5NSsiXPOT9DrWtqz9zIs3NX5M28ydynUThUFXiiKxpEaEVJdbUpK1
jrWt2SdYBA51oQOymqSCvgVwFRbQsMGt8zxfcxpAWizIA3kEcbC57HoMEkYBayNg
a86BDRuP17EseSmZOU2Gz5V9cQQBNSssr9BER6/1vFVHux6cWBtRkxhx5fpi
-----END CERTIFICATE-----
