Certificate:
    Data:
        Version: 3 (0x2)
        Serial Number:
            8b:f6:c8:bd:b0:0c:74:e1:36:cc:57:86:d5:95:16:af
        Signature Algorithm: sha256WithRSAEncryption
        Issuer: CN=IotSchool Sub CA
        Validity
            Not Before: Sep  6 08:17:33 2021 GMT
            Not After : Sep  6 08:17:33 2022 GMT
        Subject: C=DE, ST=Bavaria, O=IoT School, OU=PKI Services, CN=E1BE915A3807064CDD0D656DA250CDAD7483071D089A9367/emailAddress=iotschool@maibornwolff.de
        Subject Public Key Info:
            Public Key Algorithm: rsaEncryption
                RSA Public-Key: (2048 bit)
                Modulus:
                    00:c3:ea:98:a2:df:38:26:c9:60:4f:fc:5f:98:6e:
                    7c:12:a0:82:a6:21:21:40:fc:7f:ac:db:b5:93:f5:
                    69:c5:3a:fd:78:7b:72:d7:11:35:dd:8c:a9:c6:ae:
                    eb:18:d5:a5:61:90:ba:f7:ad:9d:ce:94:52:6c:1a:
                    81:3f:f2:99:e4:dc:50:b7:bb:9c:f3:92:a0:ac:a8:
                    ea:41:26:00:cc:af:aa:ef:d4:18:31:ca:84:8e:bf:
                    a3:ad:9a:c5:9e:59:29:dd:2e:1f:08:b4:df:3b:95:
                    60:d5:54:fd:aa:b0:7e:da:22:bd:86:18:c5:de:de:
                    9c:2e:11:aa:5d:36:37:fa:99:db:76:8e:4a:d2:81:
                    63:8f:45:19:6d:2c:b1:0f:ae:73:2e:42:d1:59:e5:
                    63:42:48:39:e3:d0:c8:e3:d2:16:b9:e5:1f:5e:62:
                    d5:36:2b:58:eb:dd:81:64:c7:5d:a1:a7:48:0e:9b:
                    1b:0d:ab:59:b4:e0:11:d9:81:94:fb:3f:de:9e:79:
                    11:30:b6:8a:15:60:8e:78:3f:a9:50:a5:b0:5a:40:
                    99:06:d2:96:ef:5e:60:3d:63:4b:f8:0f:d3:6b:93:
                    ea:41:67:79:cd:f7:4b:d2:f4:c6:1e:a4:6d:73:43:
                    fb:95:e0:e8:1c:4f:95:6a:5a:86:c7:ee:22:99:0b:
                    f1:1f
                Exponent: 65537 (0x10001)
        X509v3 extensions:
            X509v3 Authority Key Identifier: 
                keyid:18:38:EE:AF:6E:44:7C:DA:78:FB:7C:F4:D1:5C:D8:60:45:A2:15:96

            X509v3 Basic Constraints: critical
                CA:FALSE
            X509v3 Extended Key Usage: 
                TLS Web Client Authentication
            X509v3 Key Usage: critical
                Digital Signature
            X509v3 Subject Key Identifier: 
                AB:6B:FE:34:4A:48:75:41:EF:92:AD:DA:4B:2D:78:7F:E1:37:05:C7
            X509v3 Subject Alternative Name: 
                DNS:E1BE915A3807064CDD0D656DA250CDAD7483071D089A9367
    Signature Algorithm: sha256WithRSAEncryption
         13:75:48:e9:52:7c:f3:82:c2:13:14:2b:09:39:73:29:f0:b1:
         f5:9a:e4:98:22:58:06:8d:ca:80:8a:10:e2:0e:48:3b:b9:12:
         93:14:70:a6:b9:d7:98:79:f7:05:b6:c0:85:e4:1a:c8:19:10:
         0b:69:1c:fb:55:5c:a3:4c:b9:8a:80:dd:3f:18:04:e5:81:19:
         57:10:ee:23:bb:1d:5d:e4:cf:21:2a:3b:27:a6:d1:2e:62:68:
         60:77:e4:47:65:0b:76:e6:c3:0b:73:c9:6a:c8:a5:20:a1:90:
         44:ed:f3:5e:e0:31:c8:a4:25:ad:6e:9a:4e:e3:32:46:39:0d:
         b2:f0:46:e3:dc:8e:d5:9d:e8:c6:66:6e:a7:6c:2c:4b:d6:fe:
         1b:9f:11:5f:69:d9:3e:b5:73:31:7d:59:02:97:64:42:6e:f1:
         08:08:ee:b1:36:11:9c:cf:09:8d:e7:b8:65:0c:74:67:50:78:
         50:71:b9:19:27:f1:9a:5c:b2:ee:b5:8f:27:a3:21:02:1c:fd:
         e4:49:67:9c:d1:a1:44:ed:1e:ae:29:40:89:a9:c3:9c:08:3e:
         4f:16:2d:bf:ba:eb:6b:ce:c8:2c:42:fb:15:33:77:46:80:93:
         1f:48:e5:c6:e6:55:5a:ba:88:f0:4a:d1:b2:23:62:c4:90:52:
         76:ed:06:07
-----BEGIN CERTIFICATE-----
MIIECzCCAvOgAwIBAgIRAIv2yL2wDHThNsxXhtWVFq8wDQYJKoZIhvcNAQELBQAw
GzEZMBcGA1UEAwwQSW90U2Nob29sIFN1YiBDQTAeFw0yMTA5MDYwODE3MzNaFw0y
MjA5MDYwODE3MzNaMIGwMQswCQYDVQQGEwJERTEQMA4GA1UECAwHQmF2YXJpYTET
MBEGA1UECgwKSW9UIFNjaG9vbDEVMBMGA1UECwwMUEtJIFNlcnZpY2VzMTkwNwYD
VQQDDDBFMUJFOTE1QTM4MDcwNjRDREQwRDY1NkRBMjUwQ0RBRDc0ODMwNzFEMDg5
QTkzNjcxKDAmBgkqhkiG9w0BCQEWGWlvdHNjaG9vbEBtYWlib3Jud29sZmYuZGUw
ggEiMA0GCSqGSIb3DQEBAQUAA4IBDwAwggEKAoIBAQDD6pii3zgmyWBP/F+YbnwS
oIKmISFA/H+s27WT9WnFOv14e3LXETXdjKnGrusY1aVhkLr3rZ3OlFJsGoE/8pnk
3FC3u5zzkqCsqOpBJgDMr6rv1BgxyoSOv6OtmsWeWSndLh8ItN87lWDVVP2qsH7a
Ir2GGMXe3pwuEapdNjf6mdt2jkrSgWOPRRltLLEPrnMuQtFZ5WNCSDnj0Mjj0ha5
5R9eYtU2K1jr3YFkx12hp0gOmxsNq1m04BHZgZT7P96eeREwtooVYI54P6lQpbBa
QJkG0pbvXmA9Y0v4D9Nrk+pBZ3nN90vS9MYepG1zQ/uV4OgcT5VqWobH7iKZC/Ef
AgMBAAGjgbMwgbAwHwYDVR0jBBgwFoAUGDjur25EfNp4+3z00VzYYEWiFZYwDAYD
VR0TAQH/BAIwADATBgNVHSUEDDAKBggrBgEFBQcDAjAOBgNVHQ8BAf8EBAMCB4Aw
HQYDVR0OBBYEFKtr/jRKSHVB75Kt2ksteH/hNwXHMDsGA1UdEQQ0MDKCMEUxQkU5
MTVBMzgwNzA2NENERDBENjU2REEyNTBDREFENzQ4MzA3MUQwODlBOTM2NzANBgkq
hkiG9w0BAQsFAAOCAQEAE3VI6VJ884LCExQrCTlzKfCx9ZrkmCJYBo3KgIoQ4g5I
O7kSkxRwprnXmHn3BbbAheQayBkQC2kc+1Vco0y5ioDdPxgE5YEZVxDuI7sdXeTP
ISo7J6bRLmJoYHfkR2ULdubDC3PJasilIKGQRO3zXuAxyKQlrW6aTuMyRjkNsvBG
49yO1Z3oxmZup2wsS9b+G58RX2nZPrVzMX1ZApdkQm7xCAjusTYRnM8Jjee4ZQx0
Z1B4UHG5GSfxmlyy7rWPJ6MhAhz95ElnnNGhRO0erilAianDnAg+TxYtv7rra87I
LEL7FTN3RoCTH0jlxuZVWrqI8ErRsiNixJBSdu0GBw==
-----END CERTIFICATE-----
