Certificate:
    Data:
        Version: 3 (0x2)
        Serial Number:
            ca:10:bc:ca:e3:eb:7e:d5:73:99:3d:e5:18:87:06:9c
        Signature Algorithm: sha256WithRSAEncryption
        Issuer: CN=IotSchool Sub CA
        Validity
            Not Before: Apr 20 09:56:06 2023 GMT
            Not After : Apr 19 09:56:06 2024 GMT
        Subject: C=DE, ST=Bavaria, O=IoT School, OU=PKI Services, CN=tunis-station-tourist-route/emailAddress=iotschool@maibornwolff.de
        Subject Public Key Info:
            Public Key Algorithm: rsaEncryption
                Public-Key: (2048 bit)
                Modulus:
                    00:9e:a9:25:ad:94:e9:bd:4e:be:18:7d:bb:fb:b6:
                    70:d9:18:b1:0b:87:c2:d0:c2:ea:d8:aa:1e:a7:a0:
                    15:52:a3:1d:0e:6e:de:fb:5d:1c:f6:45:38:6b:08:
                    8b:26:50:8a:32:34:45:7d:65:9a:bd:f9:34:45:53:
                    a4:92:3a:aa:3b:30:57:9e:f1:8c:c3:77:d8:f5:a7:
                    ef:43:4e:23:70:de:e6:28:ad:ca:89:7c:46:f7:fd:
                    62:aa:79:a5:4e:e1:59:61:3a:15:3a:6d:b1:58:72:
                    fa:db:1f:06:81:33:21:6f:86:b1:b3:38:1c:01:bc:
                    14:cb:b4:86:b6:e9:77:1f:fa:26:7e:a9:e7:b5:07:
                    65:a5:c3:17:a6:d0:bb:f9:6b:02:0a:f7:2a:26:0d:
                    3a:21:b7:db:f2:0c:65:a9:4d:9d:51:33:75:ab:5d:
                    11:a3:04:73:b3:a6:72:4e:92:13:4d:d8:11:27:2c:
                    75:62:d5:05:c0:fb:f7:9b:da:bf:38:04:fb:78:02:
                    6d:5d:f9:44:74:f4:13:fa:08:a2:e9:d1:bd:1d:01:
                    36:9f:02:5b:ce:36:07:79:01:52:69:cf:df:22:87:
                    6c:3b:2e:93:d4:a6:23:ea:96:05:9e:1c:43:dd:c8:
                    0d:1a:55:89:a0:cb:21:90:30:6e:c5:fb:9f:72:54:
                    c3:3d
                Exponent: 65537 (0x10001)
        X509v3 extensions:
            X509v3 Authority Key Identifier: 
                78:5D:C5:F1:70:AD:1F:CD:E5:EB:F2:EB:EC:F0:71:42:30:5E:CC:3D
            X509v3 Basic Constraints: critical
                CA:FALSE
            X509v3 Extended Key Usage: 
                TLS Web Client Authentication
            X509v3 Key Usage: critical
                Digital Signature
            X509v3 Subject Key Identifier: 
                27:F4:98:BD:9E:27:5D:1A:F2:D2:8C:B3:EE:AC:88:3B:8F:8B:20:94
            X509v3 Subject Alternative Name: 
                DNS:tunis-station-tourist-route
    Signature Algorithm: sha256WithRSAEncryption
    Signature Value:
        97:3a:66:ea:d2:6c:db:f5:6b:8c:eb:08:b4:81:ee:6e:3f:05:
        ca:71:9f:8a:85:5e:c8:d6:86:f6:1b:b0:c2:29:33:18:10:84:
        ec:4f:bd:ac:79:9e:92:67:d1:95:ca:f1:d3:88:31:71:6b:12:
        d0:22:f7:15:5c:32:09:d0:2e:0c:e8:a5:0b:de:9f:de:30:85:
        d6:92:b6:99:eb:60:b1:f2:c9:81:69:8c:db:9d:1f:08:92:dc:
        9e:63:c0:c9:2c:7d:f2:a0:5d:94:b2:fe:44:a5:99:ea:0c:03:
        3f:80:47:20:5e:c5:3f:eb:d3:e3:70:f0:a5:bd:dd:d8:38:e7:
        67:64:72:56:2a:e5:47:da:73:97:f7:6a:cd:1f:e2:9b:4c:2f:
        65:be:ec:3c:4e:c4:bc:83:17:d8:a6:90:af:fd:4f:e8:42:7e:
        3b:2c:93:cf:e0:35:e1:c8:e0:9d:d3:ba:36:fd:85:dd:12:c8:
        e1:cd:fc:e9:a4:cd:12:45:8d:96:57:2a:5f:82:bf:86:03:da:
        46:16:50:f2:31:34:a8:f4:97:d1:75:68:71:23:56:61:8c:33:
        5a:00:ce:88:6e:8c:8c:74:a4:26:65:74:02:c2:7e:54:c9:08:
        c6:e3:2f:f8:27:3d:3b:53:a6:ec:48:32:04:25:a8:f3:52:e4:
        80:7b:be:6a
-----BEGIN CERTIFICATE-----
MIID4TCCAsmgAwIBAgIRAMoQvMrj637Vc5k95RiHBpwwDQYJKoZIhvcNAQELBQAw
GzEZMBcGA1UEAwwQSW90U2Nob29sIFN1YiBDQTAeFw0yMzA0MjAwOTU2MDZaFw0y
NDA0MTkwOTU2MDZaMIGbMQswCQYDVQQGEwJERTEQMA4GA1UECAwHQmF2YXJpYTET
MBEGA1UECgwKSW9UIFNjaG9vbDEVMBMGA1UECwwMUEtJIFNlcnZpY2VzMSQwIgYD
VQQDDBt0dW5pcy1zdGF0aW9uLXRvdXJpc3Qtcm91dGUxKDAmBgkqhkiG9w0BCQEW
GWlvdHNjaG9vbEBtYWlib3Jud29sZmYuZGUwggEiMA0GCSqGSIb3DQEBAQUAA4IB
DwAwggEKAoIBAQCeqSWtlOm9Tr4Yfbv7tnDZGLELh8LQwurYqh6noBVSox0Obt77
XRz2RThrCIsmUIoyNEV9ZZq9+TRFU6SSOqo7MFee8YzDd9j1p+9DTiNw3uYorcqJ
fEb3/WKqeaVO4VlhOhU6bbFYcvrbHwaBMyFvhrGzOBwBvBTLtIa26Xcf+iZ+qee1
B2Wlwxem0Lv5awIK9yomDToht9vyDGWpTZ1RM3WrXRGjBHOzpnJOkhNN2BEnLHVi
1QXA+/eb2r84BPt4Am1d+UR09BP6CKLp0b0dATafAlvONgd5AVJpz98ih2w7LpPU
piPqlgWeHEPdyA0aVYmgyyGQMG7F+59yVMM9AgMBAAGjgZ4wgZswHwYDVR0jBBgw
FoAUeF3F8XCtH83l6/Lr7PBxQjBezD0wDAYDVR0TAQH/BAIwADATBgNVHSUEDDAK
BggrBgEFBQcDAjAOBgNVHQ8BAf8EBAMCB4AwHQYDVR0OBBYEFCf0mL2eJ10a8tKM
s+6siDuPiyCUMCYGA1UdEQQfMB2CG3R1bmlzLXN0YXRpb24tdG91cmlzdC1yb3V0
ZTANBgkqhkiG9w0BAQsFAAOCAQEAlzpm6tJs2/VrjOsItIHubj8FynGfioVeyNaG
9huwwikzGBCE7E+9rHmekmfRlcrx04gxcWsS0CL3FVwyCdAuDOilC96f3jCF1pK2
metgsfLJgWmM250fCJLcnmPAySx98qBdlLL+RKWZ6gwDP4BHIF7FP+vT43Dwpb3d
2DjnZ2RyVirlR9pzl/dqzR/im0wvZb7sPE7EvIMX2KaQr/1P6EJ+OyyTz+A14cjg
ndO6Nv2F3RLI4c386aTNEkWNllcqX4K/hgPaRhZQ8jE0qPSX0XVocSNWYYwzWgDO
iG6MjHSkJmV0AsJ+VMkIxuMv+Cc9O1Om7EgyBCWo81LkgHu+ag==
-----END CERTIFICATE-----
