Certificate:
    Data:
        Version: 3 (0x2)
        Serial Number:
            cc:5a:02:98:b2:f4:36:15:da:1b:73:e9:df:20:10:1e
        Signature Algorithm: sha256WithRSAEncryption
        Issuer: CN=IotSchool Sub CA
        Validity
            Not Before: Aug 31 18:58:05 2021 GMT
            Not After : Aug 31 18:58:05 2022 GMT
        Subject: C=DE, ST=Bavaria, O=IoT School, OU=PKI Services, CN=car/emailAddress=iotschool@maibornwolff.de
        Subject Public Key Info:
            Public Key Algorithm: rsaEncryption
                RSA Public-Key: (2048 bit)
                Modulus:
                    00:a2:ae:62:84:ad:5a:fe:d0:b1:12:2d:0a:18:ea:
                    f3:5e:bf:d1:c6:5b:c5:f3:03:da:21:5e:b7:e7:a7:
                    05:b3:23:21:32:ef:de:6b:2f:55:99:c4:c8:cf:c0:
                    26:d7:3b:b1:8e:ab:ae:4e:93:8d:9e:26:b2:08:ef:
                    59:da:dd:32:f6:ed:d5:de:3b:a0:1e:93:b1:82:ac:
                    a5:58:e0:20:d8:f1:31:22:76:fa:c7:b5:97:a6:ae:
                    cc:c1:8a:1a:15:e5:50:e1:e8:9d:49:ff:2f:ac:21:
                    93:10:a7:86:d5:55:69:16:d2:a9:60:4e:f2:ff:03:
                    59:76:99:6e:cb:04:6c:13:70:d2:10:ad:7a:46:38:
                    1f:19:c5:ff:a0:f2:27:94:ae:1b:57:1d:40:14:55:
                    86:69:1b:77:7a:ee:b6:79:19:91:7f:d3:c3:a9:3d:
                    42:fd:68:34:74:32:6d:a5:99:e9:d5:41:4d:5a:7b:
                    d3:7f:9e:7c:b3:fa:bc:9c:4c:ee:52:29:f4:df:c1:
                    12:51:76:c4:e8:b3:9a:c7:bc:57:6d:46:4b:c6:a4:
                    1d:cf:b2:5a:be:64:13:d0:b7:b2:42:ec:11:1b:c7:
                    2b:81:a6:06:16:85:2f:21:25:d0:db:b7:49:00:34:
                    fa:90:1f:85:54:25:9f:ba:03:69:e6:91:59:bb:2e:
                    12:7f
                Exponent: 65537 (0x10001)
        X509v3 extensions:
            X509v3 Authority Key Identifier: 
                keyid:71:08:BA:12:44:90:81:1C:63:29:A7:46:3D:D3:BC:D0:A4:F1:AE:0F

            X509v3 Basic Constraints: critical
                CA:FALSE
            X509v3 Extended Key Usage: 
                TLS Web Client Authentication
            X509v3 Key Usage: critical
                Digital Signature
            X509v3 Subject Key Identifier: 
                15:93:8C:24:DA:88:23:32:08:0C:41:49:2E:50:8B:FD:2F:52:4C:BD
            X509v3 Subject Alternative Name: 
                DNS:car
    Signature Algorithm: sha256WithRSAEncryption
         7d:08:82:6b:82:3a:c5:4f:08:b0:3f:45:8a:2a:07:6c:dc:e2:
         ef:fb:86:52:ef:34:3d:e4:a0:60:2f:5b:a7:b0:0d:7a:6b:ef:
         24:fe:d9:e6:03:f0:d9:0f:e4:a2:cf:b3:a5:17:ba:f2:7e:de:
         8b:be:4c:b1:a9:4f:ae:25:dd:2b:16:6b:9b:d3:e8:bf:3f:3f:
         a4:4b:93:b2:b7:0e:76:ce:4a:c5:ad:08:41:d0:0e:08:aa:ee:
         10:de:e9:60:bd:6b:93:80:0d:cc:44:0d:04:6a:7c:d6:b4:49:
         b6:c4:f1:0e:a9:ca:97:27:62:86:2f:20:41:34:1f:4a:95:1d:
         d1:a8:23:2f:f2:f2:da:f1:8a:44:05:12:dc:55:e5:fd:da:ea:
         ca:23:c7:df:8e:d3:64:07:a9:7d:c9:27:fb:ba:b8:00:02:64:
         f9:08:50:c0:d6:0d:b0:e7:1e:53:77:0b:72:ab:3f:a8:1e:f3:
         10:9c:79:22:6d:33:d0:fc:65:42:24:bd:43:f3:7f:9b:a3:d9:
         04:86:73:73:81:35:4d:14:dd:47:49:26:f6:38:1c:07:a8:58:
         7f:10:fc:dd:8b:a6:c5:61:ad:9b:a0:2e:56:bc:ab:e5:82:f6:
         b9:a8:9f:09:ea:d4:d9:b6:31:7c:35:fd:10:f4:49:6c:0c:2e:
         be:b9:df:fc
-----BEGIN CERTIFICATE-----
MIIDsTCCApmgAwIBAgIRAMxaApiy9DYV2htz6d8gEB4wDQYJKoZIhvcNAQELBQAw
GzEZMBcGA1UEAwwQSW90U2Nob29sIFN1YiBDQTAeFw0yMTA4MzExODU4MDVaFw0y
MjA4MzExODU4MDVaMIGDMQswCQYDVQQGEwJERTEQMA4GA1UECAwHQmF2YXJpYTET
MBEGA1UECgwKSW9UIFNjaG9vbDEVMBMGA1UECwwMUEtJIFNlcnZpY2VzMQwwCgYD
VQQDDANjYXIxKDAmBgkqhkiG9w0BCQEWGWlvdHNjaG9vbEBtYWlib3Jud29sZmYu
ZGUwggEiMA0GCSqGSIb3DQEBAQUAA4IBDwAwggEKAoIBAQCirmKErVr+0LESLQoY
6vNev9HGW8XzA9ohXrfnpwWzIyEy795rL1WZxMjPwCbXO7GOq65Ok42eJrII71na
3TL27dXeO6Aek7GCrKVY4CDY8TEidvrHtZemrszBihoV5VDh6J1J/y+sIZMQp4bV
VWkW0qlgTvL/A1l2mW7LBGwTcNIQrXpGOB8Zxf+g8ieUrhtXHUAUVYZpG3d67rZ5
GZF/08OpPUL9aDR0Mm2lmenVQU1ae9N/nnyz+rycTO5SKfTfwRJRdsTos5rHvFdt
RkvGpB3Pslq+ZBPQt7JC7BEbxyuBpgYWhS8hJdDbt0kANPqQH4VUJZ+6A2nmkVm7
LhJ/AgMBAAGjgYYwgYMwHwYDVR0jBBgwFoAUcQi6EkSQgRxjKadGPdO80KTxrg8w
DAYDVR0TAQH/BAIwADATBgNVHSUEDDAKBggrBgEFBQcDAjAOBgNVHQ8BAf8EBAMC
B4AwHQYDVR0OBBYEFBWTjCTaiCMyCAxBSS5Qi/0vUky9MA4GA1UdEQQHMAWCA2Nh
cjANBgkqhkiG9w0BAQsFAAOCAQEAfQiCa4I6xU8IsD9FiioHbNzi7/uGUu80PeSg
YC9bp7ANemvvJP7Z5gPw2Q/kos+zpRe68n7ei75MsalPriXdKxZrm9Povz8/pEuT
srcOds5Kxa0IQdAOCKruEN7pYL1rk4ANzEQNBGp81rRJtsTxDqnKlydihi8gQTQf
SpUd0agjL/Ly2vGKRAUS3FXl/drqyiPH347TZAepfckn+7q4AAJk+QhQwNYNsOce
U3cLcqs/qB7zEJx5Im0z0PxlQiS9Q/N/m6PZBIZzc4E1TRTdR0km9jgcB6hYfxD8
3YumxWGtm6AuVryr5YL2uaifCerU2bYxfDX9EPRJbAwuvrnf/A==
-----END CERTIFICATE-----
