Certificate:
    Data:
        Version: 3 (0x2)
        Serial Number:
            cc:5a:02:98:b2:f4:36:15:da:1b:73:e9:df:20:10:20
        Signature Algorithm: sha256WithRSAEncryption
        Issuer: CN=IotSchool Sub CA
        Validity
            Not Before: Aug 31 19:16:32 2021 GMT
            Not After : Aug 31 19:16:32 2022 GMT
        Subject: C=DE, ST=Bavaria, O=IoT School, OU=PKI Services, CN=bus/emailAddress=iotschool@maibornwolff.de
        Subject Public Key Info:
            Public Key Algorithm: rsaEncryption
                RSA Public-Key: (2048 bit)
                Modulus:
                    00:f2:76:75:6e:c0:b3:0e:a0:cf:27:c3:27:f1:ec:
                    b2:79:31:d2:08:11:2d:ad:a0:e7:91:29:4e:af:5b:
                    42:9c:63:3d:7f:e9:65:ba:b0:48:30:ee:95:a3:5d:
                    32:e7:58:ef:c5:a1:89:48:a7:5a:9e:73:bb:fe:87:
                    2c:8e:af:8b:be:52:8b:20:03:84:8f:60:a4:ff:45:
                    87:97:5e:eb:05:23:1f:24:10:fc:68:c0:2d:b8:cc:
                    a8:cb:a4:10:a1:24:ef:b1:cb:9f:ea:a0:5c:f7:cc:
                    a5:87:39:50:2b:6f:41:3e:d5:f7:d4:b7:83:70:00:
                    2f:e6:0c:36:d9:a5:6c:90:9d:e9:27:f6:89:3b:40:
                    3d:41:2e:d2:af:15:20:30:6a:bc:1e:a2:3e:24:78:
                    8f:01:0e:5d:f2:9e:6a:c0:5a:1e:b7:a6:19:19:51:
                    8d:96:2b:da:ac:e7:7a:2c:b1:e1:93:41:0a:4e:56:
                    5e:1f:b8:5b:b3:dc:31:d3:00:c7:2e:cc:2d:ca:b5:
                    33:e0:b1:0f:2e:13:17:d9:ac:b7:9b:74:db:95:88:
                    2e:d3:60:b1:34:1c:a2:24:49:c2:ca:93:48:90:ca:
                    01:3c:12:75:be:f1:a7:ee:1d:12:74:14:10:2a:8b:
                    f5:e9:4d:05:6a:f2:96:b5:0e:f8:14:63:1d:72:a6:
                    c0:17
                Exponent: 65537 (0x10001)
        X509v3 extensions:
            X509v3 Authority Key Identifier: 
                keyid:71:08:BA:12:44:90:81:1C:63:29:A7:46:3D:D3:BC:D0:A4:F1:AE:0F

            X509v3 Basic Constraints: critical
                CA:FALSE
            X509v3 Extended Key Usage: 
                TLS Web Client Authentication
            X509v3 Key Usage: critical
                Digital Signature
            X509v3 Subject Key Identifier: 
                40:2A:A7:88:10:14:37:BE:C7:8D:BE:13:F3:CC:55:56:AE:3F:B5:CE
            X509v3 Subject Alternative Name: 
                DNS:bus
    Signature Algorithm: sha256WithRSAEncryption
         de:59:7a:da:d6:b4:66:cf:95:e0:c4:04:d8:17:61:b0:d7:fb:
         1e:9b:7d:f7:1a:eb:53:c8:85:83:ef:64:15:f8:e7:13:47:7f:
         b4:13:32:79:35:94:54:69:2b:0c:fe:b6:73:d8:e4:02:cb:77:
         15:85:00:9a:c2:dc:16:cb:9a:44:5c:46:8c:a6:c5:5c:f2:6a:
         b9:a1:4b:2b:93:e3:72:81:d6:31:0c:20:cb:09:6c:19:06:fc:
         bd:32:f6:31:89:f3:2b:c1:01:42:67:1f:26:d8:48:b8:f9:35:
         a1:47:19:b0:dd:90:c9:69:05:81:38:7b:f9:87:5a:44:10:4b:
         30:56:1e:f6:64:2f:83:eb:e1:f1:ea:ca:46:41:8b:0d:fe:da:
         fe:43:1a:51:74:d7:69:5f:ce:cf:a4:6f:e6:2f:9f:b4:8e:7a:
         11:ec:25:62:08:94:94:04:c7:8d:9d:19:ac:62:1d:c5:7c:41:
         1d:f4:18:ac:d3:a6:3c:d1:99:61:a8:8c:b7:29:cc:9f:73:68:
         69:e9:b5:4a:75:35:7f:79:2c:f3:0b:46:c0:b1:ca:63:f8:72:
         ea:54:20:c2:8b:72:0d:62:3d:49:aa:e8:6b:e3:5b:57:91:66:
         d4:04:73:4e:18:41:36:b6:55:e9:1b:30:f5:a0:61:ff:81:bc:
         be:15:c9:d5
-----BEGIN CERTIFICATE-----
MIIDsTCCApmgAwIBAgIRAMxaApiy9DYV2htz6d8gECAwDQYJKoZIhvcNAQELBQAw
GzEZMBcGA1UEAwwQSW90U2Nob29sIFN1YiBDQTAeFw0yMTA4MzExOTE2MzJaFw0y
MjA4MzExOTE2MzJaMIGDMQswCQYDVQQGEwJERTEQMA4GA1UECAwHQmF2YXJpYTET
MBEGA1UECgwKSW9UIFNjaG9vbDEVMBMGA1UECwwMUEtJIFNlcnZpY2VzMQwwCgYD
VQQDDANidXMxKDAmBgkqhkiG9w0BCQEWGWlvdHNjaG9vbEBtYWlib3Jud29sZmYu
ZGUwggEiMA0GCSqGSIb3DQEBAQUAA4IBDwAwggEKAoIBAQDydnVuwLMOoM8nwyfx
7LJ5MdIIES2toOeRKU6vW0KcYz1/6WW6sEgw7pWjXTLnWO/FoYlIp1qec7v+hyyO
r4u+UosgA4SPYKT/RYeXXusFIx8kEPxowC24zKjLpBChJO+xy5/qoFz3zKWHOVAr
b0E+1ffUt4NwAC/mDDbZpWyQnekn9ok7QD1BLtKvFSAwarweoj4keI8BDl3ynmrA
Wh63phkZUY2WK9qs53osseGTQQpOVl4fuFuz3DHTAMcuzC3KtTPgsQ8uExfZrLeb
dNuViC7TYLE0HKIkScLKk0iQygE8EnW+8afuHRJ0FBAqi/XpTQVq8pa1DvgUYx1y
psAXAgMBAAGjgYYwgYMwHwYDVR0jBBgwFoAUcQi6EkSQgRxjKadGPdO80KTxrg8w
DAYDVR0TAQH/BAIwADATBgNVHSUEDDAKBggrBgEFBQcDAjAOBgNVHQ8BAf8EBAMC
B4AwHQYDVR0OBBYEFEAqp4gQFDe+x42+E/PMVVauP7XOMA4GA1UdEQQHMAWCA2J1
czANBgkqhkiG9w0BAQsFAAOCAQEA3ll62ta0Zs+V4MQE2BdhsNf7Hpt99xrrU8iF
g+9kFfjnE0d/tBMyeTWUVGkrDP62c9jkAst3FYUAmsLcFsuaRFxGjKbFXPJquaFL
K5PjcoHWMQwgywlsGQb8vTL2MYnzK8EBQmcfJthIuPk1oUcZsN2QyWkFgTh7+Yda
RBBLMFYe9mQvg+vh8erKRkGLDf7a/kMaUXTXaV/Oz6Rv5i+ftI56EewlYgiUlATH
jZ0ZrGIdxXxBHfQYrNOmPNGZYaiMtynMn3Noaem1SnU1f3ks8wtGwLHKY/hy6lQg
wotyDWI9Saroa+NbV5Fm1ARzThhBNrZV6Rsw9aBh/4G8vhXJ1Q==
-----END CERTIFICATE-----
