Certificate:
    Data:
        Version: 3 (0x2)
        Serial Number:
            cc:5a:02:98:b2:f4:36:15:da:1b:73:e9:df:20:10:1f
        Signature Algorithm: sha256WithRSAEncryption
        Issuer: CN=IotSchool Sub CA
        Validity
            Not Before: Aug 31 18:59:35 2021 GMT
            Not After : Aug 31 18:59:35 2022 GMT
        Subject: C=DE, ST=Bavaria, O=IoT School, OU=PKI Services, CN=E1BE915A3807064CDD0D656DA250CDAD7483071D089A9367/emailAddress=iotschool@maibornwolff.de
        Subject Public Key Info:
            Public Key Algorithm: rsaEncryption
                RSA Public-Key: (2048 bit)
                Modulus:
                    00:d4:ce:26:3b:ac:a4:fe:94:2d:5c:55:25:b4:98:
                    47:c1:43:59:ca:46:72:a3:3d:9c:59:e6:87:c0:3b:
                    5b:44:a3:62:12:10:88:0d:f1:2f:5d:3b:70:b7:ab:
                    31:df:e9:1f:21:25:f3:ac:b7:00:bd:43:a1:d9:3c:
                    e8:1b:f9:a3:62:0e:88:f9:d0:37:71:17:11:a8:5d:
                    d2:a9:3c:22:2b:b7:06:91:b1:6a:05:9e:8a:72:45:
                    2a:a7:c9:60:2d:54:a9:f4:72:f7:cb:2c:49:18:ca:
                    cb:15:96:8b:aa:c0:a4:3c:a1:30:b0:a4:79:ce:f4:
                    a8:56:31:85:69:c7:22:fb:cb:22:e9:f1:60:32:e4:
                    fc:63:e1:0f:69:82:8d:f6:3b:49:63:b8:25:f8:d0:
                    8b:6e:c7:d2:00:f0:d1:17:c6:fc:cb:da:42:fd:93:
                    05:11:59:e1:86:09:60:7f:a7:be:ed:ff:e6:d7:bb:
                    f3:8c:84:af:e3:1f:5f:07:57:fb:92:2d:a0:59:3c:
                    98:00:1f:d8:93:95:da:65:bd:2f:47:9a:e1:69:b2:
                    b9:5b:39:06:70:3a:34:17:bb:05:f8:a1:10:2a:fe:
                    b2:84:4d:b2:59:b6:ad:d0:a9:f9:c8:90:fc:fd:f7:
                    25:d0:3b:85:6b:a2:41:96:57:9f:99:e4:89:57:ff:
                    35:8d
                Exponent: 65537 (0x10001)
        X509v3 extensions:
            X509v3 Authority Key Identifier: 
                keyid:71:08:BA:12:44:90:81:1C:63:29:A7:46:3D:D3:BC:D0:A4:F1:AE:0F

            X509v3 Basic Constraints: critical
                CA:FALSE
            X509v3 Extended Key Usage: 
                TLS Web Client Authentication
            X509v3 Key Usage: critical
                Digital Signature
            X509v3 Subject Key Identifier: 
                1F:AD:BD:A5:08:D6:7C:40:31:CB:D0:83:FB:50:DC:30:E7:22:B5:C9
            X509v3 Subject Alternative Name: 
                DNS:E1BE915A3807064CDD0D656DA250CDAD7483071D089A9367
    Signature Algorithm: sha256WithRSAEncryption
         9f:9f:95:28:57:85:0d:cf:07:ba:2c:79:58:ba:f8:89:ab:7f:
         d3:ad:c5:0f:da:a1:be:db:2c:55:e3:a0:4a:8f:72:5c:0d:e6:
         28:4a:5f:d4:4b:5c:1b:4f:86:4d:ff:bd:7b:1c:b0:2a:30:9b:
         24:ce:92:14:5b:08:44:34:0c:48:a1:f3:a0:ed:84:be:f0:66:
         eb:63:ef:90:cc:b3:46:87:ef:56:35:3a:13:34:97:8a:bf:d9:
         79:ff:1d:e3:d2:5c:cc:77:56:04:ac:dc:c7:79:dd:0f:9f:d0:
         3b:98:7d:f4:f9:b3:82:cf:53:ea:2a:29:f6:6c:81:58:f2:10:
         24:1e:fb:c9:12:86:9a:03:4d:cb:ad:a9:dc:a9:4f:1f:fa:12:
         be:c6:ae:35:4f:4c:61:f7:e7:0c:0d:1f:4a:86:4d:f5:08:35:
         cc:b9:3f:0e:c1:31:4c:08:c0:cb:b3:ec:f6:a5:43:94:d2:d3:
         a7:04:0d:fa:78:b6:55:77:8f:03:be:de:ca:f0:ea:31:82:8c:
         2a:ef:59:fe:9d:4a:23:82:45:b2:da:6f:9c:15:b2:f3:b4:69:
         80:54:18:db:d9:bd:d2:cf:84:11:b5:06:ee:05:db:34:e7:cd:
         67:a8:f7:a1:bf:15:99:5b:7b:df:0e:5d:1b:1c:18:8d:d3:5f:
         43:0f:a5:5e
-----BEGIN CERTIFICATE-----
MIIECzCCAvOgAwIBAgIRAMxaApiy9DYV2htz6d8gEB8wDQYJKoZIhvcNAQELBQAw
GzEZMBcGA1UEAwwQSW90U2Nob29sIFN1YiBDQTAeFw0yMTA4MzExODU5MzVaFw0y
MjA4MzExODU5MzVaMIGwMQswCQYDVQQGEwJERTEQMA4GA1UECAwHQmF2YXJpYTET
MBEGA1UECgwKSW9UIFNjaG9vbDEVMBMGA1UECwwMUEtJIFNlcnZpY2VzMTkwNwYD
VQQDDDBFMUJFOTE1QTM4MDcwNjRDREQwRDY1NkRBMjUwQ0RBRDc0ODMwNzFEMDg5
QTkzNjcxKDAmBgkqhkiG9w0BCQEWGWlvdHNjaG9vbEBtYWlib3Jud29sZmYuZGUw
ggEiMA0GCSqGSIb3DQEBAQUAA4IBDwAwggEKAoIBAQDUziY7rKT+lC1cVSW0mEfB
Q1nKRnKjPZxZ5ofAO1tEo2ISEIgN8S9dO3C3qzHf6R8hJfOstwC9Q6HZPOgb+aNi
Doj50DdxFxGoXdKpPCIrtwaRsWoFnopyRSqnyWAtVKn0cvfLLEkYyssVlouqwKQ8
oTCwpHnO9KhWMYVpxyL7yyLp8WAy5Pxj4Q9pgo32O0ljuCX40Itux9IA8NEXxvzL
2kL9kwURWeGGCWB/p77t/+bXu/OMhK/jH18HV/uSLaBZPJgAH9iTldplvS9HmuFp
srlbOQZwOjQXuwX4oRAq/rKETbJZtq3QqfnIkPz99yXQO4VrokGWV5+Z5IlX/zWN
AgMBAAGjgbMwgbAwHwYDVR0jBBgwFoAUcQi6EkSQgRxjKadGPdO80KTxrg8wDAYD
VR0TAQH/BAIwADATBgNVHSUEDDAKBggrBgEFBQcDAjAOBgNVHQ8BAf8EBAMCB4Aw
HQYDVR0OBBYEFB+tvaUI1nxAMcvQg/tQ3DDnIrXJMDsGA1UdEQQ0MDKCMEUxQkU5
MTVBMzgwNzA2NENERDBENjU2REEyNTBDREFENzQ4MzA3MUQwODlBOTM2NzANBgkq
hkiG9w0BAQsFAAOCAQEAn5+VKFeFDc8Huix5WLr4iat/063FD9qhvtssVeOgSo9y
XA3mKEpf1EtcG0+GTf+9exywKjCbJM6SFFsIRDQMSKHzoO2EvvBm62PvkMyzRofv
VjU6EzSXir/Zef8d49JczHdWBKzcx3ndD5/QO5h99Pmzgs9T6iop9myBWPIQJB77
yRKGmgNNy62p3KlPH/oSvsauNU9MYffnDA0fSoZN9Qg1zLk/DsExTAjAy7Ps9qVD
lNLTpwQN+ni2VXePA77eyvDqMYKMKu9Z/p1KI4JFstpvnBWy87RpgFQY29m90s+E
EbUG7gXbNOfNZ6j3ob8VmVt73w5dGxwYjdNfQw+lXg==
-----END CERTIFICATE-----
