Certificate:
    Data:
        Version: 3 (0x2)
        Serial Number:
            f1:1c:5b:73:48:52:bb:3e:c3:11:a2:4b:15:b6:d9:49
        Signature Algorithm: sha256WithRSAEncryption
        Issuer: CN=IotSchool Sub CA
        Validity
            Not Before: Apr 13 08:17:46 2023 GMT
            Not After : Apr 12 08:17:46 2024 GMT
        Subject: C=DE, ST=Bavaria, O=IoT School, OU=PKI Services, CN=airportroute/emailAddress=iotschool@maibornwolff.de
        Subject Public Key Info:
            Public Key Algorithm: rsaEncryption
                Public-Key: (2048 bit)
                Modulus:
                    00:87:8a:ba:3b:73:fe:79:7f:49:29:de:92:52:69:
                    38:ba:e7:45:9f:58:23:d4:a3:bd:cb:b5:10:d5:2f:
                    c3:1e:06:59:ea:c0:70:19:47:13:ca:0f:fc:ad:45:
                    ac:07:41:65:ba:49:e0:01:b0:5b:33:08:ff:cb:fa:
                    94:c2:77:28:6e:b7:ad:3f:63:b8:5a:6b:bf:83:44:
                    bb:7b:97:8a:7d:1f:97:5a:38:cc:a3:df:99:aa:d8:
                    9f:3e:c3:14:8b:b6:ee:f8:ed:17:11:bb:66:8a:ba:
                    6b:b6:98:82:53:0f:ef:c7:ca:8c:1a:c2:a9:e9:59:
                    21:39:b2:39:d2:fe:99:2f:e6:90:6f:20:7d:3c:d9:
                    63:1a:3b:06:4e:68:7f:82:5f:83:dd:52:ee:b9:33:
                    26:f3:ee:b9:ed:25:f9:6f:37:d2:9b:4f:95:d2:75:
                    d5:b5:75:55:17:ab:a6:6b:5d:ba:ce:70:89:e3:19:
                    8e:e1:80:33:37:de:69:9f:ee:fa:5f:af:05:3a:25:
                    ea:f5:d5:72:d5:f8:b0:d3:da:3b:9b:76:e1:38:f5:
                    62:84:53:5c:b7:0b:7c:90:98:78:5e:4e:dc:a0:6f:
                    27:7e:86:c0:0a:c3:a9:3b:36:b6:15:67:d6:55:d9:
                    ae:b2:58:16:57:29:db:44:06:62:a9:e6:9e:67:b8:
                    44:95
                Exponent: 65537 (0x10001)
        X509v3 extensions:
            X509v3 Authority Key Identifier: 
                37:E5:BD:53:E9:45:AB:12:9B:7D:5B:B8:38:21:BF:8A:88:C5:78:BE
            X509v3 Basic Constraints: critical
                CA:FALSE
            X509v3 Extended Key Usage: 
                TLS Web Client Authentication
            X509v3 Key Usage: critical
                Digital Signature
            X509v3 Subject Key Identifier: 
                80:58:A3:FE:A8:91:12:06:BA:04:14:AD:F7:32:B1:7F:E8:4E:7D:C7
            X509v3 Subject Alternative Name: 
                DNS:airportroute
    Signature Algorithm: sha256WithRSAEncryption
    Signature Value:
        cd:a6:10:3d:e4:47:3f:8f:86:39:64:86:1c:1d:50:34:95:c3:
        33:94:62:39:86:71:76:6a:1b:e5:28:df:fe:16:5f:71:8d:bb:
        52:a8:6e:7c:54:a5:e1:72:ef:cc:9b:78:da:7f:9e:9e:08:06:
        66:5a:f5:c9:84:7d:4d:01:ab:a3:10:52:17:73:ea:1d:32:d2:
        12:f7:7f:19:7f:06:47:cf:1d:46:d1:b2:87:48:00:2b:88:65:
        6a:95:c5:4a:11:81:54:01:1e:36:d6:0a:58:6f:8c:98:b6:a7:
        a9:eb:bb:c1:3a:3a:b0:21:71:4e:48:30:5e:63:a1:48:72:e7:
        79:5e:cd:9c:0e:95:9f:e1:5f:5f:c3:73:3e:34:e3:79:db:1f:
        1e:4f:84:2c:d2:6c:53:92:61:31:20:36:0a:3d:57:1f:40:18:
        be:2e:75:4f:3c:08:bb:9e:29:4a:2d:1d:b8:fe:72:15:67:38:
        8c:25:c6:ea:a8:d8:78:44:ed:1a:c5:24:e0:f1:84:f8:02:f1:
        55:1c:b4:57:a8:f7:06:a6:aa:58:14:36:e4:8d:29:ea:cc:e6:
        1f:12:b2:2b:0c:b5:b7:69:ad:56:a3:a5:e9:5c:5b:7a:31:12:
        0e:5b:cc:b2:d2:69:f6:f7:08:ee:08:92:9e:83:4a:38:bd:f9:
        07:54:b1:40
-----BEGIN CERTIFICATE-----
MIIDwzCCAqugAwIBAgIRAPEcW3NIUrs+wxGiSxW22UkwDQYJKoZIhvcNAQELBQAw
GzEZMBcGA1UEAwwQSW90U2Nob29sIFN1YiBDQTAeFw0yMzA0MTMwODE3NDZaFw0y
NDA0MTIwODE3NDZaMIGMMQswCQYDVQQGEwJERTEQMA4GA1UECAwHQmF2YXJpYTET
MBEGA1UECgwKSW9UIFNjaG9vbDEVMBMGA1UECwwMUEtJIFNlcnZpY2VzMRUwEwYD
VQQDDAxhaXJwb3J0cm91dGUxKDAmBgkqhkiG9w0BCQEWGWlvdHNjaG9vbEBtYWli
b3Jud29sZmYuZGUwggEiMA0GCSqGSIb3DQEBAQUAA4IBDwAwggEKAoIBAQCHiro7
c/55f0kp3pJSaTi650WfWCPUo73LtRDVL8MeBlnqwHAZRxPKD/ytRawHQWW6SeAB
sFszCP/L+pTCdyhut60/Y7haa7+DRLt7l4p9H5daOMyj35mq2J8+wxSLtu747RcR
u2aKumu2mIJTD+/HyowawqnpWSE5sjnS/pkv5pBvIH082WMaOwZOaH+CX4PdUu65
Mybz7rntJflvN9KbT5XSddW1dVUXq6ZrXbrOcInjGY7hgDM33mmf7vpfrwU6Jer1
1XLV+LDT2jubduE49WKEU1y3C3yQmHheTtygbyd+hsAKw6k7NrYVZ9ZV2a6yWBZX
KdtEBmKp5p5nuESVAgMBAAGjgY8wgYwwHwYDVR0jBBgwFoAUN+W9U+lFqxKbfVu4
OCG/iojFeL4wDAYDVR0TAQH/BAIwADATBgNVHSUEDDAKBggrBgEFBQcDAjAOBgNV
HQ8BAf8EBAMCB4AwHQYDVR0OBBYEFIBYo/6okRIGugQUrfcysX/oTn3HMBcGA1Ud
EQQQMA6CDGFpcnBvcnRyb3V0ZTANBgkqhkiG9w0BAQsFAAOCAQEAzaYQPeRHP4+G
OWSGHB1QNJXDM5RiOYZxdmob5Sjf/hZfcY27UqhufFSl4XLvzJt42n+enggGZlr1
yYR9TQGroxBSF3PqHTLSEvd/GX8GR88dRtGyh0gAK4hlapXFShGBVAEeNtYKWG+M
mLanqeu7wTo6sCFxTkgwXmOhSHLneV7NnA6Vn+FfX8NzPjTjedsfHk+ELNJsU5Jh
MSA2Cj1XH0AYvi51TzwIu54pSi0duP5yFWc4jCXG6qjYeETtGsUk4PGE+ALxVRy0
V6j3BqaqWBQ25I0p6szmHxKyKwy1t2mtVqOl6VxbejESDlvMstJp9vcI7giSnoNK
OL35B1SxQA==
-----END CERTIFICATE-----
