Certificate:
    Data:
        Version: 3 (0x2)
        Serial Number:
            f1:1c:5b:73:48:52:bb:3e:c3:11:a2:4b:15:b6:d9:4a
        Signature Algorithm: sha256WithRSAEncryption
        Issuer: CN=IotSchool Sub CA
        Validity
            Not Before: Apr 13 08:30:28 2023 GMT
            Not After : Apr 12 08:30:28 2024 GMT
        Subject: C=DE, ST=Bavaria, O=IoT School, OU=PKI Services, CN=7B4D61B98199C6ACE71FE9123B14E3C41E7A9E74AF9DF750/emailAddress=iotschool@maibornwolff.de
        Subject Public Key Info:
            Public Key Algorithm: rsaEncryption
                Public-Key: (2048 bit)
                Modulus:
                    00:bc:3a:8f:65:6c:d7:9b:5e:57:de:93:51:28:fa:
                    e7:8c:83:4c:83:2e:e3:02:9b:55:16:58:2e:14:f6:
                    99:79:f4:ed:1a:33:3c:d1:85:ec:2e:45:0f:7e:ac:
                    2d:cb:0f:6b:1a:41:f8:43:40:c1:0f:cd:be:82:97:
                    31:ce:5a:f1:48:64:f6:6d:cb:5b:ef:56:f2:05:33:
                    71:7e:ac:60:de:c9:83:6d:24:3c:20:44:c8:b4:ef:
                    a3:6f:0a:d3:dd:24:9d:a5:20:dd:e9:21:3c:4e:7d:
                    52:63:ca:89:9e:a4:88:4c:ea:2d:92:ff:bc:6f:a6:
                    ae:52:9b:f0:4c:9b:5f:40:92:2d:0d:b1:55:04:f0:
                    21:ef:0b:cf:c2:0c:bc:76:c9:70:66:84:96:0e:6d:
                    13:e1:af:07:5a:a3:57:6b:f1:85:04:80:03:15:88:
                    77:0d:b5:d1:02:38:a0:42:7e:ed:c7:37:c0:e8:ca:
                    c2:9e:5b:0e:57:02:b2:a2:25:2b:e6:07:38:55:fc:
                    8f:65:92:c8:46:67:00:6e:de:af:52:fd:7c:6e:fc:
                    85:56:b6:22:57:c7:7c:eb:d1:eb:eb:4c:d7:42:f1:
                    4e:fb:4a:5a:27:50:c5:c0:5d:47:47:04:3b:3e:8e:
                    75:08:fb:23:a3:d1:37:a9:ce:6a:25:d4:88:b8:95:
                    e6:f1
                Exponent: 65537 (0x10001)
        X509v3 extensions:
            X509v3 Authority Key Identifier: 
                37:E5:BD:53:E9:45:AB:12:9B:7D:5B:B8:38:21:BF:8A:88:C5:78:BE
            X509v3 Basic Constraints: critical
                CA:FALSE
            X509v3 Extended Key Usage: 
                TLS Web Client Authentication
            X509v3 Key Usage: critical
                Digital Signature
            X509v3 Subject Key Identifier: 
                32:92:DE:D9:A1:E4:E5:BC:3F:EE:D7:D3:3B:51:77:EC:F4:80:02:A4
            X509v3 Subject Alternative Name: 
                DNS:7B4D61B98199C6ACE71FE9123B14E3C41E7A9E74AF9DF750
    Signature Algorithm: sha256WithRSAEncryption
    Signature Value:
        5f:11:e9:67:59:b4:b8:ff:a0:c2:8e:47:08:28:e8:59:03:04:
        ca:dc:8e:aa:2c:bc:bf:11:66:aa:d0:2e:dc:5e:fc:fe:11:d4:
        65:6a:7c:ec:32:8c:28:3c:c0:8c:c9:19:2d:9a:29:ba:36:59:
        63:d7:a3:72:a1:57:f6:74:cb:f4:9a:28:c8:40:da:bc:e4:10:
        a7:0b:b3:4c:f2:59:b6:7b:44:8d:24:04:f8:ba:46:a4:be:1b:
        c3:b1:9b:23:30:28:c3:d8:49:0f:e3:e8:0b:66:b2:c1:0f:de:
        d6:b4:66:30:28:0c:94:b6:6d:7f:15:1b:5b:22:3c:37:61:f7:
        bf:72:a9:71:83:6f:f6:a6:af:7a:f4:03:ce:97:24:a3:41:49:
        29:9d:36:a1:a0:2b:f6:5a:6d:04:2a:a7:45:b8:79:5d:1a:24:
        e5:e3:1a:55:d4:f8:64:b6:c1:af:c2:ba:21:3b:b1:3b:ea:07:
        0d:61:2e:55:84:2c:e9:07:0a:dc:b4:d4:ec:53:07:e0:f5:2e:
        12:ef:d8:db:3c:68:73:77:90:44:b0:65:ea:74:75:ba:e8:a1:
        52:de:36:36:c2:79:40:d9:3d:59:83:80:29:8a:10:ca:ec:33:
        ff:18:0e:af:a9:b0:52:ae:65:0c:d9:2e:0c:f2:3f:a4:e1:33:
        82:47:66:50
-----BEGIN CERTIFICATE-----
MIIECzCCAvOgAwIBAgIRAPEcW3NIUrs+wxGiSxW22UowDQYJKoZIhvcNAQELBQAw
GzEZMBcGA1UEAwwQSW90U2Nob29sIFN1YiBDQTAeFw0yMzA0MTMwODMwMjhaFw0y
NDA0MTIwODMwMjhaMIGwMQswCQYDVQQGEwJERTEQMA4GA1UECAwHQmF2YXJpYTET
MBEGA1UECgwKSW9UIFNjaG9vbDEVMBMGA1UECwwMUEtJIFNlcnZpY2VzMTkwNwYD
VQQDDDA3QjRENjFCOTgxOTlDNkFDRTcxRkU5MTIzQjE0RTNDNDFFN0E5RTc0QUY5
REY3NTAxKDAmBgkqhkiG9w0BCQEWGWlvdHNjaG9vbEBtYWlib3Jud29sZmYuZGUw
ggEiMA0GCSqGSIb3DQEBAQUAA4IBDwAwggEKAoIBAQC8Oo9lbNebXlfek1Eo+ueM
g0yDLuMCm1UWWC4U9pl59O0aMzzRhewuRQ9+rC3LD2saQfhDQMEPzb6ClzHOWvFI
ZPZty1vvVvIFM3F+rGDeyYNtJDwgRMi076NvCtPdJJ2lIN3pITxOfVJjyomepIhM
6i2S/7xvpq5Sm/BMm19Aki0NsVUE8CHvC8/CDLx2yXBmhJYObRPhrwdao1dr8YUE
gAMViHcNtdECOKBCfu3HN8DoysKeWw5XArKiJSvmBzhV/I9lkshGZwBu3q9S/Xxu
/IVWtiJXx3zr0evrTNdC8U77SlonUMXAXUdHBDs+jnUI+yOj0Tepzmol1Ii4lebx
AgMBAAGjgbMwgbAwHwYDVR0jBBgwFoAUN+W9U+lFqxKbfVu4OCG/iojFeL4wDAYD
VR0TAQH/BAIwADATBgNVHSUEDDAKBggrBgEFBQcDAjAOBgNVHQ8BAf8EBAMCB4Aw
HQYDVR0OBBYEFDKS3tmh5OW8P+7X0ztRd+z0gAKkMDsGA1UdEQQ0MDKCMDdCNEQ2
MUI5ODE5OUM2QUNFNzFGRTkxMjNCMTRFM0M0MUU3QTlFNzRBRjlERjc1MDANBgkq
hkiG9w0BAQsFAAOCAQEAXxHpZ1m0uP+gwo5HCCjoWQMEytyOqiy8vxFmqtAu3F78
/hHUZWp87DKMKDzAjMkZLZopujZZY9ejcqFX9nTL9JooyEDavOQQpwuzTPJZtntE
jSQE+LpGpL4bw7GbIzAow9hJD+PoC2aywQ/e1rRmMCgMlLZtfxUbWyI8N2H3v3Kp
cYNv9qavevQDzpcko0FJKZ02oaAr9lptBCqnRbh5XRok5eMaVdT4ZLbBr8K6ITux
O+oHDWEuVYQs6QcK3LTU7FMH4PUuEu/Y2zxoc3eQRLBl6nR1uuihUt42NsJ5QNk9
WYOAKYoQyuwz/xgOr6mwUq5lDNkuDPI/pOEzgkdmUA==
-----END CERTIFICATE-----
