Certificate:
    Data:
        Version: 3 (0x2)
        Serial Number:
            f1:1c:5b:73:48:52:bb:3e:c3:11:a2:4b:15:b6:d9:47
        Signature Algorithm: sha256WithRSAEncryption
        Issuer: CN=IotSchool Sub CA
        Validity
            Not Before: Apr 13 08:16:16 2023 GMT
            Not After : Apr 12 08:16:16 2024 GMT
        Subject: C=DE, ST=Bavaria, O=IoT School, OU=PKI Services, CN=31B5FF3F3EDDED903487BFE693DDBD519A5DCCF94E514BE0/emailAddress=iotschool@maibornwolff.de
        Subject Public Key Info:
            Public Key Algorithm: rsaEncryption
                Public-Key: (2048 bit)
                Modulus:
                    00:c4:6e:db:9e:39:b6:79:ec:48:d2:7b:2e:aa:f7:
                    b7:4e:96:b1:fc:e2:12:49:dc:5f:1b:a1:d8:75:cf:
                    46:98:6f:b3:55:47:c1:e2:a2:07:2d:3f:eb:99:a3:
                    34:9d:61:1b:99:78:2c:a2:12:b3:8c:cb:a7:02:d6:
                    b2:5b:85:4e:01:80:50:d4:84:aa:e2:a4:9d:89:2f:
                    9b:08:6b:53:09:de:b5:be:ae:4d:e1:de:e9:a0:b3:
                    22:3c:b9:5b:ba:08:b0:b7:50:24:64:53:da:fa:aa:
                    a2:06:7c:66:6f:03:97:a8:6b:c5:6a:30:18:d0:ae:
                    91:9f:f5:66:c6:c9:3a:1a:00:2a:c4:17:53:34:5a:
                    63:65:8f:7c:ef:49:72:22:78:33:9b:98:a5:ab:6a:
                    6c:79:cf:7d:ce:ca:a5:65:09:53:a1:19:88:68:8f:
                    ae:b2:2c:7a:24:bc:e9:f9:e7:3b:20:a9:d2:c4:80:
                    b8:d6:c1:b5:49:07:b6:74:45:90:a0:a8:ea:db:30:
                    32:2c:0f:56:7c:8d:ee:2b:88:8d:27:44:26:59:d7:
                    81:92:cc:c0:d1:97:e6:78:ea:2a:40:13:85:ce:8b:
                    e9:d2:88:56:3d:31:64:0d:ec:d8:64:e1:93:e0:89:
                    00:3f:3a:0d:47:c2:0f:41:4b:f3:e4:e9:bc:6d:44:
                    37:65
                Exponent: 65537 (0x10001)
        X509v3 extensions:
            X509v3 Authority Key Identifier: 
                37:E5:BD:53:E9:45:AB:12:9B:7D:5B:B8:38:21:BF:8A:88:C5:78:BE
            X509v3 Basic Constraints: critical
                CA:FALSE
            X509v3 Extended Key Usage: 
                TLS Web Client Authentication
            X509v3 Key Usage: critical
                Digital Signature
            X509v3 Subject Key Identifier: 
                2B:7D:66:D2:7E:AD:E5:70:79:80:93:32:DD:93:F4:AF:82:2F:C7:7D
            X509v3 Subject Alternative Name: 
                DNS:31B5FF3F3EDDED903487BFE693DDBD519A5DCCF94E514BE0
    Signature Algorithm: sha256WithRSAEncryption
    Signature Value:
        92:a7:09:22:a5:ac:e1:fc:f5:51:10:20:e9:2b:f6:18:96:29:
        5a:49:10:dc:c0:fc:54:99:f2:71:23:ba:34:07:be:1b:12:8d:
        7b:c6:46:41:21:27:a5:10:f5:e4:0c:c9:a9:e8:56:18:29:eb:
        95:6a:fd:e1:cb:19:c4:ac:57:f6:c2:4b:d2:b1:a2:9c:ec:a7:
        99:b7:e4:41:ec:9a:35:48:f0:68:14:2a:43:2b:be:87:88:25:
        e4:e5:83:6f:dc:e1:1c:d9:20:6c:d0:d5:c1:c3:6d:36:7c:5b:
        8d:76:4b:b3:02:5d:19:10:c9:cc:25:59:9e:25:1c:96:e4:ca:
        55:7c:5d:a8:22:f2:4f:a5:f0:61:21:3d:f5:4b:e3:b8:9e:55:
        08:78:bd:11:b9:02:c7:d3:d6:12:f5:c7:1a:04:0a:52:26:df:
        68:5b:e2:be:48:d3:be:a9:0c:4b:6e:a5:aa:f9:a4:e1:e4:47:
        ba:75:00:66:d8:9d:9d:95:67:10:6b:f5:0b:bc:b2:97:21:af:
        a2:9f:69:49:e3:2a:b7:12:03:36:13:0d:2d:37:cc:ea:eb:85:
        fd:54:38:f4:8b:e2:f4:e8:7d:5f:42:e0:0b:30:d0:13:60:5b:
        ee:97:35:95:75:09:db:a8:4d:fb:64:5f:99:8b:a4:36:13:64:
        df:cc:5c:2d
-----BEGIN CERTIFICATE-----
MIIECzCCAvOgAwIBAgIRAPEcW3NIUrs+wxGiSxW22UcwDQYJKoZIhvcNAQELBQAw
GzEZMBcGA1UEAwwQSW90U2Nob29sIFN1YiBDQTAeFw0yMzA0MTMwODE2MTZaFw0y
NDA0MTIwODE2MTZaMIGwMQswCQYDVQQGEwJERTEQMA4GA1UECAwHQmF2YXJpYTET
MBEGA1UECgwKSW9UIFNjaG9vbDEVMBMGA1UECwwMUEtJIFNlcnZpY2VzMTkwNwYD
VQQDDDAzMUI1RkYzRjNFRERFRDkwMzQ4N0JGRTY5M0REQkQ1MTlBNURDQ0Y5NEU1
MTRCRTAxKDAmBgkqhkiG9w0BCQEWGWlvdHNjaG9vbEBtYWlib3Jud29sZmYuZGUw
ggEiMA0GCSqGSIb3DQEBAQUAA4IBDwAwggEKAoIBAQDEbtueObZ57EjSey6q97dO
lrH84hJJ3F8bodh1z0aYb7NVR8HiogctP+uZozSdYRuZeCyiErOMy6cC1rJbhU4B
gFDUhKripJ2JL5sIa1MJ3rW+rk3h3umgsyI8uVu6CLC3UCRkU9r6qqIGfGZvA5eo
a8VqMBjQrpGf9WbGyToaACrEF1M0WmNlj3zvSXIieDObmKWramx5z33OyqVlCVOh
GYhoj66yLHokvOn55zsgqdLEgLjWwbVJB7Z0RZCgqOrbMDIsD1Z8je4riI0nRCZZ
14GSzMDRl+Z46ipAE4XOi+nSiFY9MWQN7Nhk4ZPgiQA/Og1Hwg9BS/Pk6bxtRDdl
AgMBAAGjgbMwgbAwHwYDVR0jBBgwFoAUN+W9U+lFqxKbfVu4OCG/iojFeL4wDAYD
VR0TAQH/BAIwADATBgNVHSUEDDAKBggrBgEFBQcDAjAOBgNVHQ8BAf8EBAMCB4Aw
HQYDVR0OBBYEFCt9ZtJ+reVweYCTMt2T9K+CL8d9MDsGA1UdEQQ0MDKCMDMxQjVG
RjNGM0VEREVEOTAzNDg3QkZFNjkzRERCRDUxOUE1RENDRjk0RTUxNEJFMDANBgkq
hkiG9w0BAQsFAAOCAQEAkqcJIqWs4fz1URAg6Sv2GJYpWkkQ3MD8VJnycSO6NAe+
GxKNe8ZGQSEnpRD15AzJqehWGCnrlWr94csZxKxX9sJL0rGinOynmbfkQeyaNUjw
aBQqQyu+h4gl5OWDb9zhHNkgbNDVwcNtNnxbjXZLswJdGRDJzCVZniUcluTKVXxd
qCLyT6XwYSE99UvjuJ5VCHi9EbkCx9PWEvXHGgQKUibfaFvivkjTvqkMS26lqvmk
4eRHunUAZtidnZVnEGv1C7yylyGvop9pSeMqtxIDNhMNLTfM6uuF/VQ49Ivi9Oh9
X0LgCzDQE2Bb7pc1lXUJ26hN+2RfmYukNhNk38xcLQ==
-----END CERTIFICATE-----
