Certificate:
    Data:
        Version: 3 (0x2)
        Serial Number:
            f1:1c:5b:73:48:52:bb:3e:c3:11:a2:4b:15:b6:d9:48
        Signature Algorithm: sha256WithRSAEncryption
        Issuer: CN=IotSchool Sub CA
        Validity
            Not Before: Apr 13 08:16:45 2023 GMT
            Not After : Apr 12 08:16:45 2024 GMT
        Subject: C=DE, ST=Bavaria, O=IoT School, OU=PKI Services, CN=90AB98B01DFB8B113FB6D11EBB8E04AEF333FF639DE79D95/emailAddress=iotschool@maibornwolff.de
        Subject Public Key Info:
            Public Key Algorithm: rsaEncryption
                Public-Key: (2048 bit)
                Modulus:
                    00:d4:4b:aa:d2:94:1c:ed:4c:bd:9c:0a:b5:86:2f:
                    9f:6d:30:13:e8:2b:3d:bc:7c:67:b7:a6:10:14:7d:
                    b8:87:21:44:53:55:a9:c0:3f:ce:af:78:ef:43:40:
                    be:2a:a2:cc:0e:bd:79:29:2f:9f:1b:fb:4b:a3:b5:
                    21:b3:29:2d:ee:42:87:bf:b2:7e:0c:ed:34:51:f2:
                    37:bc:33:24:13:a5:d5:66:be:30:19:bd:c1:ec:2d:
                    10:6c:2e:0e:0e:da:1f:ba:9a:6b:fd:7c:b2:11:f0:
                    26:3f:da:ee:c2:53:4a:81:cd:2a:53:9e:3e:af:52:
                    73:16:90:d9:3f:5a:1b:b5:c3:b9:f3:64:67:76:2f:
                    f9:4b:d7:1a:eb:b9:f4:b7:a8:7e:64:2c:e2:b1:4a:
                    36:f7:99:d3:54:19:c2:fe:ff:15:7b:01:1f:df:04:
                    a7:76:1e:cd:f9:b2:8d:4d:c9:a4:ec:10:b7:2d:b1:
                    9f:d7:7d:bb:f1:53:7e:83:43:11:de:13:22:ac:fd:
                    f3:b2:ec:82:00:35:75:c8:40:aa:01:97:e0:be:59:
                    fe:ee:c4:5e:fc:6e:6e:b2:65:d3:8b:2f:54:99:90:
                    7e:c6:db:97:5d:a4:a8:c3:22:3d:80:66:64:b6:61:
                    72:38:98:3d:67:e9:23:4c:a0:13:0b:b8:a9:f0:f2:
                    fd:69
                Exponent: 65537 (0x10001)
        X509v3 extensions:
            X509v3 Authority Key Identifier: 
                AB:85:28:35:34:D6:5E:C2:4F:CA:C7:5C:14:F4:A6:70:33:43:47:06
            X509v3 Basic Constraints: critical
                CA:FALSE
            X509v3 Extended Key Usage: 
                TLS Web Client Authentication
            X509v3 Key Usage: critical
                Digital Signature
            X509v3 Subject Key Identifier: 
                5A:A2:7A:7B:9E:6E:60:F5:DA:6D:23:23:9C:57:9B:F4:55:D2:CC:68
            X509v3 Subject Alternative Name: 
                DNS:90AB98B01DFB8B113FB6D11EBB8E04AEF333FF639DE79D95
    Signature Algorithm: sha256WithRSAEncryption
    Signature Value:
        19:10:0d:0c:e9:31:a8:72:d2:1a:8b:3c:ac:ee:19:60:e7:9a:
        09:80:50:37:f6:ce:19:47:75:f0:46:e8:55:39:dc:d1:70:80:
        2a:46:2e:3e:1d:9f:8e:22:8e:74:93:5d:38:04:e8:e0:17:a4:
        ef:4b:56:66:c8:9e:9f:f1:16:de:30:53:ab:70:3a:1d:f5:12:
        6d:ef:d7:50:3a:d0:46:e2:b4:4f:03:d6:06:97:26:ed:ae:ad:
        be:3d:ec:22:ef:9e:66:8d:b7:f1:5a:69:3b:f5:4d:4b:5e:73:
        6d:e0:d9:be:c4:f1:53:47:77:3e:1a:b0:fb:33:1f:57:f2:ec:
        25:19:6b:dc:b7:0f:83:96:63:78:f7:5d:8c:9e:3c:d6:a0:d6:
        b0:4e:60:5e:c9:b2:ee:1b:f8:91:9b:75:ae:18:24:31:8a:5b:
        89:fb:f6:00:a1:97:74:bc:63:9e:b2:0d:4e:94:46:8b:6b:f5:
        3c:d5:cf:45:e6:b6:bc:03:48:ce:c5:0c:bd:9f:97:8e:e2:f0:
        db:cc:cd:9a:45:62:3c:fc:43:e3:3a:b5:16:00:2d:b1:a1:7c:
        1e:e6:e4:d7:ef:8c:9b:49:d8:44:3f:b3:76:44:76:7a:91:cb:
        ee:60:0e:5a:59:cc:e6:0b:af:fb:9d:28:d6:78:0e:50:cc:78:
        ec:ec:51:00
-----BEGIN CERTIFICATE-----
MIIECzCCAvOgAwIBAgIRAPEcW3NIUrs+wxGiSxW22UgwDQYJKoZIhvcNAQELBQAw
GzEZMBcGA1UEAwwQSW90U2Nob29sIFN1YiBDQTAeFw0yMzA0MTMwODE2NDVaFw0y
NDA0MTIwODE2NDVaMIGwMQswCQYDVQQGEwJERTEQMA4GA1UECAwHQmF2YXJpYTET
MBEGA1UECgwKSW9UIFNjaG9vbDEVMBMGA1UECwwMUEtJIFNlcnZpY2VzMTkwNwYD
VQQDDDA5MEFCOThCMDFERkI4QjExM0ZCNkQxMUVCQjhFMDRBRUYzMzNGRjYzOURF
NzlEOTUxKDAmBgkqhkiG9w0BCQEWGWlvdHNjaG9vbEBtYWlib3Jud29sZmYuZGUw
ggEiMA0GCSqGSIb3DQEBAQUAA4IBDwAwggEKAoIBAQDUS6rSlBztTL2cCrWGL59t
MBPoKz28fGe3phAUfbiHIURTVanAP86veO9DQL4qoswOvXkpL58b+0ujtSGzKS3u
Qoe/sn4M7TRR8je8MyQTpdVmvjAZvcHsLRBsLg4O2h+6mmv9fLIR8CY/2u7CU0qB
zSpTnj6vUnMWkNk/Whu1w7nzZGd2L/lL1xrrufS3qH5kLOKxSjb3mdNUGcL+/xV7
AR/fBKd2Hs35so1NyaTsELctsZ/XfbvxU36DQxHeEyKs/fOy7IIANXXIQKoBl+C+
Wf7uxF78bm6yZdOLL1SZkH7G25ddpKjDIj2AZmS2YXI4mD1n6SNMoBMLuKnw8v1p
AgMBAAGjgbMwgbAwHwYDVR0jBBgwFoAUq4UoNTTWXsJPysdcFPSmcDNDRwYwDAYD
VR0TAQH/BAIwADATBgNVHSUEDDAKBggrBgEFBQcDAjAOBgNVHQ8BAf8EBAMCB4Aw
HQYDVR0OBBYEFFqienuebmD12m0jI5xXm/RV0sxoMDsGA1UdEQQ0MDKCMDkwQUI5
OEIwMURGQjhCMTEzRkI2RDExRUJCOEUwNEFFRjMzM0ZGNjM5REU3OUQ5NTANBgkq
hkiG9w0BAQsFAAOCAQEAGRANDOkxqHLSGos8rO4ZYOeaCYBQN/bOGUd18EboVTnc
0XCAKkYuPh2fjiKOdJNdOATo4Bek70tWZsien/EW3jBTq3A6HfUSbe/XUDrQRuK0
TwPWBpcm7a6tvj3sIu+eZo238VppO/VNS15zbeDZvsTxU0d3Phqw+zMfV/LsJRlr
3LcPg5ZjePddjJ481qDWsE5gXsmy7hv4kZt1rhgkMYpbifv2AKGXdLxjnrINTpRG
i2v1PNXPRea2vANIzsUMvZ+XjuLw28zNmkViPPxD4zq1FgAtsaF8Hubk1++Mm0nY
RD+zdkR2epHL7mAOWlnM5guv+50o1ngOUMx47OxRAA==
-----END CERTIFICATE-----
