Certificate:
    Data:
        Version: 3 (0x2)
        Serial Number:
            2c:40:3c:96:1e:4e:cb:5f:3f:1d:ab:97:98:69:58:b1
        Signature Algorithm: sha256WithRSAEncryption
        Issuer: CN=IotSchool Sub CA
        Validity
            Not Before: May  5 11:25:32 2023 GMT
            Not After : May  4 11:25:32 2024 GMT
        Subject: C=DE, ST=Bavaria, O=IoT School, OU=PKI Services, CN=sample/emailAddress=iotschool@maibornwolff.de
        Subject Public Key Info:
            Public Key Algorithm: rsaEncryption
                Public-Key: (2048 bit)
                Modulus:
                    00:ae:a5:d4:d5:e5:5e:cf:10:8e:77:49:8a:a6:57:
                    97:de:87:66:a1:cb:63:05:6d:ba:c7:78:49:27:4b:
                    7d:e5:24:9e:23:8f:ca:7c:2c:cc:8d:06:ee:a3:1e:
                    b4:cb:6d:9f:2b:2f:57:77:df:b4:be:46:aa:08:31:
                    e6:54:8d:90:b5:6d:50:1a:b1:6c:ec:f3:97:65:b5:
                    1a:a2:e6:e8:ef:08:a6:2a:8b:54:d2:92:34:ea:89:
                    7c:bf:2c:c2:db:6a:86:65:89:1e:04:3b:d4:f4:73:
                    63:d9:77:69:91:8d:2e:ab:6d:4d:96:e4:5d:d9:96:
                    c3:a2:6d:ae:0f:1c:99:87:d2:42:74:42:ac:d8:d4:
                    4f:32:da:7a:61:de:d4:77:5f:ff:96:5e:c4:3d:62:
                    4b:d6:4f:52:ea:d0:98:b7:e4:f7:af:94:e5:88:e4:
                    44:f6:dc:55:8f:d5:fe:d1:bc:90:b9:59:35:5d:99:
                    2b:bf:e7:cb:90:14:b2:72:73:a1:e9:55:78:06:bb:
                    45:64:14:a6:f3:30:09:0b:1b:18:22:9f:c0:1f:d6:
                    3c:3e:f5:6c:28:da:82:5e:d1:31:a0:25:2e:82:05:
                    00:b6:e3:d5:fb:12:c7:c0:09:b9:ae:89:55:bc:15:
                    4e:e7:90:77:7d:66:af:7f:52:a7:62:cb:17:5e:c8:
                    ed:55
                Exponent: 65537 (0x10001)
        X509v3 extensions:
            X509v3 Authority Key Identifier: 
                95:39:50:4F:73:33:49:79:BD:6D:B8:48:64:3D:E2:8A:D9:AB:95:77
            X509v3 Basic Constraints: critical
                CA:FALSE
            X509v3 Extended Key Usage: 
                TLS Web Client Authentication
            X509v3 Key Usage: critical
                Digital Signature
            X509v3 Subject Key Identifier: 
                B0:7A:5B:9E:50:6F:20:7E:7A:B6:95:D2:E7:53:56:8E:A5:CD:CF:FB
            X509v3 Subject Alternative Name: 
                DNS:sample
    Signature Algorithm: sha256WithRSAEncryption
    Signature Value:
        19:b4:a7:cd:a1:fb:51:8c:c6:47:18:52:1b:39:67:d1:e1:35:
        cd:42:d5:25:f2:e5:65:02:28:c9:34:a3:2c:81:20:61:3c:2e:
        ff:8f:c7:48:12:1e:aa:93:c7:b1:1f:25:ef:35:84:c7:af:cd:
        52:83:f3:ac:5f:8d:16:27:cc:fb:f6:a9:31:15:51:01:17:6a:
        b8:1e:3e:f9:70:59:7b:8b:a0:52:44:ac:20:f4:68:e0:7a:7b:
        75:81:a5:2c:43:9e:f2:47:ef:62:bd:ac:b3:33:ac:37:f9:4e:
        8b:8c:12:79:dc:10:d9:7a:65:99:e2:9a:bd:7f:25:31:90:5f:
        f9:0f:26:e2:2d:b8:10:5d:2c:1c:9d:95:cc:6f:88:11:5b:5d:
        2a:67:70:97:d0:3e:91:88:20:34:fc:12:ad:47:ad:71:66:f1:
        d1:13:9b:3c:f7:8e:be:11:ba:ae:d5:cf:4e:70:45:73:2d:0a:
        b3:ed:19:b8:51:37:7e:71:de:65:a5:ef:12:a8:fe:28:a9:83:
        4e:9f:79:25:82:c5:9a:8a:09:9e:f7:14:9d:22:95:74:fe:85:
        51:f9:90:ce:5d:ac:07:39:9f:8c:0a:95:ab:ca:76:0f:8f:71:
        9c:ad:a5:95:6e:d5:33:ad:94:9c:97:b5:63:c8:c3:0e:8a:94:
        18:16:40:f3
-----BEGIN CERTIFICATE-----
MIIDtjCCAp6gAwIBAgIQLEA8lh5Oy18/HauXmGlYsTANBgkqhkiG9w0BAQsFADAb
MRkwFwYDVQQDDBBJb3RTY2hvb2wgU3ViIENBMB4XDTIzMDUwNTExMjUzMloXDTI0
MDUwNDExMjUzMlowgYYxCzAJBgNVBAYTAkRFMRAwDgYDVQQIDAdCYXZhcmlhMRMw
EQYDVQQKDApJb1QgU2Nob29sMRUwEwYDVQQLDAxQS0kgU2VydmljZXMxDzANBgNV
BAMMBnNhbXBsZTEoMCYGCSqGSIb3DQEJARYZaW90c2Nob29sQG1haWJvcm53b2xm
Zi5kZTCCASIwDQYJKoZIhvcNAQEBBQADggEPADCCAQoCggEBAK6l1NXlXs8QjndJ
iqZXl96HZqHLYwVtusd4SSdLfeUkniOPynwszI0G7qMetMttnysvV3fftL5Gqggx
5lSNkLVtUBqxbOzzl2W1GqLm6O8IpiqLVNKSNOqJfL8swttqhmWJHgQ71PRzY9l3
aZGNLqttTZbkXdmWw6Jtrg8cmYfSQnRCrNjUTzLaemHe1Hdf/5ZexD1iS9ZPUurQ
mLfk96+U5YjkRPbcVY/V/tG8kLlZNV2ZK7/ny5AUsnJzoelVeAa7RWQUpvMwCQsb
GCKfwB/WPD71bCjagl7RMaAlLoIFALbj1fsSx8AJua6JVbwVTueQd31mr39Sp2LL
F17I7VUCAwEAAaOBiTCBhjAfBgNVHSMEGDAWgBSVOVBPczNJeb1tuEhkPeKK2auV
dzAMBgNVHRMBAf8EAjAAMBMGA1UdJQQMMAoGCCsGAQUFBwMCMA4GA1UdDwEB/wQE
AwIHgDAdBgNVHQ4EFgQUsHpbnlBvIH56tpXS51NWjqXNz/swEQYDVR0RBAowCIIG
c2FtcGxlMA0GCSqGSIb3DQEBCwUAA4IBAQAZtKfNoftRjMZHGFIbOWfR4TXNQtUl
8uVlAijJNKMsgSBhPC7/j8dIEh6qk8exHyXvNYTHr81Sg/OsX40WJ8z79qkxFVEB
F2q4Hj75cFl7i6BSRKwg9Gjgent1gaUsQ57yR+9ivayzM6w3+U6LjBJ53BDZemWZ
4pq9fyUxkF/5DybiLbgQXSwcnZXMb4gRW10qZ3CX0D6RiCA0/BKtR61xZvHRE5s8
946+Ebqu1c9OcEVzLQqz7Rm4UTd+cd5lpe8SqP4oqYNOn3klgsWaigme9xSdIpV0
/oVR+ZDOXawHOZ+MCpWrynYPj3GcraWVbtUzrZScl7VjyMMOipQYFkDz
-----END CERTIFICATE-----
Certificate:
    Data:
        Version: 3 (0x2)
        Serial Number:
            60:71:dd:5b:53:2b:0f:be:e8:3b:45:06:1e:82:e2:1d
        Signature Algorithm: sha256WithRSAEncryption
        Issuer: CN=IotSchool Root CA
        Validity
            Not Before: Apr 25 18:39:16 2023 GMT
            Not After : Apr 22 18:39:16 2033 GMT
        Subject: CN=IotSchool Sub CA
        Subject Public Key Info:
            Public Key Algorithm: rsaEncryption
                Public-Key: (2048 bit)
                Modulus:
                    00:d5:6d:57:fb:a5:51:a7:a5:82:df:c6:bc:41:1d:
                    a8:17:e1:87:89:da:20:e6:d7:ae:5f:46:8e:ec:ba:
                    6e:3a:12:90:93:64:99:db:0d:3f:58:51:93:de:aa:
                    50:24:0b:4c:7f:3d:c9:44:1b:e2:dc:dc:b5:50:cc:
                    d4:13:21:86:dd:55:44:8c:98:ee:15:35:b6:9b:c2:
                    42:25:2b:af:1b:ad:2e:11:9e:5e:82:eb:00:83:d1:
                    b2:2b:ef:cf:6d:73:76:d1:59:b7:9a:08:4c:f0:c6:
                    1a:21:43:bc:9b:d0:eb:72:49:98:08:3a:95:35:57:
                    70:53:3b:ae:4f:db:45:c7:58:8f:4e:71:83:cb:a9:
                    3e:d6:fd:0f:8b:96:53:ff:24:c9:4e:bb:23:1d:b0:
                    03:7f:93:ec:97:6f:74:23:4a:a5:93:98:55:93:13:
                    45:ff:cc:75:13:a0:bd:fc:e1:87:0a:43:e4:e0:8d:
                    30:78:61:ae:e0:18:a6:3b:b2:a7:c4:17:27:13:1f:
                    f0:52:d5:93:97:08:02:82:8f:7b:1c:d9:ad:8e:b1:
                    bc:62:a7:66:dc:f8:bc:a3:fd:a8:6b:a9:04:f1:cc:
                    65:e4:12:38:d3:8d:c5:75:83:3e:fd:e8:27:f1:34:
                    6c:69:47:39:4b:f9:7c:98:92:b1:a2:f0:4e:f0:d1:
                    7a:83
                Exponent: 65537 (0x10001)
        X509v3 extensions:
            X509v3 Authority Key Identifier: 
                9C:C6:5F:2E:18:33:EE:D4:16:2C:1F:E3:71:F8:98:EA:D5:22:19:EC
            X509v3 Basic Constraints: critical
                CA:TRUE, pathlen:0
            X509v3 Extended Key Usage: 
                TLS Web Client Authentication, TLS Web Server Authentication
            X509v3 Key Usage: critical
                Certificate Sign, CRL Sign
            X509v3 Subject Key Identifier: 
                95:39:50:4F:73:33:49:79:BD:6D:B8:48:64:3D:E2:8A:D9:AB:95:77
    Signature Algorithm: sha256WithRSAEncryption
    Signature Value:
        21:f2:26:c8:a2:7c:4f:5f:94:28:6b:f6:40:26:3d:e5:7d:c3:
        b6:7d:ee:33:c9:10:49:82:25:9d:0f:ae:bc:93:2d:2d:26:65:
        bd:90:0a:2f:5c:87:76:a0:b1:90:b8:22:14:d2:93:83:80:d2:
        55:c1:8e:4a:7d:06:29:37:61:42:33:f5:51:c0:55:7f:98:5d:
        1f:7d:32:10:c8:3f:a1:0f:21:fe:56:f4:22:1c:4d:3e:00:1f:
        51:ee:93:c7:3f:6f:98:34:38:25:f0:a5:14:e1:ba:8d:ea:33:
        5d:63:4e:24:00:ba:6e:48:ca:0e:18:b3:9e:49:4c:02:f7:9f:
        36:db:c8:ff:b4:66:16:33:aa:38:68:89:99:07:39:98:a4:34:
        72:82:22:d3:31:68:cd:07:d3:92:32:6a:48:6f:62:b3:84:73:
        95:70:f1:41:f6:5a:db:00:22:b8:2b:80:e6:a8:6b:a5:5d:d6:
        b7:1e:de:9d:ef:f3:bb:5e:57:86:77:04:4c:1f:1c:e1:d2:b1:
        c3:8c:97:ca:96:a7:ca:b8:7e:6e:55:41:4d:c8:f6:b9:0d:f8:
        fe:b6:8e:b9:8d:e0:44:66:00:f3:a7:a2:4a:87:2b:25:a3:b0:
        0a:de:a3:e1:be:da:ca:09:c5:58:b3:ba:3d:e5:08:13:72:c9:
        23:37:22:c2
-----BEGIN CERTIFICATE-----
MIIDSDCCAjCgAwIBAgIQYHHdW1MrD77oO0UGHoLiHTANBgkqhkiG9w0BAQsFADAc
MRowGAYDVQQDDBFJb3RTY2hvb2wgUm9vdCBDQTAeFw0yMzA0MjUxODM5MTZaFw0z
MzA0MjIxODM5MTZaMBsxGTAXBgNVBAMMEElvdFNjaG9vbCBTdWIgQ0EwggEiMA0G
CSqGSIb3DQEBAQUAA4IBDwAwggEKAoIBAQDVbVf7pVGnpYLfxrxBHagX4YeJ2iDm
165fRo7sum46EpCTZJnbDT9YUZPeqlAkC0x/PclEG+Lc3LVQzNQTIYbdVUSMmO4V
NbabwkIlK68brS4Rnl6C6wCD0bIr789tc3bRWbeaCEzwxhohQ7yb0OtySZgIOpU1
V3BTO65P20XHWI9OcYPLqT7W/Q+LllP/JMlOuyMdsAN/k+yXb3QjSqWTmFWTE0X/
zHUToL384YcKQ+TgjTB4Ya7gGKY7sqfEFycTH/BS1ZOXCAKCj3sc2a2Osbxip2bc
+Lyj/ahrqQTxzGXkEjjTjcV1gz796CfxNGxpRzlL+XyYkrGi8E7w0XqDAgMBAAGj
gYYwgYMwHwYDVR0jBBgwFoAUnMZfLhgz7tQWLB/jcfiY6tUiGewwEgYDVR0TAQH/
BAgwBgEB/wIBADAdBgNVHSUEFjAUBggrBgEFBQcDAgYIKwYBBQUHAwEwDgYDVR0P
AQH/BAQDAgEGMB0GA1UdDgQWBBSVOVBPczNJeb1tuEhkPeKK2auVdzANBgkqhkiG
9w0BAQsFAAOCAQEAIfImyKJ8T1+UKGv2QCY95X3Dtn3uM8kQSYIlnQ+uvJMtLSZl
vZAKL1yHdqCxkLgiFNKTg4DSVcGOSn0GKTdhQjP1UcBVf5hdH30yEMg/oQ8h/lb0
IhxNPgAfUe6Txz9vmDQ4JfClFOG6jeozXWNOJAC6bkjKDhiznklMAvefNtvI/7Rm
FjOqOGiJmQc5mKQ0coIi0zFozQfTkjJqSG9is4RzlXDxQfZa2wAiuCuA5qhrpV3W
tx7ene/zu15XhncETB8c4dKxw4yXypanyrh+blVBTcj2uQ34/raOuY3gRGYA86ei
SocrJaOwCt6j4b7aygnFWLO6PeUIE3LJIzciwg==
-----END CERTIFICATE-----
