Certificate:
    Data:
        Version: 3 (0x2)
        Serial Number:
            2c:40:3c:96:1e:4e:cb:5f:3f:1d:ab:97:98:69:58:ae
        Signature Algorithm: sha256WithRSAEncryption
        Issuer: CN=IotSchool Sub CA
        Validity
            Not Before: May  5 11:24:55 2023 GMT
            Not After : May  4 11:24:55 2024 GMT
        Subject: C=DE, ST=Bavaria, O=IoT School, OU=PKI Services, CN=sample/emailAddress=iotschool@maibornwolff.de
        Subject Public Key Info:
            Public Key Algorithm: rsaEncryption
                Public-Key: (2048 bit)
                Modulus:
                    00:9b:01:eb:8c:72:55:54:1e:e1:00:73:2a:9d:26:
                    99:15:d0:1b:16:32:4b:41:d5:ee:39:9a:2c:2d:75:
                    81:64:ce:f0:90:60:d6:eb:9c:22:1d:b8:90:2f:1c:
                    50:9c:6e:c9:8a:52:dc:09:e4:ca:b9:8b:17:94:14:
                    f4:4d:b7:8b:ca:b5:88:7e:0b:fe:f3:ad:68:2f:c8:
                    dd:9e:27:d2:0c:bf:76:84:d6:37:51:97:50:28:64:
                    cc:9f:0d:62:02:70:8b:4a:94:3a:85:97:c5:01:2b:
                    63:ab:47:81:ce:09:7e:c6:54:47:83:db:30:f0:5f:
                    80:91:9b:fe:6d:ef:22:3f:46:56:1c:2b:09:e4:c1:
                    ee:6f:9e:8e:21:83:5d:9f:1b:09:a6:cc:cd:ed:d6:
                    90:77:de:70:c3:b0:b8:45:d7:e9:4c:0c:0e:b0:a3:
                    ae:35:f2:9b:6e:5f:92:ef:74:81:e1:58:73:de:e6:
                    0a:aa:4a:bd:8d:a9:6c:bb:b1:ed:4b:42:37:d2:8f:
                    fc:7e:2d:b1:5c:2e:98:89:a2:d1:07:d0:2f:d2:f1:
                    02:ab:ec:9c:cd:82:d1:2d:b4:d8:43:4f:19:84:de:
                    21:f4:4c:fb:ca:66:92:ac:86:ed:6e:3d:b4:74:e5:
                    54:aa:ed:24:85:89:c1:08:46:62:7c:b8:b3:7a:15:
                    af:53
                Exponent: 65537 (0x10001)
        X509v3 extensions:
            X509v3 Authority Key Identifier: 
                BE:AE:5F:65:E9:B8:62:92:99:43:D3:74:65:2C:01:5D:F5:48:B0:03
            X509v3 Basic Constraints: critical
                CA:FALSE
            X509v3 Extended Key Usage: 
                TLS Web Client Authentication
            X509v3 Key Usage: critical
                Digital Signature
            X509v3 Subject Key Identifier: 
                DF:91:3A:94:5A:B9:18:19:92:EA:AE:DD:B6:52:03:21:1E:A0:95:02
            X509v3 Subject Alternative Name: 
                DNS:sample
    Signature Algorithm: sha256WithRSAEncryption
    Signature Value:
        04:7a:b1:ff:1e:e6:55:19:e8:9e:98:c2:c3:28:15:de:1f:0b:
        ce:c3:8f:cd:c7:43:86:19:eb:a8:30:7e:16:dd:6a:b2:f4:aa:
        f7:55:73:f9:64:7b:b4:b8:6a:21:86:cb:c5:a2:1f:82:b6:96:
        30:81:ac:41:ff:73:02:b7:02:bb:ea:5a:2d:9f:4f:3a:06:a7:
        84:e2:6d:04:fd:9d:da:69:65:c6:5c:7e:ec:e8:a8:78:1e:24:
        c6:c8:ca:5d:3b:f2:11:bc:81:25:e4:e4:04:41:ba:e8:7e:eb:
        27:d0:1c:b4:71:bf:61:e1:41:75:4e:47:7f:2d:64:73:62:10:
        87:c6:31:b6:0d:28:d0:49:2e:c7:24:73:f8:eb:e7:9e:b0:6b:
        a9:d5:bf:0a:52:16:de:e5:48:29:d3:7f:ec:a6:2f:1a:a9:94:
        20:0d:88:3e:2d:12:0a:75:49:f8:d3:4f:ac:46:eb:af:8b:6b:
        c1:a2:97:bd:55:82:87:dd:90:29:1c:a1:78:9f:c0:4e:61:7e:
        e0:1e:fa:dc:c8:20:05:09:4c:bd:50:7f:5c:a4:7b:56:77:3b:
        05:1e:01:53:8b:c5:a3:10:9a:bd:c8:20:bb:c7:f5:34:1d:11:
        1e:79:1f:5c:73:65:a5:0c:ae:98:2b:ef:79:9e:a3:77:aa:c6:
        7b:3c:69:dc
-----BEGIN CERTIFICATE-----
MIIDtjCCAp6gAwIBAgIQLEA8lh5Oy18/HauXmGlYrjANBgkqhkiG9w0BAQsFADAb
MRkwFwYDVQQDDBBJb3RTY2hvb2wgU3ViIENBMB4XDTIzMDUwNTExMjQ1NVoXDTI0
MDUwNDExMjQ1NVowgYYxCzAJBgNVBAYTAkRFMRAwDgYDVQQIDAdCYXZhcmlhMRMw
EQYDVQQKDApJb1QgU2Nob29sMRUwEwYDVQQLDAxQS0kgU2VydmljZXMxDzANBgNV
BAMMBnNhbXBsZTEoMCYGCSqGSIb3DQEJARYZaW90c2Nob29sQG1haWJvcm53b2xm
Zi5kZTCCASIwDQYJKoZIhvcNAQEBBQADggEPADCCAQoCggEBAJsB64xyVVQe4QBz
Kp0mmRXQGxYyS0HV7jmaLC11gWTO8JBg1uucIh24kC8cUJxuyYpS3AnkyrmLF5QU
9E23i8q1iH4L/vOtaC/I3Z4n0gy/doTWN1GXUChkzJ8NYgJwi0qUOoWXxQErY6tH
gc4JfsZUR4PbMPBfgJGb/m3vIj9GVhwrCeTB7m+ejiGDXZ8bCabMze3WkHfecMOw
uEXX6UwMDrCjrjXym25fku90geFYc97mCqpKvY2pbLux7UtCN9KP/H4tsVwumImi
0QfQL9LxAqvsnM2C0S202ENPGYTeIfRM+8pmkqyG7W49tHTlVKrtJIWJwQhGYny4
s3oVr1MCAwEAAaOBiTCBhjAfBgNVHSMEGDAWgBS+rl9l6bhikplD03RlLAFd9Uiw
AzAMBgNVHRMBAf8EAjAAMBMGA1UdJQQMMAoGCCsGAQUFBwMCMA4GA1UdDwEB/wQE
AwIHgDAdBgNVHQ4EFgQU35E6lFq5GBmS6q7dtlIDIR6glQIwEQYDVR0RBAowCIIG
c2FtcGxlMA0GCSqGSIb3DQEBCwUAA4IBAQAEerH/HuZVGeiemMLDKBXeHwvOw4/N
x0OGGeuoMH4W3Wqy9Kr3VXP5ZHu0uGohhsvFoh+CtpYwgaxB/3MCtwK76lotn086
BqeE4m0E/Z3aaWXGXH7s6Kh4HiTGyMpdO/IRvIEl5OQEQbrofusn0By0cb9h4UF1
Tkd/LWRzYhCHxjG2DSjQSS7HJHP46+eesGup1b8KUhbe5Ugp03/spi8aqZQgDYg+
LRIKdUn400+sRuuvi2vBope9VYKH3ZApHKF4n8BOYX7gHvrcyCAFCUy9UH9cpHtW
dzsFHgFTi8WjEJq9yCC7x/U0HREeeR9cc2WlDK6YK+95nqN3qsZ7PGnc
-----END CERTIFICATE-----
Certificate:
    Data:
        Version: 3 (0x2)
        Serial Number:
            7c:6f:36:3b:07:ee:9a:7d:c8:aa:13:74:d0:6e:d1:25
        Signature Algorithm: sha256WithRSAEncryption
        Issuer: CN=IotSchool Root CA
        Validity
            Not Before: Apr 25 14:08:22 2023 GMT
            Not After : Apr 22 14:08:22 2033 GMT
        Subject: CN=IotSchool Sub CA
        Subject Public Key Info:
            Public Key Algorithm: rsaEncryption
                Public-Key: (2048 bit)
                Modulus:
                    00:a1:4a:b5:18:14:0e:cc:f1:cf:43:4d:b6:c1:34:
                    73:b8:23:92:66:70:c9:f9:62:20:f1:fb:68:a5:6b:
                    ea:b6:83:c5:d3:65:19:5b:cf:24:5b:d9:32:70:61:
                    ac:3d:8a:70:d0:e2:38:59:b5:6a:e3:52:a7:db:b7:
                    41:9c:b0:58:e7:31:fa:bd:80:5f:d6:ec:9b:dc:b4:
                    a8:dc:4b:72:cb:91:ce:fb:37:7f:4e:dd:e8:e1:7d:
                    cd:06:45:73:7a:42:76:36:e9:eb:42:8e:a9:df:04:
                    cd:40:20:62:d4:82:96:79:8f:16:98:41:fe:eb:41:
                    92:0f:ef:5a:fd:b3:4a:d5:f7:c8:a9:f1:1d:d5:a5:
                    05:56:7d:00:1d:70:d0:0f:e3:49:ed:32:4a:f2:8e:
                    7a:0c:53:29:0a:0e:a6:8f:cf:6c:41:ae:ef:76:31:
                    4d:51:a9:aa:46:d8:bd:46:57:73:82:09:00:6b:bf:
                    bb:c6:84:9b:fd:56:d8:e6:5d:68:b6:9a:da:a1:15:
                    91:7c:ba:5a:63:bd:52:03:12:39:c1:f5:42:d0:3b:
                    73:46:10:dd:d7:5a:d7:92:e3:1c:b2:e5:03:96:ee:
                    30:26:49:b9:4a:4f:f3:28:53:63:a3:95:63:3f:e5:
                    fc:b4:f6:28:91:e7:2b:46:10:15:03:2b:00:3f:ad:
                    8a:77
                Exponent: 65537 (0x10001)
        X509v3 extensions:
            X509v3 Authority Key Identifier: 
                9C:C6:5F:2E:18:33:EE:D4:16:2C:1F:E3:71:F8:98:EA:D5:22:19:EC
            X509v3 Basic Constraints: critical
                CA:TRUE, pathlen:0
            X509v3 Extended Key Usage: 
                TLS Web Client Authentication, TLS Web Server Authentication
            X509v3 Key Usage: critical
                Certificate Sign, CRL Sign
            X509v3 Subject Key Identifier: 
                BE:AE:5F:65:E9:B8:62:92:99:43:D3:74:65:2C:01:5D:F5:48:B0:03
    Signature Algorithm: sha256WithRSAEncryption
    Signature Value:
        ad:e2:32:f7:b0:c0:5d:35:4d:99:8c:d3:99:09:c4:74:37:8e:
        c3:f6:94:0a:26:c5:58:77:97:58:4e:80:20:e1:b9:e5:d7:df:
        86:98:4b:df:41:ff:03:d1:16:3e:39:21:43:3f:d9:94:ac:ec:
        36:e8:bb:b6:e4:58:02:d4:87:d8:16:c1:d4:4c:fa:72:65:7d:
        4b:76:70:d2:ac:e1:f2:af:38:43:ad:6d:fa:05:e0:28:77:6a:
        83:f4:e6:32:3b:33:93:7a:d8:a3:4e:9e:eb:35:42:22:b5:cf:
        f9:e5:c2:6d:83:0e:4b:b1:fd:eb:e4:1b:6d:87:ba:61:83:43:
        d6:58:7c:78:2d:3b:41:27:0c:af:50:53:eb:fc:9a:81:3a:d2:
        f6:e4:98:fe:22:33:c0:7a:a3:b0:ba:f9:91:6d:d3:de:38:51:
        56:33:f3:41:7e:0a:1c:f3:91:ea:cf:12:56:7d:b5:1c:97:59:
        7c:a3:de:bc:f4:a4:d2:4f:54:b3:ae:4d:25:24:e3:7d:d3:97:
        71:79:0d:c5:b9:0a:56:a1:c6:08:1a:ef:49:76:f1:4b:87:85:
        b9:07:8e:ee:fb:bb:e6:5e:0d:f4:d4:02:cf:99:6a:84:30:e6:
        78:4d:4c:a3:d3:b0:5a:9f:ff:bd:be:d2:96:f5:71:41:6f:d2:
        bd:97:5a:32
-----BEGIN CERTIFICATE-----
MIIDSDCCAjCgAwIBAgIQfG82Owfumn3IqhN00G7RJTANBgkqhkiG9w0BAQsFADAc
MRowGAYDVQQDDBFJb3RTY2hvb2wgUm9vdCBDQTAeFw0yMzA0MjUxNDA4MjJaFw0z
MzA0MjIxNDA4MjJaMBsxGTAXBgNVBAMMEElvdFNjaG9vbCBTdWIgQ0EwggEiMA0G
CSqGSIb3DQEBAQUAA4IBDwAwggEKAoIBAQChSrUYFA7M8c9DTbbBNHO4I5JmcMn5
YiDx+2ila+q2g8XTZRlbzyRb2TJwYaw9inDQ4jhZtWrjUqfbt0GcsFjnMfq9gF/W
7JvctKjcS3LLkc77N39O3ejhfc0GRXN6QnY26etCjqnfBM1AIGLUgpZ5jxaYQf7r
QZIP71r9s0rV98ip8R3VpQVWfQAdcNAP40ntMkryjnoMUykKDqaPz2xBru92MU1R
qapG2L1GV3OCCQBrv7vGhJv9VtjmXWi2mtqhFZF8ulpjvVIDEjnB9ULQO3NGEN3X
WteS4xyy5QOW7jAmSblKT/MoU2OjlWM/5fy09iiR5ytGEBUDKwA/rYp3AgMBAAGj
gYYwgYMwHwYDVR0jBBgwFoAUnMZfLhgz7tQWLB/jcfiY6tUiGewwEgYDVR0TAQH/
BAgwBgEB/wIBADAdBgNVHSUEFjAUBggrBgEFBQcDAgYIKwYBBQUHAwEwDgYDVR0P
AQH/BAQDAgEGMB0GA1UdDgQWBBS+rl9l6bhikplD03RlLAFd9UiwAzANBgkqhkiG
9w0BAQsFAAOCAQEAreIy97DAXTVNmYzTmQnEdDeOw/aUCibFWHeXWE6AIOG55dff
hphL30H/A9EWPjkhQz/ZlKzsNui7tuRYAtSH2BbB1Ez6cmV9S3Zw0qzh8q84Q61t
+gXgKHdqg/TmMjszk3rYo06e6zVCIrXP+eXCbYMOS7H96+QbbYe6YYND1lh8eC07
QScMr1BT6/yagTrS9uSY/iIzwHqjsLr5kW3T3jhRVjPzQX4KHPOR6s8SVn21HJdZ
fKPevPSk0k9Us65NJSTjfdOXcXkNxbkKVqHGCBrvSXbxS4eFuQeO7vu75l4N9NQC
z5lqhDDmeE1Mo9OwWp//vb7SlvVxQW/SvZdaMg==
-----END CERTIFICATE-----
