Certificate:
    Data:
        Version: 3 (0x2)
        Serial Number:
            2c:40:3c:96:1e:4e:cb:5f:3f:1d:ab:97:98:69:58:a1
        Signature Algorithm: sha256WithRSAEncryption
        Issuer: CN=IotSchool Sub CA
        Validity
            Not Before: May  5 11:24:35 2023 GMT
            Not After : May  4 11:24:35 2024 GMT
        Subject: C=DE, ST=Bavaria, O=IoT School, OU=PKI Services, CN=sample/emailAddress=iotschool@maibornwolff.de
        Subject Public Key Info:
            Public Key Algorithm: rsaEncryption
                Public-Key: (2048 bit)
                Modulus:
                    00:90:0f:d1:9b:4e:55:d0:c5:a5:21:31:bd:10:a4:
                    2b:86:aa:b7:e2:b2:1c:95:8d:46:2f:e1:51:54:a7:
                    6a:47:76:3a:8a:cd:79:46:92:fa:1a:37:96:f2:d0:
                    70:d5:f2:ad:4d:8d:f8:e0:ad:44:b2:fa:51:3c:64:
                    8d:77:bf:ad:1e:e9:c3:9f:90:2c:ae:f1:5d:19:8a:
                    37:9e:6a:5d:96:4c:8e:5f:34:bc:41:d2:a8:b4:58:
                    f5:9c:1a:5f:39:5b:f8:83:29:59:dc:e9:8b:24:b1:
                    44:de:8d:ea:d9:2e:13:66:fd:0d:15:50:9d:5a:05:
                    1e:b1:2a:c9:2c:d3:71:12:24:98:b0:6d:14:51:0a:
                    44:05:4a:6e:a3:4c:23:64:b2:45:10:ff:a9:61:28:
                    b2:76:a9:5e:8f:ea:45:84:79:c7:65:df:1f:0d:45:
                    55:72:c8:da:82:25:df:aa:e0:60:b3:00:ee:79:00:
                    fc:ae:19:fd:50:1b:e4:81:6e:76:bd:b7:2b:b5:80:
                    7e:07:2b:65:d6:72:08:dd:d2:eb:31:a0:7e:c6:a0:
                    15:51:50:fd:82:72:5a:85:27:90:e7:f9:28:bc:ce:
                    64:be:81:e2:04:4e:99:8b:6e:15:76:8c:0b:eb:21:
                    4c:7a:66:71:d0:42:de:6b:a8:31:32:08:e3:93:ce:
                    ec:27
                Exponent: 65537 (0x10001)
        X509v3 extensions:
            X509v3 Authority Key Identifier: 
                AC:D6:0C:39:4E:A1:00:ED:C1:45:39:97:6D:46:1F:E2:58:CB:7C:08
            X509v3 Basic Constraints: critical
                CA:FALSE
            X509v3 Extended Key Usage: 
                TLS Web Client Authentication
            X509v3 Key Usage: critical
                Digital Signature
            X509v3 Subject Key Identifier: 
                CB:32:7D:C4:ED:59:14:B3:A4:4D:2B:EB:C0:C1:94:0C:3E:9F:03:2C
            X509v3 Subject Alternative Name: 
                DNS:sample
    Signature Algorithm: sha256WithRSAEncryption
    Signature Value:
        53:fc:c4:99:9e:f3:35:67:60:e0:86:61:3f:72:44:a2:a3:48:
        f2:5c:33:19:46:62:cd:e2:92:99:a3:c2:62:dd:a8:a2:ac:0d:
        2f:6b:9b:38:83:60:d1:58:64:d8:f8:13:25:01:b0:99:f5:0f:
        76:50:37:b9:57:b7:1c:53:33:f2:e2:a4:fc:4d:36:94:a8:16:
        29:01:d8:0a:f8:06:43:38:f6:0f:cc:cf:c3:a1:35:69:a1:12:
        00:e9:11:94:11:82:2a:7a:10:55:20:bc:ba:c4:4c:f8:18:51:
        94:0b:f7:e3:86:20:ad:34:0c:14:37:e3:aa:0c:d1:d8:eb:b9:
        e7:59:0c:ab:fc:9d:57:8e:b5:8d:89:76:38:30:87:aa:6f:a2:
        99:13:14:5a:50:fe:14:87:b3:17:cd:29:ff:10:53:9b:08:71:
        82:93:b3:03:0e:3a:75:2d:ab:17:87:e0:7e:e1:ef:77:b5:76:
        75:9f:46:0b:06:b4:7a:c2:66:d0:56:48:ed:dd:e5:99:c3:de:
        1b:62:c2:f8:af:79:0d:9c:75:95:f1:12:ee:39:83:d1:45:6f:
        fb:3a:77:ff:52:6c:fa:62:5c:f1:3b:96:6b:60:83:4b:82:44:
        0f:31:fe:ec:9a:8d:cf:b9:8e:aa:10:aa:cf:e9:e0:57:66:10:
        0c:2a:dc:4b
-----BEGIN CERTIFICATE-----
MIIDtjCCAp6gAwIBAgIQLEA8lh5Oy18/HauXmGlYoTANBgkqhkiG9w0BAQsFADAb
MRkwFwYDVQQDDBBJb3RTY2hvb2wgU3ViIENBMB4XDTIzMDUwNTExMjQzNVoXDTI0
MDUwNDExMjQzNVowgYYxCzAJBgNVBAYTAkRFMRAwDgYDVQQIDAdCYXZhcmlhMRMw
EQYDVQQKDApJb1QgU2Nob29sMRUwEwYDVQQLDAxQS0kgU2VydmljZXMxDzANBgNV
BAMMBnNhbXBsZTEoMCYGCSqGSIb3DQEJARYZaW90c2Nob29sQG1haWJvcm53b2xm
Zi5kZTCCASIwDQYJKoZIhvcNAQEBBQADggEPADCCAQoCggEBAJAP0ZtOVdDFpSEx
vRCkK4aqt+KyHJWNRi/hUVSnakd2OorNeUaS+ho3lvLQcNXyrU2N+OCtRLL6UTxk
jXe/rR7pw5+QLK7xXRmKN55qXZZMjl80vEHSqLRY9ZwaXzlb+IMpWdzpiySxRN6N
6tkuE2b9DRVQnVoFHrEqySzTcRIkmLBtFFEKRAVKbqNMI2SyRRD/qWEosnapXo/q
RYR5x2XfHw1FVXLI2oIl36rgYLMA7nkA/K4Z/VAb5IFudr23K7WAfgcrZdZyCN3S
6zGgfsagFVFQ/YJyWoUnkOf5KLzOZL6B4gROmYtuFXaMC+shTHpmcdBC3muoMTII
45PO7CcCAwEAAaOBiTCBhjAfBgNVHSMEGDAWgBSs1gw5TqEA7cFFOZdtRh/iWMt8
CDAMBgNVHRMBAf8EAjAAMBMGA1UdJQQMMAoGCCsGAQUFBwMCMA4GA1UdDwEB/wQE
AwIHgDAdBgNVHQ4EFgQUyzJ9xO1ZFLOkTSvrwMGUDD6fAywwEQYDVR0RBAowCIIG
c2FtcGxlMA0GCSqGSIb3DQEBCwUAA4IBAQBT/MSZnvM1Z2DghmE/ckSio0jyXDMZ
RmLN4pKZo8Ji3aiirA0va5s4g2DRWGTY+BMlAbCZ9Q92UDe5V7ccUzPy4qT8TTaU
qBYpAdgK+AZDOPYPzM/DoTVpoRIA6RGUEYIqehBVILy6xEz4GFGUC/fjhiCtNAwU
N+OqDNHY67nnWQyr/J1XjrWNiXY4MIeqb6KZExRaUP4Uh7MXzSn/EFObCHGCk7MD
Djp1LasXh+B+4e93tXZ1n0YLBrR6wmbQVkjt3eWZw94bYsL4r3kNnHWV8RLuOYPR
RW/7Onf/Umz6YlzxO5ZrYINLgkQPMf7smo3PuY6qEKrP6eBXZhAMKtxL
-----END CERTIFICATE-----
Certificate:
    Data:
        Version: 3 (0x2)
        Serial Number:
            08:b9:85:87:a0:de:d4:3b:b1:96:5a:04:4b:2c:e9:5a
        Signature Algorithm: sha256WithRSAEncryption
        Issuer: CN=IotSchool Root CA
        Validity
            Not Before: Apr 25 14:34:46 2023 GMT
            Not After : Apr 22 14:34:46 2033 GMT
        Subject: CN=IotSchool Sub CA
        Subject Public Key Info:
            Public Key Algorithm: rsaEncryption
                Public-Key: (2048 bit)
                Modulus:
                    00:c8:86:30:d4:22:5a:90:ec:64:a0:1c:92:23:e0:
                    bb:91:43:ec:11:86:43:7b:9c:5c:74:7d:45:b7:a0:
                    f8:63:83:94:5a:6e:cb:ba:ba:82:60:d4:1d:87:9f:
                    4e:ca:c9:91:41:14:e5:98:91:f8:aa:d3:98:38:46:
                    f5:e3:fb:f6:bc:ca:f0:2f:4d:2e:07:83:00:fd:a8:
                    01:a6:fc:dc:1f:30:3b:b0:51:e3:66:19:37:bc:b4:
                    31:b1:8e:1f:18:ed:7c:2f:69:5f:5c:c5:3e:93:dc:
                    ba:71:80:50:d1:c3:18:1e:72:75:24:f9:26:ab:91:
                    6a:7c:14:23:49:bf:e8:39:f8:1f:b7:e1:85:6c:e7:
                    6a:fd:ed:5f:cf:78:5f:4a:4e:97:82:80:fb:2d:02:
                    14:9a:d3:8f:1f:d8:06:78:f4:0c:99:85:59:f0:b2:
                    e6:70:f2:db:e1:16:5e:c0:c7:fd:ad:37:80:92:ce:
                    c3:7d:ad:0a:87:b8:3e:70:d0:65:24:5b:af:90:c6:
                    34:96:67:c8:11:27:23:d7:f0:85:dd:5b:5b:a8:d6:
                    66:7f:f4:13:2b:22:bf:24:13:30:5f:6f:80:2f:9a:
                    81:c5:d5:96:c3:47:be:cf:3c:f7:5c:d5:11:ea:68:
                    73:43:e6:99:76:eb:48:91:c6:12:21:17:a7:ba:66:
                    ac:69
                Exponent: 65537 (0x10001)
        X509v3 extensions:
            X509v3 Authority Key Identifier: 
                9C:C6:5F:2E:18:33:EE:D4:16:2C:1F:E3:71:F8:98:EA:D5:22:19:EC
            X509v3 Basic Constraints: critical
                CA:TRUE, pathlen:0
            X509v3 Extended Key Usage: 
                TLS Web Client Authentication, TLS Web Server Authentication
            X509v3 Key Usage: critical
                Certificate Sign, CRL Sign
            X509v3 Subject Key Identifier: 
                AC:D6:0C:39:4E:A1:00:ED:C1:45:39:97:6D:46:1F:E2:58:CB:7C:08
    Signature Algorithm: sha256WithRSAEncryption
    Signature Value:
        2f:e8:a6:86:a5:49:28:07:b3:9b:fe:eb:f7:00:42:b8:2c:56:
        fb:d2:b2:8f:03:68:07:76:a1:83:67:d2:2c:8b:a0:16:f0:cd:
        04:0e:7e:3c:c0:28:29:a8:d7:e1:00:96:0d:35:6e:d4:c8:97:
        bf:2c:7a:4e:34:20:c9:ff:31:bb:c9:35:0b:19:68:12:8e:28:
        00:61:cf:a6:75:d4:ad:71:9e:0f:2b:6f:3a:39:3a:bd:f9:d9:
        18:c1:1a:e5:99:ff:7d:fd:bc:57:89:75:b0:54:57:74:0a:ae:
        21:5d:71:02:94:80:99:53:a9:41:c9:cd:0a:27:03:86:75:94:
        f4:eb:fe:38:ae:95:67:99:4b:fb:ae:b2:49:84:ab:db:d5:eb:
        ec:8c:98:63:47:d6:3c:57:98:af:9c:48:d2:63:0c:10:2e:dd:
        d4:ca:b9:f5:29:be:d8:29:02:3a:af:11:8d:f9:5c:26:e7:48:
        a1:cd:c3:ac:9f:87:34:d6:ee:3f:55:f5:c1:1d:ea:52:cf:72:
        f2:75:d6:d1:e2:a2:4f:15:f3:09:3b:e1:f1:93:f9:ff:b1:09:
        8b:65:e7:81:f4:3d:fa:5e:99:db:19:00:d2:a7:95:23:bb:4f:
        02:8a:c2:ff:11:fd:99:2c:9a:b7:24:98:fc:94:26:e6:42:a5:
        3f:38:8a:e8
-----BEGIN CERTIFICATE-----
MIIDSDCCAjCgAwIBAgIQCLmFh6De1DuxlloESyzpWjANBgkqhkiG9w0BAQsFADAc
MRowGAYDVQQDDBFJb3RTY2hvb2wgUm9vdCBDQTAeFw0yMzA0MjUxNDM0NDZaFw0z
MzA0MjIxNDM0NDZaMBsxGTAXBgNVBAMMEElvdFNjaG9vbCBTdWIgQ0EwggEiMA0G
CSqGSIb3DQEBAQUAA4IBDwAwggEKAoIBAQDIhjDUIlqQ7GSgHJIj4LuRQ+wRhkN7
nFx0fUW3oPhjg5Rabsu6uoJg1B2Hn07KyZFBFOWYkfiq05g4RvXj+/a8yvAvTS4H
gwD9qAGm/NwfMDuwUeNmGTe8tDGxjh8Y7XwvaV9cxT6T3LpxgFDRwxgecnUk+Sar
kWp8FCNJv+g5+B+34YVs52r97V/PeF9KTpeCgPstAhSa048f2AZ49AyZhVnwsuZw
8tvhFl7Ax/2tN4CSzsN9rQqHuD5w0GUkW6+QxjSWZ8gRJyPX8IXdW1uo1mZ/9BMr
Ir8kEzBfb4AvmoHF1ZbDR77PPPdc1RHqaHND5pl260iRxhIhF6e6ZqxpAgMBAAGj
gYYwgYMwHwYDVR0jBBgwFoAUnMZfLhgz7tQWLB/jcfiY6tUiGewwEgYDVR0TAQH/
BAgwBgEB/wIBADAdBgNVHSUEFjAUBggrBgEFBQcDAgYIKwYBBQUHAwEwDgYDVR0P
AQH/BAQDAgEGMB0GA1UdDgQWBBSs1gw5TqEA7cFFOZdtRh/iWMt8CDANBgkqhkiG
9w0BAQsFAAOCAQEAL+imhqVJKAezm/7r9wBCuCxW+9KyjwNoB3ahg2fSLIugFvDN
BA5+PMAoKajX4QCWDTVu1MiXvyx6TjQgyf8xu8k1CxloEo4oAGHPpnXUrXGeDytv
Ojk6vfnZGMEa5Zn/ff28V4l1sFRXdAquIV1xApSAmVOpQcnNCicDhnWU9Ov+OK6V
Z5lL+66ySYSr29Xr7IyYY0fWPFeYr5xI0mMMEC7d1Mq59Sm+2CkCOq8RjflcJudI
oc3DrJ+HNNbuP1X1wR3qUs9y8nXW0eKiTxXzCTvh8ZP5/7EJi2XngfQ9+l6Z2xkA
0qeVI7tPAorC/xH9mSyatySY/JQm5kKlPziK6A==
-----END CERTIFICATE-----
