Certificate:
    Data:
        Version: 3 (0x2)
        Serial Number:
            2c:40:3c:96:1e:4e:cb:5f:3f:1d:ab:97:98:69:58:b7
        Signature Algorithm: sha256WithRSAEncryption
        Issuer: CN=IotSchool Sub CA
        Validity
            Not Before: May  5 11:25:54 2023 GMT
            Not After : May  4 11:25:54 2024 GMT
        Subject: C=DE, ST=Bavaria, O=IoT School, OU=PKI Services, CN=sample/emailAddress=iotschool@maibornwolff.de
        Subject Public Key Info:
            Public Key Algorithm: rsaEncryption
                Public-Key: (2048 bit)
                Modulus:
                    00:a8:b0:48:8f:66:52:44:0f:c9:7d:48:20:ff:e2:
                    8b:f7:78:22:5d:82:20:e1:82:18:cc:6d:9b:3e:d0:
                    ce:a0:d0:0d:ee:23:c7:bf:57:d8:4f:9b:3d:a7:4c:
                    0c:52:34:7d:6c:b1:ca:28:a5:45:00:1a:00:10:50:
                    c9:73:af:a9:de:3f:17:d1:5c:a8:cc:0b:66:a1:39:
                    17:02:d6:77:c5:93:45:21:dc:30:06:c4:c5:1b:6e:
                    79:e1:76:3d:7c:e7:0b:7e:9a:07:5c:c6:58:d0:d8:
                    02:32:e3:a1:0b:b1:3c:23:d0:f4:07:27:d6:ba:84:
                    4b:ff:49:14:e0:d7:05:82:11:ef:c4:82:85:d0:16:
                    13:a6:62:3c:e7:ff:5b:94:c3:93:77:19:c2:e8:55:
                    00:4c:84:6a:f2:1b:a1:17:ee:ac:74:38:cc:dd:1f:
                    09:85:af:be:0d:17:3c:47:28:09:be:71:70:d3:6f:
                    d9:70:bf:16:f9:92:f5:0f:af:d9:58:ba:50:34:0d:
                    53:8d:51:be:19:7a:79:2a:08:00:16:f7:ac:6b:94:
                    d8:d8:c4:e7:d4:7c:e7:33:fe:1e:52:ff:c3:3f:17:
                    97:34:b9:79:2a:ec:73:27:aa:6a:4c:97:30:d1:42:
                    c5:d2:c6:24:7f:4e:78:71:82:76:ae:d6:7f:07:d7:
                    3f:8f
                Exponent: 65537 (0x10001)
        X509v3 extensions:
            X509v3 Authority Key Identifier: 
                9E:58:44:D5:7C:27:FD:C3:90:45:42:97:3E:E1:FC:E9:1B:97:D8:D0
            X509v3 Basic Constraints: critical
                CA:FALSE
            X509v3 Extended Key Usage: 
                TLS Web Client Authentication
            X509v3 Key Usage: critical
                Digital Signature
            X509v3 Subject Key Identifier: 
                76:78:F9:5B:B1:53:E2:66:EC:C8:74:ED:3B:82:D9:75:D0:92:0E:D8
            X509v3 Subject Alternative Name: 
                DNS:sample
    Signature Algorithm: sha256WithRSAEncryption
    Signature Value:
        7c:95:7c:54:6d:7c:56:8b:e8:21:63:f3:40:bd:8e:13:e2:74:
        2c:64:ab:37:b9:d4:40:72:fa:4e:47:cd:a0:1c:53:53:0e:9e:
        14:a6:3c:38:c7:45:1f:17:cc:1e:24:52:f7:95:45:ab:44:e7:
        d4:48:5b:2c:89:9e:15:88:23:df:22:0c:2a:a4:32:1b:eb:90:
        46:ca:de:e0:32:b4:fe:ad:44:9d:a8:4c:a3:4b:ba:52:e8:22:
        f7:61:fb:1b:a2:f1:6f:7a:7f:47:bc:4b:02:d4:bb:71:1a:36:
        da:23:5a:2c:cc:67:b4:3f:c3:a9:fc:7f:0b:8c:ad:64:49:d9:
        11:cc:4d:7b:31:60:f2:3d:09:e0:3a:66:d9:54:68:1e:f9:a1:
        e8:6c:81:80:22:3e:d3:f1:9c:d4:db:74:02:ed:1c:9a:56:35:
        c8:7a:c8:52:19:2e:bc:cf:f7:d0:d1:e3:0c:58:ec:9e:37:1b:
        4a:ae:d9:72:e3:bd:74:2b:a8:05:80:50:60:6a:5d:32:e2:d5:
        a4:9e:82:bf:5d:7f:a6:3b:e0:11:f8:c5:0c:ab:c6:b8:05:5b:
        60:21:c1:d7:79:7a:fd:66:99:b4:be:f3:48:1c:77:92:73:8f:
        4f:10:77:ac:40:d8:d2:90:13:71:73:42:ce:4f:ce:41:10:ae:
        42:e4:9b:aa
-----BEGIN CERTIFICATE-----
MIIDtjCCAp6gAwIBAgIQLEA8lh5Oy18/HauXmGlYtzANBgkqhkiG9w0BAQsFADAb
MRkwFwYDVQQDDBBJb3RTY2hvb2wgU3ViIENBMB4XDTIzMDUwNTExMjU1NFoXDTI0
MDUwNDExMjU1NFowgYYxCzAJBgNVBAYTAkRFMRAwDgYDVQQIDAdCYXZhcmlhMRMw
EQYDVQQKDApJb1QgU2Nob29sMRUwEwYDVQQLDAxQS0kgU2VydmljZXMxDzANBgNV
BAMMBnNhbXBsZTEoMCYGCSqGSIb3DQEJARYZaW90c2Nob29sQG1haWJvcm53b2xm
Zi5kZTCCASIwDQYJKoZIhvcNAQEBBQADggEPADCCAQoCggEBAKiwSI9mUkQPyX1I
IP/ii/d4Il2CIOGCGMxtmz7QzqDQDe4jx79X2E+bPadMDFI0fWyxyiilRQAaABBQ
yXOvqd4/F9FcqMwLZqE5FwLWd8WTRSHcMAbExRtueeF2PXznC36aB1zGWNDYAjLj
oQuxPCPQ9Acn1rqES/9JFODXBYIR78SChdAWE6ZiPOf/W5TDk3cZwuhVAEyEavIb
oRfurHQ4zN0fCYWvvg0XPEcoCb5xcNNv2XC/FvmS9Q+v2Vi6UDQNU41Rvhl6eSoI
ABb3rGuU2NjE59R85zP+HlL/wz8XlzS5eSrscyeqakyXMNFCxdLGJH9OeHGCdq7W
fwfXP48CAwEAAaOBiTCBhjAfBgNVHSMEGDAWgBSeWETVfCf9w5BFQpc+4fzpG5fY
0DAMBgNVHRMBAf8EAjAAMBMGA1UdJQQMMAoGCCsGAQUFBwMCMA4GA1UdDwEB/wQE
AwIHgDAdBgNVHQ4EFgQUdnj5W7FT4mbsyHTtO4LZddCSDtgwEQYDVR0RBAowCIIG
c2FtcGxlMA0GCSqGSIb3DQEBCwUAA4IBAQB8lXxUbXxWi+ghY/NAvY4T4nQsZKs3
udRAcvpOR82gHFNTDp4Upjw4x0UfF8weJFL3lUWrROfUSFssiZ4ViCPfIgwqpDIb
65BGyt7gMrT+rUSdqEyjS7pS6CL3YfsbovFven9HvEsC1LtxGjbaI1oszGe0P8Op
/H8LjK1kSdkRzE17MWDyPQngOmbZVGge+aHobIGAIj7T8ZzU23QC7RyaVjXIeshS
GS68z/fQ0eMMWOyeNxtKrtly4710K6gFgFBgal0y4tWknoK/XX+mO+AR+MUMq8a4
BVtgIcHXeXr9Zpm0vvNIHHeSc49PEHesQNjSkBNxc0LOT85BEK5C5Juq
-----END CERTIFICATE-----
Certificate:
    Data:
        Version: 3 (0x2)
        Serial Number:
            e7:05:25:dd:69:38:8d:a0:eb:43:bd:35:21:12:0a:f9
        Signature Algorithm: sha256WithRSAEncryption
        Issuer: CN=IotSchool Root CA
        Validity
            Not Before: Apr 25 14:14:04 2023 GMT
            Not After : Apr 22 14:14:04 2033 GMT
        Subject: CN=IotSchool Sub CA
        Subject Public Key Info:
            Public Key Algorithm: rsaEncryption
                Public-Key: (2048 bit)
                Modulus:
                    00:dc:6b:40:4c:61:74:47:28:b2:09:c8:87:4e:60:
                    02:49:52:ef:aa:6a:e9:8d:c2:a2:da:a9:7d:c2:5f:
                    d0:e1:c4:00:6f:8a:0c:1b:f7:de:ff:cb:fb:a1:f0:
                    05:8d:53:5c:dd:81:f8:c5:75:a1:4b:4f:68:f0:01:
                    9a:f1:21:c8:b5:1e:a1:7d:40:01:68:09:1e:98:6e:
                    e7:64:5b:c0:2d:69:61:31:17:27:fb:e7:4d:62:26:
                    a9:f7:3d:68:d3:2c:df:96:88:01:f8:72:ae:5c:73:
                    86:80:52:fd:c6:9e:df:53:15:cb:6c:a3:9a:e0:ea:
                    36:6c:75:34:c6:70:01:3c:90:7d:72:80:d6:ea:91:
                    a1:6a:8c:1d:fe:99:12:7e:dd:d1:6d:9c:a6:44:16:
                    ee:d7:f3:f6:95:34:2e:03:14:df:93:01:f9:60:9a:
                    2f:21:94:74:6a:06:26:86:c0:a7:43:11:13:9f:14:
                    97:44:d3:3d:ed:e9:d1:b2:9e:e2:af:60:87:bb:ed:
                    59:2c:9d:ca:6c:ec:7b:8d:1d:45:33:e8:0d:25:41:
                    f7:08:38:5c:23:bf:72:24:45:cc:b7:00:c6:9d:5e:
                    0f:55:7b:45:17:80:5b:6d:b3:48:7b:57:9b:74:ff:
                    7b:17:8c:76:2c:a8:06:7e:28:83:57:d2:a4:f6:f0:
                    4e:cd
                Exponent: 65537 (0x10001)
        X509v3 extensions:
            X509v3 Authority Key Identifier: 
                9C:C6:5F:2E:18:33:EE:D4:16:2C:1F:E3:71:F8:98:EA:D5:22:19:EC
            X509v3 Basic Constraints: critical
                CA:TRUE, pathlen:0
            X509v3 Extended Key Usage: 
                TLS Web Client Authentication, TLS Web Server Authentication
            X509v3 Key Usage: critical
                Certificate Sign, CRL Sign
            X509v3 Subject Key Identifier: 
                9E:58:44:D5:7C:27:FD:C3:90:45:42:97:3E:E1:FC:E9:1B:97:D8:D0
    Signature Algorithm: sha256WithRSAEncryption
    Signature Value:
        b0:a8:22:33:ae:c2:8c:c3:1d:1d:c3:03:25:3b:2d:78:97:f9:
        71:03:05:66:9b:8a:50:f4:99:bd:58:03:59:b1:fa:6a:e6:83:
        ac:7a:19:c8:9b:d5:d0:94:7d:ec:a3:cb:39:a5:56:75:13:0c:
        6b:d3:d7:02:91:f5:bc:8e:fd:24:c5:70:91:af:ae:b3:14:67:
        7d:8f:a7:df:5c:c0:d7:ac:0a:50:b0:b0:3f:15:37:82:a0:bd:
        a4:7a:0d:d1:1a:54:47:ee:6a:f1:91:8a:9a:46:ee:96:f7:95:
        d1:56:13:3a:8c:fa:00:4c:bd:0e:d0:e6:26:2b:a9:00:ff:fc:
        4e:df:9a:f4:05:dd:7f:bc:42:a7:ce:74:38:d5:35:77:a4:f8:
        c1:20:e3:35:19:90:9c:73:ca:4a:c1:7f:e3:7d:0e:28:a2:51:
        c4:97:a3:0f:c3:38:9c:08:85:d6:ae:90:23:d0:fc:d2:d7:18:
        e5:4c:0b:a9:e9:e7:d2:1f:60:9c:8d:40:eb:61:31:c5:52:2a:
        8f:84:67:94:03:15:1f:62:8f:16:ca:f8:8d:11:0e:d7:e7:ee:
        c2:9e:4a:e1:85:dc:4f:5d:e8:b2:d1:4d:3a:ab:24:4b:26:60:
        0a:65:51:bb:70:e1:ef:82:55:ee:c9:f5:b4:2c:68:e5:fd:d8:
        9e:11:43:9e
-----BEGIN CERTIFICATE-----
MIIDSTCCAjGgAwIBAgIRAOcFJd1pOI2g60O9NSESCvkwDQYJKoZIhvcNAQELBQAw
HDEaMBgGA1UEAwwRSW90U2Nob29sIFJvb3QgQ0EwHhcNMjMwNDI1MTQxNDA0WhcN
MzMwNDIyMTQxNDA0WjAbMRkwFwYDVQQDDBBJb3RTY2hvb2wgU3ViIENBMIIBIjAN
BgkqhkiG9w0BAQEFAAOCAQ8AMIIBCgKCAQEA3GtATGF0RyiyCciHTmACSVLvqmrp
jcKi2ql9wl/Q4cQAb4oMG/fe/8v7ofAFjVNc3YH4xXWhS09o8AGa8SHItR6hfUAB
aAkemG7nZFvALWlhMRcn++dNYiap9z1o0yzflogB+HKuXHOGgFL9xp7fUxXLbKOa
4Oo2bHU0xnABPJB9coDW6pGhaowd/pkSft3RbZymRBbu1/P2lTQuAxTfkwH5YJov
IZR0agYmhsCnQxETnxSXRNM97enRsp7ir2CHu+1ZLJ3KbOx7jR1FM+gNJUH3CDhc
I79yJEXMtwDGnV4PVXtFF4BbbbNIe1ebdP97F4x2LKgGfiiDV9Kk9vBOzQIDAQAB
o4GGMIGDMB8GA1UdIwQYMBaAFJzGXy4YM+7UFiwf43H4mOrVIhnsMBIGA1UdEwEB
/wQIMAYBAf8CAQAwHQYDVR0lBBYwFAYIKwYBBQUHAwIGCCsGAQUFBwMBMA4GA1Ud
DwEB/wQEAwIBBjAdBgNVHQ4EFgQUnlhE1Xwn/cOQRUKXPuH86RuX2NAwDQYJKoZI
hvcNAQELBQADggEBALCoIjOuwozDHR3DAyU7LXiX+XEDBWabilD0mb1YA1mx+mrm
g6x6Gcib1dCUfeyjyzmlVnUTDGvT1wKR9byO/STFcJGvrrMUZ32Pp99cwNesClCw
sD8VN4KgvaR6DdEaVEfuavGRippG7pb3ldFWEzqM+gBMvQ7Q5iYrqQD//E7fmvQF
3X+8QqfOdDjVNXek+MEg4zUZkJxzykrBf+N9DiiiUcSXow/DOJwIhdaukCPQ/NLX
GOVMC6np59IfYJyNQOthMcVSKo+EZ5QDFR9ijxbK+I0RDtfn7sKeSuGF3E9d6LLR
TTqrJEsmYAplUbtw4e+CVe7J9bQsaOX92J4RQ54=
-----END CERTIFICATE-----
