Certificate:
    Data:
        Version: 3 (0x2)
        Serial Number:
            2c:40:3c:96:1e:4e:cb:5f:3f:1d:ab:97:98:69:58:ad
        Signature Algorithm: sha256WithRSAEncryption
        Issuer: CN=IotSchool Sub CA
        Validity
            Not Before: May  5 11:24:50 2023 GMT
            Not After : May  4 11:24:50 2024 GMT
        Subject: C=DE, ST=Bavaria, O=IoT School, OU=PKI Services, CN=sample/emailAddress=iotschool@maibornwolff.de
        Subject Public Key Info:
            Public Key Algorithm: rsaEncryption
                Public-Key: (2048 bit)
                Modulus:
                    00:ec:e0:c0:a4:67:71:cb:70:c0:6d:7f:44:15:90:
                    21:b7:57:1e:d6:9b:c3:6e:92:a4:1d:13:8c:9c:8c:
                    6a:fe:50:48:53:4c:8e:94:92:e2:2b:40:74:79:4b:
                    e8:94:ad:5b:17:e4:35:f3:bd:c9:6c:c5:2e:48:0b:
                    b7:11:06:ed:67:5a:e0:ed:08:8b:21:f3:91:ea:57:
                    93:b7:d2:f8:3c:72:50:91:43:32:bf:f6:2a:86:97:
                    50:68:57:c4:f1:5e:66:37:99:3c:a2:92:00:03:e3:
                    1c:55:d3:60:4e:6e:29:20:ec:c8:a3:c7:b8:a7:c0:
                    37:54:b5:8b:96:08:22:5f:f2:9a:cf:64:76:ff:1f:
                    76:ed:26:f3:fd:03:42:d7:ea:d5:f0:e8:5e:73:63:
                    83:94:67:ae:5d:28:0c:86:f0:be:4a:2c:e0:a5:25:
                    5f:5d:82:ca:56:22:ec:1d:38:06:0b:71:b7:ce:cf:
                    52:55:a7:02:de:7b:cb:18:be:63:d9:1a:fd:ec:a5:
                    77:4b:dd:d8:78:49:de:2a:20:22:14:0d:ed:c6:2e:
                    cd:36:e0:a5:63:db:8e:b1:22:b0:18:f2:bc:82:89:
                    56:d0:10:ca:81:c8:98:40:b8:40:79:0e:19:4f:bd:
                    db:0c:b1:c1:75:6f:3d:a5:7a:5f:28:c8:e4:a3:17:
                    86:45
                Exponent: 65537 (0x10001)
        X509v3 extensions:
            X509v3 Authority Key Identifier: 
                1C:1A:4C:F3:81:E9:BA:AB:08:9B:44:93:95:F5:D3:83:C1:BA:22:E8
            X509v3 Basic Constraints: critical
                CA:FALSE
            X509v3 Extended Key Usage: 
                TLS Web Client Authentication
            X509v3 Key Usage: critical
                Digital Signature
            X509v3 Subject Key Identifier: 
                1D:7A:6F:E0:7C:6E:C2:A0:30:8F:39:BA:A4:3D:4C:BB:A8:EC:6A:C9
            X509v3 Subject Alternative Name: 
                DNS:sample
    Signature Algorithm: sha256WithRSAEncryption
    Signature Value:
        68:03:51:c2:a0:cd:3f:c7:df:30:b8:e0:f8:c7:9d:4c:e5:44:
        45:df:d6:71:85:bf:85:e8:40:02:13:df:05:37:8d:3b:db:73:
        f4:a4:a4:4d:fe:fc:9b:32:3a:99:5a:c4:47:56:ce:94:07:1e:
        42:40:07:e0:7a:79:68:9a:f5:d3:e8:75:f6:44:e0:37:0a:fd:
        6a:2d:55:47:6a:ea:a0:69:06:77:4b:b9:5f:6f:71:e1:b9:d5:
        0f:7e:03:43:fb:7e:49:95:34:03:67:b8:04:b3:9c:3e:a2:9c:
        68:86:82:fa:86:d3:71:93:8a:be:1c:bf:5a:14:60:61:9b:89:
        50:f0:c6:61:56:c5:7d:5c:ba:65:69:fe:dd:38:72:9d:36:cb:
        64:74:91:58:9f:d2:5f:3c:b0:0c:9b:04:1e:23:6b:85:c6:00:
        17:ac:fa:d9:66:1a:ac:a3:84:ff:bd:c8:30:29:86:d4:53:a0:
        cb:42:f6:21:6e:70:92:df:c9:93:77:7c:88:7b:94:75:64:ce:
        ea:91:80:42:66:79:28:a5:7b:57:25:66:1a:f6:c8:37:b8:a0:
        55:68:d9:60:a8:a7:59:35:fb:d7:a9:32:59:f4:5b:20:03:dd:
        d4:9d:ad:99:2c:8e:9c:a2:2b:18:93:ba:45:98:42:4d:df:94:
        0e:e0:5b:6c
-----BEGIN CERTIFICATE-----
MIIDtjCCAp6gAwIBAgIQLEA8lh5Oy18/HauXmGlYrTANBgkqhkiG9w0BAQsFADAb
MRkwFwYDVQQDDBBJb3RTY2hvb2wgU3ViIENBMB4XDTIzMDUwNTExMjQ1MFoXDTI0
MDUwNDExMjQ1MFowgYYxCzAJBgNVBAYTAkRFMRAwDgYDVQQIDAdCYXZhcmlhMRMw
EQYDVQQKDApJb1QgU2Nob29sMRUwEwYDVQQLDAxQS0kgU2VydmljZXMxDzANBgNV
BAMMBnNhbXBsZTEoMCYGCSqGSIb3DQEJARYZaW90c2Nob29sQG1haWJvcm53b2xm
Zi5kZTCCASIwDQYJKoZIhvcNAQEBBQADggEPADCCAQoCggEBAOzgwKRncctwwG1/
RBWQIbdXHtabw26SpB0TjJyMav5QSFNMjpSS4itAdHlL6JStWxfkNfO9yWzFLkgL
txEG7Wda4O0IiyHzkepXk7fS+DxyUJFDMr/2KoaXUGhXxPFeZjeZPKKSAAPjHFXT
YE5uKSDsyKPHuKfAN1S1i5YIIl/yms9kdv8fdu0m8/0DQtfq1fDoXnNjg5Rnrl0o
DIbwvkos4KUlX12CylYi7B04Bgtxt87PUlWnAt57yxi+Y9ka/eyld0vd2HhJ3iog
IhQN7cYuzTbgpWPbjrEisBjyvIKJVtAQyoHImEC4QHkOGU+92wyxwXVvPaV6XyjI
5KMXhkUCAwEAAaOBiTCBhjAfBgNVHSMEGDAWgBQcGkzzgem6qwibRJOV9dODwboi
6DAMBgNVHRMBAf8EAjAAMBMGA1UdJQQMMAoGCCsGAQUFBwMCMA4GA1UdDwEB/wQE
AwIHgDAdBgNVHQ4EFgQUHXpv4HxuwqAwjzm6pD1Mu6jsaskwEQYDVR0RBAowCIIG
c2FtcGxlMA0GCSqGSIb3DQEBCwUAA4IBAQBoA1HCoM0/x98wuOD4x51M5URF39Zx
hb+F6EACE98FN40723P0pKRN/vybMjqZWsRHVs6UBx5CQAfgenlomvXT6HX2ROA3
Cv1qLVVHauqgaQZ3S7lfb3HhudUPfgND+35JlTQDZ7gEs5w+opxohoL6htNxk4q+
HL9aFGBhm4lQ8MZhVsV9XLplaf7dOHKdNstkdJFYn9JfPLAMmwQeI2uFxgAXrPrZ
Zhqso4T/vcgwKYbUU6DLQvYhbnCS38mTd3yIe5R1ZM7qkYBCZnkopXtXJWYa9sg3
uKBVaNlgqKdZNfvXqTJZ9FsgA93Una2ZLI6coisYk7pFmEJN35QO4Fts
-----END CERTIFICATE-----
Certificate:
    Data:
        Version: 3 (0x2)
        Serial Number:
            07:a1:08:74:d4:a2:d4:0c:12:f0:5d:db:46:02:31:75
        Signature Algorithm: sha256WithRSAEncryption
        Issuer: CN=IotSchool Root CA
        Validity
            Not Before: Apr 25 18:11:11 2023 GMT
            Not After : Apr 22 18:11:11 2033 GMT
        Subject: CN=IotSchool Sub CA
        Subject Public Key Info:
            Public Key Algorithm: rsaEncryption
                Public-Key: (2048 bit)
                Modulus:
                    00:ba:b6:fb:09:9d:2d:10:66:1f:67:59:ed:dd:d5:
                    38:03:09:45:1d:a6:cf:11:db:3a:7e:90:11:ac:a7:
                    ff:81:df:63:9d:85:64:ef:8c:6a:a4:a2:03:4b:f4:
                    41:80:c5:76:51:37:fd:a8:d8:3d:33:18:96:f9:04:
                    ce:74:9b:5a:55:be:3f:54:7a:60:87:75:0a:3d:6e:
                    b1:cd:c7:9e:12:ff:f4:e5:ba:35:a3:96:45:ef:2e:
                    97:1d:ee:fe:44:b5:56:d6:2d:7c:80:0e:a4:69:73:
                    ee:99:70:87:01:67:2d:f9:c6:3e:c0:18:92:1d:a4:
                    ac:0a:17:06:06:c6:07:ae:e3:b6:c6:99:2b:3f:f3:
                    28:da:bc:04:22:2d:95:42:33:1c:40:1a:1f:76:90:
                    d3:35:5d:82:5d:e6:f0:f7:ef:18:60:cf:f0:38:a3:
                    e2:69:67:f1:01:d0:75:e5:66:f1:7a:31:1f:b9:08:
                    56:8b:05:b5:88:11:65:8a:b9:b3:23:5c:f6:9a:33:
                    04:ab:23:13:aa:28:03:ea:9a:6d:b5:d7:70:9a:7d:
                    42:48:ae:a6:0e:d6:ca:72:01:7e:fb:c5:96:e3:96:
                    f6:30:19:6d:15:36:10:71:b7:a0:48:df:1b:15:f0:
                    5c:4d:10:ed:a7:61:70:81:d1:62:86:30:1e:ed:d3:
                    62:e9
                Exponent: 65537 (0x10001)
        X509v3 extensions:
            X509v3 Authority Key Identifier: 
                9C:C6:5F:2E:18:33:EE:D4:16:2C:1F:E3:71:F8:98:EA:D5:22:19:EC
            X509v3 Basic Constraints: critical
                CA:TRUE, pathlen:0
            X509v3 Extended Key Usage: 
                TLS Web Client Authentication, TLS Web Server Authentication
            X509v3 Key Usage: critical
                Certificate Sign, CRL Sign
            X509v3 Subject Key Identifier: 
                1C:1A:4C:F3:81:E9:BA:AB:08:9B:44:93:95:F5:D3:83:C1:BA:22:E8
    Signature Algorithm: sha256WithRSAEncryption
    Signature Value:
        3c:80:bb:c8:5b:f3:3c:eb:00:30:2e:b5:58:1e:e3:76:01:23:
        f9:27:45:2e:dd:08:41:c5:c8:17:b1:76:5c:cd:25:54:7c:21:
        f2:6e:86:2a:44:4e:02:b4:cb:5e:d3:aa:8b:c7:fa:f1:a7:c3:
        14:49:3c:f7:d9:92:c3:26:66:74:f9:b8:af:fe:43:d2:2d:58:
        96:f0:1f:21:13:14:c5:a7:14:89:50:19:79:1a:27:8c:a6:be:
        5e:5e:e0:2a:d5:3a:13:88:0c:b3:2a:69:4f:9d:a9:ad:1c:c0:
        dc:40:05:ef:4e:cd:92:12:f2:7c:39:3d:34:e3:10:ad:82:70:
        27:3d:ba:99:eb:44:fb:1b:c8:d1:a6:a8:97:8e:5f:25:4e:14:
        12:b5:3a:74:db:1a:38:ac:26:b2:4e:a8:44:12:71:31:a1:0c:
        a5:e7:2d:80:e5:7f:70:07:e2:e9:dc:57:ff:69:05:29:85:79:
        28:08:05:f7:8a:36:60:7a:99:2b:47:fa:ad:74:a4:42:7a:19:
        8b:c9:a4:8e:33:33:39:92:7b:5c:d8:f0:c6:f1:eb:79:b3:3c:
        f2:6d:bd:b3:f5:45:08:25:82:48:79:e3:a4:d4:c0:60:9c:2b:
        8b:c5:70:90:49:34:48:f5:de:fd:cc:64:fb:92:14:12:c3:2e:
        ee:5e:d1:c9
-----BEGIN CERTIFICATE-----
MIIDSDCCAjCgAwIBAgIQB6EIdNSi1AwS8F3bRgIxdTANBgkqhkiG9w0BAQsFADAc
MRowGAYDVQQDDBFJb3RTY2hvb2wgUm9vdCBDQTAeFw0yMzA0MjUxODExMTFaFw0z
MzA0MjIxODExMTFaMBsxGTAXBgNVBAMMEElvdFNjaG9vbCBTdWIgQ0EwggEiMA0G
CSqGSIb3DQEBAQUAA4IBDwAwggEKAoIBAQC6tvsJnS0QZh9nWe3d1TgDCUUdps8R
2zp+kBGsp/+B32OdhWTvjGqkogNL9EGAxXZRN/2o2D0zGJb5BM50m1pVvj9UemCH
dQo9brHNx54S//TlujWjlkXvLpcd7v5EtVbWLXyADqRpc+6ZcIcBZy35xj7AGJId
pKwKFwYGxgeu47bGmSs/8yjavAQiLZVCMxxAGh92kNM1XYJd5vD37xhgz/A4o+Jp
Z/EB0HXlZvF6MR+5CFaLBbWIEWWKubMjXPaaMwSrIxOqKAPqmm2113CafUJIrqYO
1spyAX77xZbjlvYwGW0VNhBxt6BI3xsV8FxNEO2nYXCB0WKGMB7t02LpAgMBAAGj
gYYwgYMwHwYDVR0jBBgwFoAUnMZfLhgz7tQWLB/jcfiY6tUiGewwEgYDVR0TAQH/
BAgwBgEB/wIBADAdBgNVHSUEFjAUBggrBgEFBQcDAgYIKwYBBQUHAwEwDgYDVR0P
AQH/BAQDAgEGMB0GA1UdDgQWBBQcGkzzgem6qwibRJOV9dODwboi6DANBgkqhkiG
9w0BAQsFAAOCAQEAPIC7yFvzPOsAMC61WB7jdgEj+SdFLt0IQcXIF7F2XM0lVHwh
8m6GKkROArTLXtOqi8f68afDFEk899mSwyZmdPm4r/5D0i1YlvAfIRMUxacUiVAZ
eRonjKa+Xl7gKtU6E4gMsyppT52prRzA3EAF707NkhLyfDk9NOMQrYJwJz26metE
+xvI0aaol45fJU4UErU6dNsaOKwmsk6oRBJxMaEMpectgOV/cAfi6dxX/2kFKYV5
KAgF94o2YHqZK0f6rXSkQnoZi8mkjjMzOZJ7XNjwxvHrebM88m29s/VFCCWCSHnj
pNTAYJwri8VwkEk0SPXe/cxk+5IUEsMu7l7RyQ==
-----END CERTIFICATE-----
