Certificate:
    Data:
        Version: 3 (0x2)
        Serial Number:
            2c:40:3c:96:1e:4e:cb:5f:3f:1d:ab:97:98:69:58:b5
        Signature Algorithm: sha256WithRSAEncryption
        Issuer: CN=IotSchool Sub CA
        Validity
            Not Before: May  5 11:25:49 2023 GMT
            Not After : May  4 11:25:49 2024 GMT
        Subject: C=DE, ST=Bavaria, O=IoT School, OU=PKI Services, CN=sample/emailAddress=iotschool@maibornwolff.de
        Subject Public Key Info:
            Public Key Algorithm: rsaEncryption
                Public-Key: (2048 bit)
                Modulus:
                    00:a6:2d:bf:40:7b:c6:cc:58:68:db:51:c2:c7:82:
                    61:45:d7:60:04:3a:f1:f7:f9:ae:9b:cd:6e:19:5c:
                    ff:c5:15:15:92:8d:a3:3e:65:7d:5c:fc:1c:67:4a:
                    1f:6c:41:7f:e5:0c:0c:b2:60:99:0f:30:c2:41:5d:
                    f5:6e:38:12:aa:e1:b8:89:5b:ba:67:bd:ed:56:55:
                    fc:2e:96:d2:91:80:b0:b9:b1:4b:54:a3:d2:e1:d9:
                    0e:ee:78:b2:0c:cd:a2:b3:9f:b1:cc:9d:30:7b:23:
                    1e:7e:91:1c:64:83:a6:7f:04:0f:0b:52:ce:f0:e7:
                    60:f4:0e:8f:4a:c2:af:0c:53:83:97:4f:28:d8:31:
                    ff:d7:fc:2c:71:59:25:20:3d:fc:a7:9d:1d:02:e4:
                    8c:63:7f:02:3c:4e:1c:ce:72:69:6b:70:21:57:ce:
                    3d:f9:be:5f:ac:61:c5:31:8e:a2:af:31:30:59:3b:
                    3a:bc:3f:95:c2:68:ff:39:97:6d:4a:33:fd:4f:e8:
                    8f:2b:27:da:5d:6c:ee:8c:f0:ba:fe:7f:cd:cc:d9:
                    94:a8:9b:e2:67:4a:97:d2:6c:41:fb:11:19:08:28:
                    ff:4a:b0:54:35:cc:c2:f4:f1:58:c4:43:e3:3f:b0:
                    02:04:f4:cb:b2:2a:c8:1d:38:c8:a3:02:98:5b:b8:
                    04:d9
                Exponent: 65537 (0x10001)
        X509v3 extensions:
            X509v3 Authority Key Identifier: 
                1A:02:4C:96:88:3F:56:BE:21:72:D0:66:9F:23:2B:7F:BD:F4:CA:A2
            X509v3 Basic Constraints: critical
                CA:FALSE
            X509v3 Extended Key Usage: 
                TLS Web Client Authentication
            X509v3 Key Usage: critical
                Digital Signature
            X509v3 Subject Key Identifier: 
                28:00:DC:3E:A8:C8:93:F5:0B:59:0A:A3:0F:35:D5:1E:D8:97:77:73
            X509v3 Subject Alternative Name: 
                DNS:sample
    Signature Algorithm: sha256WithRSAEncryption
    Signature Value:
        24:d5:7a:67:96:3e:fe:c1:da:f7:5f:a6:7c:ea:59:0f:3e:0f:
        90:b4:d7:e9:e4:3c:87:36:8b:0d:dd:92:0b:b6:b2:87:6e:f8:
        ed:a3:d2:af:3f:91:19:e6:40:0b:81:60:66:8d:5c:a5:0a:74:
        f6:8d:8d:39:db:7b:a6:dc:88:c8:98:d9:3b:04:b0:6d:25:88:
        cb:23:ff:dc:a3:bc:f4:66:5d:16:35:21:ba:7b:b1:8a:95:f3:
        95:cf:50:a2:6e:4b:9c:77:af:8f:76:b9:c7:23:5c:18:62:2d:
        8e:7d:87:68:ec:32:38:26:95:c5:f9:4b:06:b7:b7:c6:6a:7c:
        cf:17:5e:b1:f6:70:b4:31:17:1f:62:15:23:45:7e:e3:9a:71:
        5a:df:da:97:3e:1c:7a:3b:bc:a1:68:01:9d:38:ab:21:7c:07:
        4c:7d:2e:29:a4:0d:34:9f:04:02:63:c6:5b:97:3d:3b:1d:00:
        97:17:26:f4:b1:db:d6:89:92:c7:8a:48:c6:6b:47:82:b6:1b:
        e3:7b:47:e4:b1:fd:b3:33:6c:f1:b6:cf:9b:35:0f:c2:20:62:
        38:77:a7:ae:aa:e7:fb:7b:b2:c2:31:ec:a9:54:5c:3b:04:82:
        44:9e:5e:ff:e6:77:1b:f0:6e:c0:99:4c:01:f9:13:71:89:6d:
        ab:e0:11:fa
-----BEGIN CERTIFICATE-----
MIIDtjCCAp6gAwIBAgIQLEA8lh5Oy18/HauXmGlYtTANBgkqhkiG9w0BAQsFADAb
MRkwFwYDVQQDDBBJb3RTY2hvb2wgU3ViIENBMB4XDTIzMDUwNTExMjU0OVoXDTI0
MDUwNDExMjU0OVowgYYxCzAJBgNVBAYTAkRFMRAwDgYDVQQIDAdCYXZhcmlhMRMw
EQYDVQQKDApJb1QgU2Nob29sMRUwEwYDVQQLDAxQS0kgU2VydmljZXMxDzANBgNV
BAMMBnNhbXBsZTEoMCYGCSqGSIb3DQEJARYZaW90c2Nob29sQG1haWJvcm53b2xm
Zi5kZTCCASIwDQYJKoZIhvcNAQEBBQADggEPADCCAQoCggEBAKYtv0B7xsxYaNtR
wseCYUXXYAQ68ff5rpvNbhlc/8UVFZKNoz5lfVz8HGdKH2xBf+UMDLJgmQ8wwkFd
9W44EqrhuIlbume97VZV/C6W0pGAsLmxS1Sj0uHZDu54sgzNorOfscydMHsjHn6R
HGSDpn8EDwtSzvDnYPQOj0rCrwxTg5dPKNgx/9f8LHFZJSA9/KedHQLkjGN/AjxO
HM5yaWtwIVfOPfm+X6xhxTGOoq8xMFk7Orw/lcJo/zmXbUoz/U/ojysn2l1s7ozw
uv5/zczZlKib4mdKl9JsQfsRGQgo/0qwVDXMwvTxWMRD4z+wAgT0y7IqyB04yKMC
mFu4BNkCAwEAAaOBiTCBhjAfBgNVHSMEGDAWgBQaAkyWiD9WviFy0GafIyt/vfTK
ojAMBgNVHRMBAf8EAjAAMBMGA1UdJQQMMAoGCCsGAQUFBwMCMA4GA1UdDwEB/wQE
AwIHgDAdBgNVHQ4EFgQUKADcPqjIk/ULWQqjDzXVHtiXd3MwEQYDVR0RBAowCIIG
c2FtcGxlMA0GCSqGSIb3DQEBCwUAA4IBAQAk1Xpnlj7+wdr3X6Z86lkPPg+QtNfp
5DyHNosN3ZILtrKHbvjto9KvP5EZ5kALgWBmjVylCnT2jY0523um3IjImNk7BLBt
JYjLI//co7z0Zl0WNSG6e7GKlfOVz1Cibkucd6+PdrnHI1wYYi2OfYdo7DI4JpXF
+UsGt7fGanzPF16x9nC0MRcfYhUjRX7jmnFa39qXPhx6O7yhaAGdOKshfAdMfS4p
pA00nwQCY8Zblz07HQCXFyb0sdvWiZLHikjGa0eCthvje0fksf2zM2zxts+bNQ/C
IGI4d6euquf7e7LCMeypVFw7BIJEnl7/5ncb8G7AmUwB+RNxiW2r4BH6
-----END CERTIFICATE-----
Certificate:
    Data:
        Version: 3 (0x2)
        Serial Number:
            67:2f:98:e4:54:e6:3b:fa:9b:07:c5:7e:0d:41:f7:2f
        Signature Algorithm: sha256WithRSAEncryption
        Issuer: CN=IotSchool Root CA
        Validity
            Not Before: May  4 15:21:10 2023 GMT
            Not After : May  1 15:21:10 2033 GMT
        Subject: CN=IotSchool Sub CA
        Subject Public Key Info:
            Public Key Algorithm: rsaEncryption
                Public-Key: (2048 bit)
                Modulus:
                    00:bd:43:97:6f:2c:e7:9c:21:7d:76:8a:d0:3e:8b:
                    8f:d1:95:a7:92:bf:3f:72:c2:2a:a7:1f:bf:e2:63:
                    c2:51:d1:e2:d6:db:6f:c2:7d:08:ce:6c:25:8c:5e:
                    fd:de:5b:b4:d3:70:87:80:f0:fa:c8:43:36:f0:8d:
                    3f:2b:3d:7d:67:68:6d:a1:25:67:ba:9b:3d:a2:14:
                    e2:7a:c7:61:c6:25:8e:5e:46:42:34:f0:54:09:72:
                    68:9b:ab:d1:82:9f:4e:6b:49:d8:0e:0b:e5:ce:cb:
                    c1:d9:b1:8f:8e:d6:04:93:18:86:b0:85:14:cd:1b:
                    6f:f1:6f:80:95:6c:5f:c2:b8:0e:e5:58:34:13:b2:
                    b7:5d:f6:e7:d1:20:87:a5:ac:d6:3a:18:78:a1:58:
                    fd:7e:04:2e:ca:7d:1a:01:82:77:d2:b1:3c:4d:51:
                    e1:50:38:e6:20:1a:bd:4a:48:c3:09:77:03:c7:55:
                    16:a0:bf:c6:8c:d4:7c:cf:bc:39:bc:af:c7:2f:79:
                    a9:ad:65:8a:5c:7c:7e:5b:39:20:91:6a:96:5b:6d:
                    22:3b:df:63:24:33:16:07:3c:25:ca:e3:84:9f:36:
                    c1:23:a9:7c:8d:ff:cc:5f:6d:e7:75:c5:81:0a:ae:
                    58:92:7e:56:1e:43:60:68:22:75:a0:f6:26:55:cd:
                    82:c5
                Exponent: 65537 (0x10001)
        X509v3 extensions:
            X509v3 Authority Key Identifier: 
                9C:C6:5F:2E:18:33:EE:D4:16:2C:1F:E3:71:F8:98:EA:D5:22:19:EC
            X509v3 Basic Constraints: critical
                CA:TRUE, pathlen:0
            X509v3 Extended Key Usage: 
                TLS Web Client Authentication, TLS Web Server Authentication
            X509v3 Key Usage: critical
                Certificate Sign, CRL Sign
            X509v3 Subject Key Identifier: 
                1A:02:4C:96:88:3F:56:BE:21:72:D0:66:9F:23:2B:7F:BD:F4:CA:A2
    Signature Algorithm: sha256WithRSAEncryption
    Signature Value:
        00:a3:6a:81:b7:25:91:8e:21:6f:fe:7d:95:81:68:4a:a5:20:
        ad:a5:31:1e:14:aa:17:db:46:01:4a:33:7f:86:fd:92:51:60:
        46:25:51:4e:df:14:a3:00:bd:54:8d:9d:61:24:44:5e:59:be:
        35:06:9f:c2:ef:f6:79:4b:16:e5:49:c6:4d:b8:84:16:1a:01:
        d2:00:6f:46:7e:16:28:6a:42:49:3f:b5:9d:e5:89:50:da:7f:
        6c:50:c6:6a:bc:66:21:08:b6:1f:ce:ca:98:54:05:b3:f4:b5:
        b1:6f:f9:ce:b3:d7:01:80:ab:5c:d5:d1:28:f2:62:ac:8c:7c:
        63:e1:df:49:fe:1c:97:f3:55:6b:54:2d:a2:be:84:75:97:4c:
        fc:c3:08:83:6b:31:16:c6:28:b8:1e:26:0a:27:54:40:d4:e6:
        ee:c9:02:ed:a4:43:9f:27:e0:f1:5c:ce:68:4c:a9:fe:d3:a0:
        fc:ae:76:f8:f3:c6:ab:d1:62:70:97:8c:0c:48:c4:8f:0b:cd:
        b6:b8:33:c8:9d:5c:c0:80:53:f7:c0:cf:78:e6:9e:14:65:27:
        1b:fb:9f:3a:7f:b4:29:1d:a7:b4:db:38:d7:3c:ee:03:07:26:
        81:a2:5b:c0:bd:32:d4:e5:e3:ff:f3:41:0d:f5:0e:63:d4:6c:
        5c:0f:37:c3
-----BEGIN CERTIFICATE-----
MIIDSDCCAjCgAwIBAgIQZy+Y5FTmO/qbB8V+DUH3LzANBgkqhkiG9w0BAQsFADAc
MRowGAYDVQQDDBFJb3RTY2hvb2wgUm9vdCBDQTAeFw0yMzA1MDQxNTIxMTBaFw0z
MzA1MDExNTIxMTBaMBsxGTAXBgNVBAMMEElvdFNjaG9vbCBTdWIgQ0EwggEiMA0G
CSqGSIb3DQEBAQUAA4IBDwAwggEKAoIBAQC9Q5dvLOecIX12itA+i4/RlaeSvz9y
wiqnH7/iY8JR0eLW22/CfQjObCWMXv3eW7TTcIeA8PrIQzbwjT8rPX1naG2hJWe6
mz2iFOJ6x2HGJY5eRkI08FQJcmibq9GCn05rSdgOC+XOy8HZsY+O1gSTGIawhRTN
G2/xb4CVbF/CuA7lWDQTsrdd9ufRIIelrNY6GHihWP1+BC7KfRoBgnfSsTxNUeFQ
OOYgGr1KSMMJdwPHVRagv8aM1HzPvDm8r8cveamtZYpcfH5bOSCRapZbbSI732Mk
MxYHPCXK44SfNsEjqXyN/8xfbed1xYEKrliSflYeQ2BoInWg9iZVzYLFAgMBAAGj
gYYwgYMwHwYDVR0jBBgwFoAUnMZfLhgz7tQWLB/jcfiY6tUiGewwEgYDVR0TAQH/
BAgwBgEB/wIBADAdBgNVHSUEFjAUBggrBgEFBQcDAgYIKwYBBQUHAwEwDgYDVR0P
AQH/BAQDAgEGMB0GA1UdDgQWBBQaAkyWiD9WviFy0GafIyt/vfTKojANBgkqhkiG
9w0BAQsFAAOCAQEAAKNqgbclkY4hb/59lYFoSqUgraUxHhSqF9tGAUozf4b9klFg
RiVRTt8UowC9VI2dYSREXlm+NQafwu/2eUsW5UnGTbiEFhoB0gBvRn4WKGpCST+1
neWJUNp/bFDGarxmIQi2H87KmFQFs/S1sW/5zrPXAYCrXNXRKPJirIx8Y+HfSf4c
l/NVa1Qtor6EdZdM/MMIg2sxFsYouB4mCidUQNTm7skC7aRDnyfg8VzOaEyp/tOg
/K52+PPGq9FicJeMDEjEjwvNtrgzyJ1cwIBT98DPeOaeFGUnG/ufOn+0KR2ntNs4
1zzuAwcmgaJbwL0y1OXj//NBDfUOY9RsXA83ww==
-----END CERTIFICATE-----
