Certificate:
    Data:
        Version: 3 (0x2)
        Serial Number:
            2c:40:3c:96:1e:4e:cb:5f:3f:1d:ab:97:98:69:58:b0
        Signature Algorithm: sha256WithRSAEncryption
        Issuer: CN=IotSchool Sub CA
        Validity
            Not Before: May  5 11:25:23 2023 GMT
            Not After : May  4 11:25:23 2024 GMT
        Subject: C=DE, ST=Bavaria, O=IoT School, OU=PKI Services, CN=sample/emailAddress=iotschool@maibornwolff.de
        Subject Public Key Info:
            Public Key Algorithm: rsaEncryption
                Public-Key: (2048 bit)
                Modulus:
                    00:a4:0e:24:c9:84:d4:a0:83:81:73:07:30:f0:b1:
                    49:7a:c0:6f:df:38:26:83:59:21:61:20:f1:31:3a:
                    85:38:eb:37:77:7b:44:89:9c:e1:71:87:ba:7a:77:
                    47:ed:0d:8a:f4:54:d3:d4:b5:89:65:fc:9a:a4:7c:
                    7b:39:fa:16:6f:38:85:e9:2e:ee:f1:44:e6:51:15:
                    a5:42:36:83:e8:ae:ea:6d:79:9b:56:20:fb:ad:ef:
                    df:c6:c5:3e:30:50:e8:7a:89:02:be:a5:8e:9a:b7:
                    cd:2b:f0:a6:19:a4:59:fd:35:0c:8e:ea:ca:f1:45:
                    88:ca:1a:e9:6a:75:3a:ef:82:82:56:80:ce:9b:16:
                    d5:ad:3e:8e:ae:b3:96:7b:bd:60:29:d4:3c:a0:d4:
                    95:30:02:4b:16:47:5d:c3:72:8f:c5:11:14:c4:f9:
                    89:c9:93:f6:c1:57:25:16:27:a3:0b:10:db:e2:04:
                    ee:ac:ca:44:cc:90:54:48:fd:95:fe:37:fb:41:ab:
                    01:d5:c0:5b:04:96:45:b8:ba:8a:9d:40:90:bf:e5:
                    83:df:a2:2d:4e:48:2d:d6:f7:f3:ed:ef:7f:0e:6e:
                    70:d6:5d:e6:03:e0:0d:6e:f0:cf:ec:e5:eb:ae:02:
                    e2:50:5a:e5:37:8b:bc:23:55:72:88:f9:37:c5:c9:
                    15:7f
                Exponent: 65537 (0x10001)
        X509v3 extensions:
            X509v3 Authority Key Identifier: 
                6E:A5:21:B2:21:BB:BE:2B:7C:C8:F0:6F:58:78:CA:21:1A:F4:88:2E
            X509v3 Basic Constraints: critical
                CA:FALSE
            X509v3 Extended Key Usage: 
                TLS Web Client Authentication
            X509v3 Key Usage: critical
                Digital Signature
            X509v3 Subject Key Identifier: 
                B9:88:90:84:AE:D9:8C:BD:EA:46:44:D1:C7:C0:44:91:DD:3D:8D:61
            X509v3 Subject Alternative Name: 
                DNS:sample
    Signature Algorithm: sha256WithRSAEncryption
    Signature Value:
        4e:10:af:f9:e4:88:b2:07:18:d2:36:3f:13:5a:52:26:e7:01:
        fe:6b:4b:94:2f:2e:49:d3:53:ce:f3:5b:56:d5:40:05:5b:15:
        bc:d5:b0:9d:b9:a9:0b:ae:ff:19:d8:01:6f:2b:30:13:c7:8a:
        ea:b5:22:eb:9a:67:7e:77:b1:7b:96:4f:e7:c6:26:f4:ac:96:
        2c:c5:40:52:1f:77:a9:2c:2a:fc:50:70:f9:4c:52:14:09:e6:
        b7:c5:d5:f6:7a:83:4a:24:5e:64:08:c1:31:79:9c:a0:93:b4:
        8a:68:74:8d:e7:16:84:7b:6e:33:4a:5a:7b:33:c8:fe:05:d5:
        55:c9:00:e3:ed:0c:ef:5f:8c:24:55:35:bf:52:a3:dd:ac:ed:
        97:74:76:49:d1:e6:16:de:ac:75:83:b8:36:88:e7:45:42:05:
        78:4e:44:2f:03:b2:60:6a:da:35:4a:6f:2d:3b:b7:64:1e:4d:
        4c:62:6a:f6:14:03:5d:9b:b1:fb:4f:a2:30:99:9e:15:3b:22:
        d9:9b:64:3b:79:4f:71:a8:9d:92:c3:4a:92:a5:35:4a:dc:7f:
        0f:ac:29:a5:e2:7e:77:96:c7:38:66:04:85:ce:54:93:73:93:
        54:06:3c:06:de:4f:ca:4a:a0:59:68:57:ff:6b:87:9a:61:3a:
        a6:cb:7e:e9
-----BEGIN CERTIFICATE-----
MIIDtjCCAp6gAwIBAgIQLEA8lh5Oy18/HauXmGlYsDANBgkqhkiG9w0BAQsFADAb
MRkwFwYDVQQDDBBJb3RTY2hvb2wgU3ViIENBMB4XDTIzMDUwNTExMjUyM1oXDTI0
MDUwNDExMjUyM1owgYYxCzAJBgNVBAYTAkRFMRAwDgYDVQQIDAdCYXZhcmlhMRMw
EQYDVQQKDApJb1QgU2Nob29sMRUwEwYDVQQLDAxQS0kgU2VydmljZXMxDzANBgNV
BAMMBnNhbXBsZTEoMCYGCSqGSIb3DQEJARYZaW90c2Nob29sQG1haWJvcm53b2xm
Zi5kZTCCASIwDQYJKoZIhvcNAQEBBQADggEPADCCAQoCggEBAKQOJMmE1KCDgXMH
MPCxSXrAb984JoNZIWEg8TE6hTjrN3d7RImc4XGHunp3R+0NivRU09S1iWX8mqR8
ezn6Fm84heku7vFE5lEVpUI2g+iu6m15m1Yg+63v38bFPjBQ6HqJAr6ljpq3zSvw
phmkWf01DI7qyvFFiMoa6Wp1Ou+CglaAzpsW1a0+jq6zlnu9YCnUPKDUlTACSxZH
XcNyj8URFMT5icmT9sFXJRYnowsQ2+IE7qzKRMyQVEj9lf43+0GrAdXAWwSWRbi6
ip1AkL/lg9+iLU5ILdb38+3vfw5ucNZd5gPgDW7wz+zl664C4lBa5TeLvCNVcoj5
N8XJFX8CAwEAAaOBiTCBhjAfBgNVHSMEGDAWgBRupSGyIbu+K3zI8G9YeMohGvSI
LjAMBgNVHRMBAf8EAjAAMBMGA1UdJQQMMAoGCCsGAQUFBwMCMA4GA1UdDwEB/wQE
AwIHgDAdBgNVHQ4EFgQUuYiQhK7ZjL3qRkTRx8BEkd09jWEwEQYDVR0RBAowCIIG
c2FtcGxlMA0GCSqGSIb3DQEBCwUAA4IBAQBOEK/55IiyBxjSNj8TWlIm5wH+a0uU
Ly5J01PO81tW1UAFWxW81bCduakLrv8Z2AFvKzATx4rqtSLrmmd+d7F7lk/nxib0
rJYsxUBSH3epLCr8UHD5TFIUCea3xdX2eoNKJF5kCMExeZygk7SKaHSN5xaEe24z
Slp7M8j+BdVVyQDj7QzvX4wkVTW/UqPdrO2XdHZJ0eYW3qx1g7g2iOdFQgV4TkQv
A7Jgato1Sm8tO7dkHk1MYmr2FANdm7H7T6IwmZ4VOyLZm2Q7eU9xqJ2Sw0qSpTVK
3H8PrCml4n53lsc4ZgSFzlSTc5NUBjwG3k/KSqBZaFf/a4eaYTqmy37p
-----END CERTIFICATE-----
Certificate:
    Data:
        Version: 3 (0x2)
        Serial Number:
            bc:7c:ea:06:71:d8:9f:4e:e7:73:70:83:df:83:8e:09
        Signature Algorithm: sha256WithRSAEncryption
        Issuer: CN=IotSchool Root CA
        Validity
            Not Before: Apr 25 16:21:46 2023 GMT
            Not After : Apr 22 16:21:46 2033 GMT
        Subject: CN=IotSchool Sub CA
        Subject Public Key Info:
            Public Key Algorithm: rsaEncryption
                Public-Key: (2048 bit)
                Modulus:
                    00:b1:b3:c4:1f:be:27:b7:c4:3b:35:6c:35:8b:1a:
                    72:7f:9e:ae:25:87:d2:74:05:5a:c8:65:88:94:e9:
                    01:95:23:dd:18:0b:04:38:6a:60:15:0e:5c:54:76:
                    51:9a:62:5d:9d:61:89:ea:27:51:89:d9:58:ac:84:
                    10:57:21:18:7f:89:15:95:22:e5:05:bb:6a:ac:6a:
                    be:8f:1f:b9:bd:0b:47:7e:f2:d9:00:fb:70:40:44:
                    70:2f:22:94:e2:99:0c:f1:c2:05:5d:8f:0d:9e:85:
                    9c:2f:d3:0e:07:23:71:b0:a2:e0:69:6f:9a:4e:1c:
                    ec:e9:5e:1c:db:8f:04:7b:3a:a2:6e:47:04:f8:a4:
                    fa:a3:77:b0:e2:2a:29:f5:62:69:79:d3:65:f8:6d:
                    f8:19:bb:b8:66:b4:2e:bd:69:6d:4d:42:77:85:d8:
                    97:2e:96:8c:cc:19:15:48:4d:e6:e3:a1:78:6e:6c:
                    6a:d7:f1:ac:af:83:18:ff:92:8d:bf:4e:5c:ce:12:
                    e8:b0:d4:7f:37:18:0a:6f:af:45:bb:44:20:e0:aa:
                    a9:03:66:0b:cd:a1:0b:52:b2:3f:1f:9f:47:7e:ab:
                    06:37:6d:4b:51:27:4c:0a:81:a3:10:b3:9e:e2:c3:
                    f0:ca:2e:6c:12:3e:b1:db:9b:16:1a:fe:5e:aa:cf:
                    21:07
                Exponent: 65537 (0x10001)
        X509v3 extensions:
            X509v3 Authority Key Identifier: 
                9C:C6:5F:2E:18:33:EE:D4:16:2C:1F:E3:71:F8:98:EA:D5:22:19:EC
            X509v3 Basic Constraints: critical
                CA:TRUE, pathlen:0
            X509v3 Extended Key Usage: 
                TLS Web Client Authentication, TLS Web Server Authentication
            X509v3 Key Usage: critical
                Certificate Sign, CRL Sign
            X509v3 Subject Key Identifier: 
                6E:A5:21:B2:21:BB:BE:2B:7C:C8:F0:6F:58:78:CA:21:1A:F4:88:2E
    Signature Algorithm: sha256WithRSAEncryption
    Signature Value:
        ac:ca:94:13:17:28:8f:43:f8:bf:47:3d:22:58:6d:60:a3:fb:
        62:26:9d:85:12:e1:de:21:96:41:92:ed:23:56:41:bb:a5:31:
        50:63:7c:ce:30:f0:4b:d6:64:cc:6a:a9:b8:ac:d0:39:8d:c8:
        71:90:54:0b:93:80:e5:ba:38:f4:c0:a9:63:79:b6:14:df:fd:
        77:64:4b:bb:a9:ad:e4:22:b1:fd:43:61:89:6d:8c:0f:54:54:
        2e:a8:04:27:e5:62:7e:b3:fb:d7:1c:95:f3:49:0d:fe:d9:b0:
        cb:ca:4d:13:8f:22:8e:28:68:55:32:3c:09:fb:77:ed:aa:64:
        a4:1d:b4:e4:39:9e:f9:8e:ee:58:69:97:59:63:39:c0:19:4e:
        7a:89:be:72:26:d4:73:a0:f3:a9:79:95:8b:f0:b9:ef:63:63:
        2f:37:90:a8:75:57:8d:03:63:15:8a:84:42:41:fa:23:e7:28:
        4b:17:f8:b9:a0:d4:1b:b6:13:d5:5a:f5:84:ea:4d:0a:46:17:
        6e:19:6e:e1:f2:ce:d9:0d:e1:b6:5e:a9:97:7d:ed:55:21:a6:
        b4:74:7a:79:98:4e:ed:49:eb:5e:1c:25:92:bb:50:37:f9:31:
        66:ff:a6:c6:40:ae:5d:98:0b:c2:b4:ce:20:51:0f:1d:b0:ce:
        5c:63:09:ec
-----BEGIN CERTIFICATE-----
MIIDSTCCAjGgAwIBAgIRALx86gZx2J9O53Nwg9+DjgkwDQYJKoZIhvcNAQELBQAw
HDEaMBgGA1UEAwwRSW90U2Nob29sIFJvb3QgQ0EwHhcNMjMwNDI1MTYyMTQ2WhcN
MzMwNDIyMTYyMTQ2WjAbMRkwFwYDVQQDDBBJb3RTY2hvb2wgU3ViIENBMIIBIjAN
BgkqhkiG9w0BAQEFAAOCAQ8AMIIBCgKCAQEAsbPEH74nt8Q7NWw1ixpyf56uJYfS
dAVayGWIlOkBlSPdGAsEOGpgFQ5cVHZRmmJdnWGJ6idRidlYrIQQVyEYf4kVlSLl
BbtqrGq+jx+5vQtHfvLZAPtwQERwLyKU4pkM8cIFXY8NnoWcL9MOByNxsKLgaW+a
Thzs6V4c248EezqibkcE+KT6o3ew4iop9WJpedNl+G34Gbu4ZrQuvWltTUJ3hdiX
LpaMzBkVSE3m46F4bmxq1/Gsr4MY/5KNv05czhLosNR/NxgKb69Fu0Qg4KqpA2YL
zaELUrI/H59HfqsGN21LUSdMCoGjELOe4sPwyi5sEj6x25sWGv5eqs8hBwIDAQAB
o4GGMIGDMB8GA1UdIwQYMBaAFJzGXy4YM+7UFiwf43H4mOrVIhnsMBIGA1UdEwEB
/wQIMAYBAf8CAQAwHQYDVR0lBBYwFAYIKwYBBQUHAwIGCCsGAQUFBwMBMA4GA1Ud
DwEB/wQEAwIBBjAdBgNVHQ4EFgQUbqUhsiG7vit8yPBvWHjKIRr0iC4wDQYJKoZI
hvcNAQELBQADggEBAKzKlBMXKI9D+L9HPSJYbWCj+2ImnYUS4d4hlkGS7SNWQbul
MVBjfM4w8EvWZMxqqbis0DmNyHGQVAuTgOW6OPTAqWN5thTf/XdkS7upreQisf1D
YYltjA9UVC6oBCflYn6z+9cclfNJDf7ZsMvKTROPIo4oaFUyPAn7d+2qZKQdtOQ5
nvmO7lhpl1ljOcAZTnqJvnIm1HOg86l5lYvwue9jYy83kKh1V40DYxWKhEJB+iPn
KEsX+Lmg1Bu2E9Va9YTqTQpGF24ZbuHyztkN4bZeqZd97VUhprR0enmYTu1J614c
JZK7UDf5MWb/psZArl2YC8K0ziBRDx2wzlxjCew=
-----END CERTIFICATE-----
