Certificate:
    Data:
        Version: 3 (0x2)
        Serial Number:
            2c:40:3c:96:1e:4e:cb:5f:3f:1d:ab:97:98:69:58:a6
        Signature Algorithm: sha256WithRSAEncryption
        Issuer: CN=IotSchool Sub CA
        Validity
            Not Before: May  5 11:24:40 2023 GMT
            Not After : May  4 11:24:40 2024 GMT
        Subject: C=DE, ST=Bavaria, O=IoT School, OU=PKI Services, CN=sample/emailAddress=iotschool@maibornwolff.de
        Subject Public Key Info:
            Public Key Algorithm: rsaEncryption
                Public-Key: (2048 bit)
                Modulus:
                    00:c5:75:ca:d5:c6:8b:ad:99:5f:4d:01:e5:67:6a:
                    0b:8e:39:5a:e7:43:f5:f7:df:f3:74:88:fd:2f:d9:
                    32:be:66:cc:e5:70:9b:3b:e1:3c:fa:18:f4:ef:d7:
                    01:34:9d:75:aa:f8:d5:4e:d7:df:7b:ac:1d:ed:a4:
                    9d:36:1c:ea:b2:4b:89:35:ac:15:c5:d3:90:4c:fc:
                    f9:89:8c:1a:1d:fa:bf:6b:e4:65:55:67:60:19:ec:
                    66:f6:30:d3:56:f9:b3:3a:c9:83:c4:f2:bf:a8:42:
                    e1:bb:b0:1c:ed:e8:45:c2:03:e1:63:d8:d2:0a:ed:
                    b2:28:73:4c:ea:b2:1c:3f:3a:79:1f:4a:02:49:0a:
                    1c:10:e9:aa:3e:f4:7c:2e:02:62:b4:35:ff:43:0b:
                    71:54:b3:e6:81:9c:04:53:e0:0b:8f:9c:fc:3b:90:
                    6d:74:0c:df:3a:d8:8d:87:e9:1c:a4:24:86:f5:3a:
                    8f:87:23:ef:c8:67:54:34:b4:7b:ab:b3:f7:92:ca:
                    af:0e:9a:b2:51:16:96:d6:97:40:c4:b2:2d:48:23:
                    61:fe:da:13:06:38:df:c4:d2:cc:47:fc:f7:40:1a:
                    b2:cb:40:13:e7:0b:39:18:1e:4e:8b:b0:42:65:b5:
                    64:7f:0f:df:91:79:65:d5:67:f0:87:ae:50:12:e9:
                    27:ef
                Exponent: 65537 (0x10001)
        X509v3 extensions:
            X509v3 Authority Key Identifier: 
                5E:77:03:42:93:A9:5C:99:EB:A5:E5:1C:7B:9F:4A:1A:B7:D9:7E:F5
            X509v3 Basic Constraints: critical
                CA:FALSE
            X509v3 Extended Key Usage: 
                TLS Web Client Authentication
            X509v3 Key Usage: critical
                Digital Signature
            X509v3 Subject Key Identifier: 
                1F:4D:DD:7F:C3:EF:A2:70:0E:38:BB:77:99:4F:6A:4A:FA:F3:75:75
            X509v3 Subject Alternative Name: 
                DNS:sample
    Signature Algorithm: sha256WithRSAEncryption
    Signature Value:
        89:73:c7:8a:c5:0b:36:6b:50:d9:e6:b1:d1:ff:f0:4a:2e:e3:
        ef:19:1d:53:32:18:89:33:dd:91:5d:9d:a7:9e:3e:21:ef:02:
        50:e7:2b:35:da:5b:0e:3d:b4:a5:a5:05:81:27:4b:39:f4:d8:
        ea:71:59:76:74:55:f2:c3:ae:0f:a6:0c:bc:ab:f3:47:de:5b:
        80:d4:a3:a5:44:04:51:26:b1:e8:6c:b9:2e:9a:06:a1:bb:06:
        f4:4b:c1:67:56:57:3f:a6:e9:d8:37:2e:4c:6f:36:81:8b:10:
        99:91:50:84:ee:d8:7e:ba:ee:e8:ec:a1:3f:68:f1:b6:68:87:
        d6:49:46:fd:87:d2:3f:ef:b7:79:1e:a2:b6:23:3f:df:31:af:
        82:bc:a4:87:d1:f9:10:27:b0:17:62:2f:17:f7:9f:7d:94:06:
        5a:d3:6f:58:9a:d7:a5:f3:a9:c8:fc:e3:a8:79:17:68:e3:e8:
        e8:af:69:f9:b8:0f:0a:77:37:e2:e5:87:f6:5c:66:d8:77:c5:
        22:1e:a9:0f:58:a0:8c:aa:85:56:5f:36:21:5c:fe:50:78:65:
        83:95:d5:ec:73:42:f0:33:dc:62:cc:c5:65:4f:ae:31:b2:f5:
        aa:19:71:d8:5d:3c:17:b4:ea:9d:61:8a:50:0c:b6:a6:bd:56:
        99:e4:6a:bd
-----BEGIN CERTIFICATE-----
MIIDtjCCAp6gAwIBAgIQLEA8lh5Oy18/HauXmGlYpjANBgkqhkiG9w0BAQsFADAb
MRkwFwYDVQQDDBBJb3RTY2hvb2wgU3ViIENBMB4XDTIzMDUwNTExMjQ0MFoXDTI0
MDUwNDExMjQ0MFowgYYxCzAJBgNVBAYTAkRFMRAwDgYDVQQIDAdCYXZhcmlhMRMw
EQYDVQQKDApJb1QgU2Nob29sMRUwEwYDVQQLDAxQS0kgU2VydmljZXMxDzANBgNV
BAMMBnNhbXBsZTEoMCYGCSqGSIb3DQEJARYZaW90c2Nob29sQG1haWJvcm53b2xm
Zi5kZTCCASIwDQYJKoZIhvcNAQEBBQADggEPADCCAQoCggEBAMV1ytXGi62ZX00B
5WdqC445WudD9fff83SI/S/ZMr5mzOVwmzvhPPoY9O/XATSddar41U7X33usHe2k
nTYc6rJLiTWsFcXTkEz8+YmMGh36v2vkZVVnYBnsZvYw01b5szrJg8Tyv6hC4buw
HO3oRcID4WPY0grtsihzTOqyHD86eR9KAkkKHBDpqj70fC4CYrQ1/0MLcVSz5oGc
BFPgC4+c/DuQbXQM3zrYjYfpHKQkhvU6j4cj78hnVDS0e6uz95LKrw6aslEWltaX
QMSyLUgjYf7aEwY438TSzEf890AasstAE+cLORgeTouwQmW1ZH8P35F5ZdVn8Ieu
UBLpJ+8CAwEAAaOBiTCBhjAfBgNVHSMEGDAWgBRedwNCk6lcmeul5Rx7n0oat9l+
9TAMBgNVHRMBAf8EAjAAMBMGA1UdJQQMMAoGCCsGAQUFBwMCMA4GA1UdDwEB/wQE
AwIHgDAdBgNVHQ4EFgQUH03df8PvonAOOLt3mU9qSvrzdXUwEQYDVR0RBAowCIIG
c2FtcGxlMA0GCSqGSIb3DQEBCwUAA4IBAQCJc8eKxQs2a1DZ5rHR//BKLuPvGR1T
MhiJM92RXZ2nnj4h7wJQ5ys12lsOPbSlpQWBJ0s59NjqcVl2dFXyw64Ppgy8q/NH
3luA1KOlRARRJrHobLkumgahuwb0S8FnVlc/punYNy5MbzaBixCZkVCE7th+uu7o
7KE/aPG2aIfWSUb9h9I/77d5HqK2Iz/fMa+CvKSH0fkQJ7AXYi8X9599lAZa029Y
mtel86nI/OOoeRdo4+jor2n5uA8Kdzfi5Yf2XGbYd8UiHqkPWKCMqoVWXzYhXP5Q
eGWDldXsc0LwM9xizMVlT64xsvWqGXHYXTwXtOqdYYpQDLamvVaZ5Gq9
-----END CERTIFICATE-----
Certificate:
    Data:
        Version: 3 (0x2)
        Serial Number:
            eb:22:6e:5f:78:9c:1d:5c:3a:c8:6f:0f:44:6d:3d:0e
        Signature Algorithm: sha256WithRSAEncryption
        Issuer: CN=IotSchool Root CA
        Validity
            Not Before: Apr 25 14:11:14 2023 GMT
            Not After : Apr 22 14:11:14 2033 GMT
        Subject: CN=IotSchool Sub CA
        Subject Public Key Info:
            Public Key Algorithm: rsaEncryption
                Public-Key: (2048 bit)
                Modulus:
                    00:cf:b3:15:8d:4c:d8:11:bb:5f:53:98:cb:aa:73:
                    e1:e2:dd:f8:ff:52:06:87:91:0c:dd:dd:41:93:6a:
                    5f:4d:28:85:13:dd:84:41:5b:5f:d1:b3:ed:e9:88:
                    47:d2:0e:8c:e7:1d:18:07:9b:31:e4:9a:47:40:2b:
                    71:9c:4f:72:ae:d5:a8:52:88:eb:19:83:75:69:76:
                    b7:d3:a8:b9:2a:7b:8e:77:d8:e4:65:00:3e:94:83:
                    4a:98:27:cb:c4:98:72:2f:a5:e5:ae:1e:7c:9f:ab:
                    21:08:a0:ab:fd:bd:f4:b4:3f:e9:9b:ce:1b:11:3f:
                    8a:bb:43:07:5e:a9:c9:6b:c0:2a:ae:c6:17:d5:f1:
                    0a:27:87:55:ac:73:bc:af:81:72:64:c9:ea:63:c1:
                    23:0a:fb:67:f5:dc:99:b0:b2:15:ff:c1:93:eb:7d:
                    90:5e:e9:3b:05:08:35:70:7a:22:54:ff:8d:3d:47:
                    00:af:f6:c6:84:da:8c:a7:57:a8:0a:27:2c:08:9c:
                    c1:5c:65:86:43:74:a1:18:66:48:90:8b:ab:67:a5:
                    9f:bd:5f:68:32:f3:2c:18:e1:29:2e:17:c3:b6:b3:
                    83:72:aa:2a:33:04:28:6d:4a:a9:33:45:fd:12:4d:
                    16:05:06:41:05:95:69:cf:50:71:60:82:46:39:92:
                    49:29
                Exponent: 65537 (0x10001)
        X509v3 extensions:
            X509v3 Authority Key Identifier: 
                9C:C6:5F:2E:18:33:EE:D4:16:2C:1F:E3:71:F8:98:EA:D5:22:19:EC
            X509v3 Basic Constraints: critical
                CA:TRUE, pathlen:0
            X509v3 Extended Key Usage: 
                TLS Web Client Authentication, TLS Web Server Authentication
            X509v3 Key Usage: critical
                Certificate Sign, CRL Sign
            X509v3 Subject Key Identifier: 
                5E:77:03:42:93:A9:5C:99:EB:A5:E5:1C:7B:9F:4A:1A:B7:D9:7E:F5
    Signature Algorithm: sha256WithRSAEncryption
    Signature Value:
        91:a0:67:f9:39:5a:f0:89:da:bd:9d:0d:45:80:77:70:c4:d8:
        8f:1e:39:1a:b7:60:bd:87:3c:04:b1:61:a8:40:2c:a1:f0:19:
        ad:c6:69:ac:25:a2:8e:7c:02:90:53:d5:92:ef:71:7c:a3:47:
        a9:b1:71:02:d2:02:8b:98:97:90:01:a8:6b:e4:7f:af:9d:4d:
        b5:88:f3:4e:8f:7c:0a:68:98:37:5f:61:26:ef:10:a3:9d:6f:
        a2:a2:c6:e6:a7:c1:ce:8d:5c:71:98:ce:7a:29:d1:ce:d6:15:
        8c:68:98:65:db:43:fd:f0:d2:fa:b0:eb:d3:c0:2a:f2:11:36:
        25:84:ce:02:02:42:f2:59:92:2f:39:04:0c:f5:c8:00:45:90:
        66:9b:c6:b5:13:76:5c:f1:69:1d:4d:d6:e7:42:95:e6:f5:63:
        09:4d:e2:68:44:73:fc:57:2a:d7:2f:b1:06:20:b1:63:f5:91:
        ae:cc:15:c9:c5:d9:4a:d2:dd:5f:d8:3c:90:c2:97:12:2f:80:
        68:76:56:0e:12:d6:5c:ee:8c:62:6d:43:42:0c:06:f7:09:ad:
        40:6a:c3:1f:aa:bf:74:f5:14:c9:74:bb:b2:fe:4e:c6:3d:88:
        8e:3a:99:78:3c:35:1e:38:0f:50:95:e8:e9:41:4c:9a:3c:03:
        b1:ec:ce:e1
-----BEGIN CERTIFICATE-----
MIIDSTCCAjGgAwIBAgIRAOsibl94nB1cOshvD0RtPQ4wDQYJKoZIhvcNAQELBQAw
HDEaMBgGA1UEAwwRSW90U2Nob29sIFJvb3QgQ0EwHhcNMjMwNDI1MTQxMTE0WhcN
MzMwNDIyMTQxMTE0WjAbMRkwFwYDVQQDDBBJb3RTY2hvb2wgU3ViIENBMIIBIjAN
BgkqhkiG9w0BAQEFAAOCAQ8AMIIBCgKCAQEAz7MVjUzYEbtfU5jLqnPh4t34/1IG
h5EM3d1Bk2pfTSiFE92EQVtf0bPt6YhH0g6M5x0YB5sx5JpHQCtxnE9yrtWoUojr
GYN1aXa306i5KnuOd9jkZQA+lINKmCfLxJhyL6Xlrh58n6shCKCr/b30tD/pm84b
ET+Ku0MHXqnJa8AqrsYX1fEKJ4dVrHO8r4FyZMnqY8EjCvtn9dyZsLIV/8GT632Q
Xuk7BQg1cHoiVP+NPUcAr/bGhNqMp1eoCicsCJzBXGWGQ3ShGGZIkIurZ6WfvV9o
MvMsGOEpLhfDtrODcqoqMwQobUqpM0X9Ek0WBQZBBZVpz1BxYIJGOZJJKQIDAQAB
o4GGMIGDMB8GA1UdIwQYMBaAFJzGXy4YM+7UFiwf43H4mOrVIhnsMBIGA1UdEwEB
/wQIMAYBAf8CAQAwHQYDVR0lBBYwFAYIKwYBBQUHAwIGCCsGAQUFBwMBMA4GA1Ud
DwEB/wQEAwIBBjAdBgNVHQ4EFgQUXncDQpOpXJnrpeUce59KGrfZfvUwDQYJKoZI
hvcNAQELBQADggEBAJGgZ/k5WvCJ2r2dDUWAd3DE2I8eORq3YL2HPASxYahALKHw
Ga3Gaawloo58ApBT1ZLvcXyjR6mxcQLSAouYl5ABqGvkf6+dTbWI806PfApomDdf
YSbvEKOdb6Kixuanwc6NXHGYznop0c7WFYxomGXbQ/3w0vqw69PAKvIRNiWEzgIC
QvJZki85BAz1yABFkGabxrUTdlzxaR1N1udCleb1YwlN4mhEc/xXKtcvsQYgsWP1
ka7MFcnF2UrS3V/YPJDClxIvgGh2Vg4S1lzujGJtQ0IMBvcJrUBqwx+qv3T1FMl0
u7L+TsY9iI46mXg8NR44D1CV6OlBTJo8A7HszuE=
-----END CERTIFICATE-----
