Certificate:
    Data:
        Version: 3 (0x2)
        Serial Number:
            2c:40:3c:96:1e:4e:cb:5f:3f:1d:ab:97:98:69:58:a0
        Signature Algorithm: sha256WithRSAEncryption
        Issuer: CN=IotSchool Sub CA
        Validity
            Not Before: May  5 11:24:32 2023 GMT
            Not After : May  4 11:24:32 2024 GMT
        Subject: C=DE, ST=Bavaria, O=IoT School, OU=PKI Services, CN=sample/emailAddress=iotschool@maibornwolff.de
        Subject Public Key Info:
            Public Key Algorithm: rsaEncryption
                Public-Key: (2048 bit)
                Modulus:
                    00:c6:53:86:4f:a4:dc:ac:6b:01:03:64:a7:72:61:
                    a9:de:52:9f:3a:5c:16:db:f5:f5:63:38:09:a2:c6:
                    98:27:67:c2:d2:54:3f:19:1b:a4:3e:59:a4:45:2f:
                    7a:69:7f:9f:da:9e:a0:6e:cd:05:e6:1c:47:d4:2f:
                    87:01:60:2e:b9:46:df:22:a7:49:4c:ed:67:02:6e:
                    b7:b7:39:ad:e4:e2:57:c0:65:8e:18:0f:26:23:a4:
                    38:67:e3:29:c4:fa:11:29:85:db:26:84:27:19:47:
                    d0:cf:df:d6:92:ca:b9:0d:00:60:79:45:be:ba:27:
                    65:02:1a:7b:4a:74:65:9b:54:0f:b4:a8:9d:b8:c7:
                    5e:ad:2f:c0:eb:a2:9d:dc:ea:6c:6d:94:8e:da:1c:
                    fb:0b:2e:b8:61:49:5e:8d:82:b2:8d:a6:16:cf:70:
                    31:1f:86:3b:eb:63:da:af:4b:28:a5:f5:e8:e9:ed:
                    51:aa:23:e8:6c:17:69:7b:c5:90:c7:66:c9:43:68:
                    3b:0e:a0:cf:32:d5:34:24:a3:0a:ef:d9:b9:dc:d9:
                    8e:9f:7f:fe:64:b0:ec:e2:ab:5c:f6:2e:dc:d3:e4:
                    c9:6e:80:67:51:63:a3:7c:d3:98:1d:e0:05:34:17:
                    b6:ef:2d:7e:e6:13:b3:8d:83:2c:7a:5f:00:2c:e3:
                    74:7d
                Exponent: 65537 (0x10001)
        X509v3 extensions:
            X509v3 Authority Key Identifier: 
                DF:63:E8:C5:AC:13:9F:03:B6:48:72:56:65:FD:34:26:BB:CE:27:F5
            X509v3 Basic Constraints: critical
                CA:FALSE
            X509v3 Extended Key Usage: 
                TLS Web Client Authentication
            X509v3 Key Usage: critical
                Digital Signature
            X509v3 Subject Key Identifier: 
                23:8C:27:E4:C2:1C:D9:E4:40:C9:21:04:C7:E2:78:4E:8A:AB:62:B8
            X509v3 Subject Alternative Name: 
                DNS:sample
    Signature Algorithm: sha256WithRSAEncryption
    Signature Value:
        9e:ee:f8:75:47:54:e3:05:d9:8b:21:d4:31:de:da:31:b2:f4:
        cb:72:0e:92:12:a8:9d:c5:b8:4e:30:31:c6:58:b4:0f:86:30:
        cb:30:39:3a:bf:0a:c6:19:ac:de:b7:4d:4c:9c:bd:68:c8:70:
        96:41:f9:e0:5c:fa:43:8d:32:11:cb:f9:a5:2a:82:8f:f6:53:
        d4:ca:7e:e3:5f:44:f4:a0:cb:1a:cb:6a:a1:38:33:3e:e5:d8:
        d5:3e:ae:6a:47:1e:bb:77:c4:29:eb:14:10:e6:96:02:ee:ce:
        a7:b8:20:60:db:25:67:d9:6f:d5:db:8c:0e:3b:78:6a:05:8b:
        aa:a9:d8:30:e3:40:3d:90:d0:30:9d:1d:2b:66:b5:0f:58:9c:
        fd:ad:ad:d5:e3:b3:d4:9a:2e:c5:fc:49:48:7f:10:49:d2:56:
        1d:9d:da:be:9b:86:ef:42:58:59:c3:ee:39:36:27:90:a5:25:
        09:2e:de:1c:ba:88:d3:e3:6e:ae:76:80:c0:3f:a1:07:50:3a:
        a8:6c:95:c4:d1:82:28:04:d9:d3:be:c7:81:c2:fd:97:78:0d:
        22:5a:a5:2e:21:1a:8e:48:6d:8e:8c:03:97:b8:17:3b:e2:5f:
        24:2c:da:0b:fa:48:b4:c3:54:7e:9e:d5:7d:59:cd:fa:4d:21:
        29:95:ff:fc
-----BEGIN CERTIFICATE-----
MIIDtjCCAp6gAwIBAgIQLEA8lh5Oy18/HauXmGlYoDANBgkqhkiG9w0BAQsFADAb
MRkwFwYDVQQDDBBJb3RTY2hvb2wgU3ViIENBMB4XDTIzMDUwNTExMjQzMloXDTI0
MDUwNDExMjQzMlowgYYxCzAJBgNVBAYTAkRFMRAwDgYDVQQIDAdCYXZhcmlhMRMw
EQYDVQQKDApJb1QgU2Nob29sMRUwEwYDVQQLDAxQS0kgU2VydmljZXMxDzANBgNV
BAMMBnNhbXBsZTEoMCYGCSqGSIb3DQEJARYZaW90c2Nob29sQG1haWJvcm53b2xm
Zi5kZTCCASIwDQYJKoZIhvcNAQEBBQADggEPADCCAQoCggEBAMZThk+k3KxrAQNk
p3Jhqd5SnzpcFtv19WM4CaLGmCdnwtJUPxkbpD5ZpEUveml/n9qeoG7NBeYcR9Qv
hwFgLrlG3yKnSUztZwJut7c5reTiV8BljhgPJiOkOGfjKcT6ESmF2yaEJxlH0M/f
1pLKuQ0AYHlFvronZQIae0p0ZZtUD7SonbjHXq0vwOuindzqbG2Ujtoc+wsuuGFJ
Xo2Cso2mFs9wMR+GO+tj2q9LKKX16OntUaoj6GwXaXvFkMdmyUNoOw6gzzLVNCSj
Cu/ZudzZjp9//mSw7OKrXPYu3NPkyW6AZ1Fjo3zTmB3gBTQXtu8tfuYTs42DLHpf
ACzjdH0CAwEAAaOBiTCBhjAfBgNVHSMEGDAWgBTfY+jFrBOfA7ZIclZl/TQmu84n
9TAMBgNVHRMBAf8EAjAAMBMGA1UdJQQMMAoGCCsGAQUFBwMCMA4GA1UdDwEB/wQE
AwIHgDAdBgNVHQ4EFgQUI4wn5MIc2eRAySEEx+J4ToqrYrgwEQYDVR0RBAowCIIG
c2FtcGxlMA0GCSqGSIb3DQEBCwUAA4IBAQCe7vh1R1TjBdmLIdQx3toxsvTLcg6S
EqidxbhOMDHGWLQPhjDLMDk6vwrGGazet01MnL1oyHCWQfngXPpDjTIRy/mlKoKP
9lPUyn7jX0T0oMsay2qhODM+5djVPq5qRx67d8Qp6xQQ5pYC7s6nuCBg2yVn2W/V
24wOO3hqBYuqqdgw40A9kNAwnR0rZrUPWJz9ra3V47PUmi7F/ElIfxBJ0lYdndq+
m4bvQlhZw+45NieQpSUJLt4cuojT426udoDAP6EHUDqobJXE0YIoBNnTvseBwv2X
eA0iWqUuIRqOSG2OjAOXuBc74l8kLNoL+ki0w1R+ntV9Wc36TSEplf/8
-----END CERTIFICATE-----
Certificate:
    Data:
        Version: 3 (0x2)
        Serial Number:
            4f:fd:f8:c3:d7:35:6c:4d:46:76:34:77:1e:09:39:a5
        Signature Algorithm: sha256WithRSAEncryption
        Issuer: CN=IotSchool Root CA
        Validity
            Not Before: Apr 25 19:07:46 2023 GMT
            Not After : Apr 22 19:07:46 2033 GMT
        Subject: CN=IotSchool Sub CA
        Subject Public Key Info:
            Public Key Algorithm: rsaEncryption
                Public-Key: (2048 bit)
                Modulus:
                    00:a0:e8:1f:e9:f8:2f:89:33:f1:79:f3:23:19:b4:
                    7a:c6:1c:71:02:94:e0:2c:f6:4c:be:fe:82:34:ed:
                    91:0f:7c:3e:0f:52:7b:68:3c:b8:29:30:ec:48:95:
                    14:67:b9:46:df:4a:b2:8a:3d:2c:82:16:fe:48:15:
                    7d:90:10:fd:21:f0:0b:c9:fc:49:52:3f:72:83:03:
                    40:f7:1a:0b:cb:d6:ae:31:e0:82:74:80:f1:0c:dc:
                    98:04:2b:61:04:4c:b5:a7:90:49:23:cf:fb:8b:b1:
                    18:b0:20:c0:d3:1f:07:74:e2:24:3b:18:e9:43:0a:
                    b7:4e:cf:22:05:ed:f8:82:d4:62:f8:e9:ac:04:49:
                    67:ee:04:f3:9a:75:08:33:11:19:00:5a:ad:ee:26:
                    f7:7d:82:fd:c6:b4:ee:5e:27:0e:6f:65:88:1f:de:
                    59:2a:36:7f:a5:ef:58:ba:fc:6c:c5:8f:65:09:1b:
                    2d:f3:f5:f2:9e:37:4e:46:e1:d2:10:f3:65:e7:6e:
                    56:5b:b6:30:ed:c7:03:e4:46:cd:2e:d2:25:09:3d:
                    d6:62:b1:8f:68:e3:3e:08:82:60:47:08:64:ac:56:
                    17:a8:c2:a8:a0:0a:2a:42:ef:1e:7e:bd:a2:54:8d:
                    e0:19:2e:7c:82:b7:70:0a:49:ac:3b:34:b2:87:a8:
                    85:e9
                Exponent: 65537 (0x10001)
        X509v3 extensions:
            X509v3 Authority Key Identifier: 
                9C:C6:5F:2E:18:33:EE:D4:16:2C:1F:E3:71:F8:98:EA:D5:22:19:EC
            X509v3 Basic Constraints: critical
                CA:TRUE, pathlen:0
            X509v3 Extended Key Usage: 
                TLS Web Client Authentication, TLS Web Server Authentication
            X509v3 Key Usage: critical
                Certificate Sign, CRL Sign
            X509v3 Subject Key Identifier: 
                DF:63:E8:C5:AC:13:9F:03:B6:48:72:56:65:FD:34:26:BB:CE:27:F5
    Signature Algorithm: sha256WithRSAEncryption
    Signature Value:
        47:5e:b8:42:2b:9f:e1:c4:9f:74:d6:29:3a:bb:f2:5b:90:21:
        37:31:e0:38:d6:eb:f4:e8:de:8f:6e:0b:fa:6a:b4:3b:22:d7:
        5d:de:df:f7:1b:69:6c:0a:f6:ac:8f:95:02:b5:db:c7:a0:b3:
        ba:83:b0:ae:c1:ce:10:b1:a4:fc:17:2a:fe:34:1d:cc:30:c0:
        e9:f9:55:6c:64:04:67:2d:1e:97:f8:8b:d4:e0:91:6a:c3:5a:
        30:b8:4d:d0:e4:85:00:75:74:72:bd:17:67:11:3d:eb:95:74:
        c5:23:42:51:69:68:8b:8d:f4:5a:60:97:80:28:47:bc:90:69:
        c3:8d:c8:3b:8f:41:22:cb:5c:6b:11:c0:ad:39:b4:c1:7c:e5:
        67:45:68:2d:7a:77:56:85:91:5c:f2:eb:55:a1:c2:bc:d7:6d:
        53:92:db:9d:9e:4b:0d:c4:cf:81:49:09:45:d4:37:9e:ec:32:
        33:32:65:ae:ee:66:f0:47:55:64:21:c9:d9:b7:da:78:7e:06:
        f2:98:60:49:84:69:28:df:0e:21:35:00:62:e2:aa:94:46:a2:
        e0:b1:0c:84:bc:34:5d:be:6d:f4:90:0e:80:17:89:03:48:64:
        58:61:55:0c:03:7c:53:91:66:28:42:8e:2b:6f:e0:29:73:6e:
        df:c6:01:db
-----BEGIN CERTIFICATE-----
MIIDSDCCAjCgAwIBAgIQT/34w9c1bE1GdjR3Hgk5pTANBgkqhkiG9w0BAQsFADAc
MRowGAYDVQQDDBFJb3RTY2hvb2wgUm9vdCBDQTAeFw0yMzA0MjUxOTA3NDZaFw0z
MzA0MjIxOTA3NDZaMBsxGTAXBgNVBAMMEElvdFNjaG9vbCBTdWIgQ0EwggEiMA0G
CSqGSIb3DQEBAQUAA4IBDwAwggEKAoIBAQCg6B/p+C+JM/F58yMZtHrGHHEClOAs
9ky+/oI07ZEPfD4PUntoPLgpMOxIlRRnuUbfSrKKPSyCFv5IFX2QEP0h8AvJ/ElS
P3KDA0D3GgvL1q4x4IJ0gPEM3JgEK2EETLWnkEkjz/uLsRiwIMDTHwd04iQ7GOlD
CrdOzyIF7fiC1GL46awESWfuBPOadQgzERkAWq3uJvd9gv3GtO5eJw5vZYgf3lkq
Nn+l71i6/GzFj2UJGy3z9fKeN05G4dIQ82XnblZbtjDtxwPkRs0u0iUJPdZisY9o
4z4IgmBHCGSsVheowqigCipC7x5+vaJUjeAZLnyCt3AKSaw7NLKHqIXpAgMBAAGj
gYYwgYMwHwYDVR0jBBgwFoAUnMZfLhgz7tQWLB/jcfiY6tUiGewwEgYDVR0TAQH/
BAgwBgEB/wIBADAdBgNVHSUEFjAUBggrBgEFBQcDAgYIKwYBBQUHAwEwDgYDVR0P
AQH/BAQDAgEGMB0GA1UdDgQWBBTfY+jFrBOfA7ZIclZl/TQmu84n9TANBgkqhkiG
9w0BAQsFAAOCAQEAR164Qiuf4cSfdNYpOrvyW5AhNzHgONbr9Ojej24L+mq0OyLX
Xd7f9xtpbAr2rI+VArXbx6CzuoOwrsHOELGk/Bcq/jQdzDDA6flVbGQEZy0el/iL
1OCRasNaMLhN0OSFAHV0cr0XZxE965V0xSNCUWloi430WmCXgChHvJBpw43IO49B
IstcaxHArTm0wXzlZ0VoLXp3VoWRXPLrVaHCvNdtU5LbnZ5LDcTPgUkJRdQ3nuwy
MzJlru5m8EdVZCHJ2bfaeH4G8phgSYRpKN8OITUAYuKqlEai4LEMhLw0Xb5t9JAO
gBeJA0hkWGFVDAN8U5FmKEKOK2/gKXNu38YB2w==
-----END CERTIFICATE-----
