Certificate:
    Data:
        Version: 3 (0x2)
        Serial Number:
            2c:40:3c:96:1e:4e:cb:5f:3f:1d:ab:97:98:69:58:ab
        Signature Algorithm: sha256WithRSAEncryption
        Issuer: CN=IotSchool Sub CA
        Validity
            Not Before: May  5 11:24:46 2023 GMT
            Not After : May  4 11:24:46 2024 GMT
        Subject: C=DE, ST=Bavaria, O=IoT School, OU=PKI Services, CN=sample/emailAddress=iotschool@maibornwolff.de
        Subject Public Key Info:
            Public Key Algorithm: rsaEncryption
                Public-Key: (2048 bit)
                Modulus:
                    00:be:7b:b8:66:49:1f:f2:c1:b8:33:c1:49:a3:54:
                    ed:28:91:e8:bc:d3:9e:0a:25:c0:e1:1e:ec:11:bd:
                    54:6b:3a:ea:0d:42:b2:99:30:d5:8b:88:d5:75:5c:
                    1c:b3:35:58:09:e0:46:1b:9c:91:11:6c:9b:e1:96:
                    5d:a7:96:ff:7b:aa:f0:71:5a:ad:e3:29:4e:97:22:
                    ef:15:62:5d:b4:7a:b9:5d:ed:7e:a9:63:c4:e7:92:
                    b8:bb:a1:30:f2:06:ab:82:a0:99:bc:4b:c2:dc:e2:
                    8c:ba:1a:bd:9d:28:bf:79:f8:2b:0e:49:b2:d5:9f:
                    37:0a:79:32:89:4e:86:f8:8b:41:92:00:8a:3e:62:
                    e3:c9:c6:61:83:01:47:ba:41:7b:05:0e:d4:fa:6c:
                    00:4f:8d:7b:3e:3e:b9:b5:b6:31:40:ef:fc:b2:31:
                    c4:31:2f:e7:79:cd:d8:bc:75:0b:29:15:97:a0:3e:
                    6c:15:6e:52:67:58:34:60:8e:2a:f9:05:e8:db:69:
                    72:db:ec:ed:d1:b8:89:0a:36:56:b4:28:ac:3d:7d:
                    3a:79:da:7a:e5:3f:44:06:ef:0e:9b:ec:ec:5e:70:
                    c8:91:fe:ac:f8:8d:0b:60:6d:79:6e:df:cd:ed:b7:
                    a7:d4:16:dd:fb:f8:8e:15:be:6e:1d:db:86:8e:07:
                    bf:01
                Exponent: 65537 (0x10001)
        X509v3 extensions:
            X509v3 Authority Key Identifier: 
                78:5D:C5:F1:70:AD:1F:CD:E5:EB:F2:EB:EC:F0:71:42:30:5E:CC:3D
            X509v3 Basic Constraints: critical
                CA:FALSE
            X509v3 Extended Key Usage: 
                TLS Web Client Authentication
            X509v3 Key Usage: critical
                Digital Signature
            X509v3 Subject Key Identifier: 
                C4:F4:AC:FE:76:38:19:40:7C:4C:5B:F8:76:2D:7B:C5:51:8B:84:A5
            X509v3 Subject Alternative Name: 
                DNS:sample
    Signature Algorithm: sha256WithRSAEncryption
    Signature Value:
        09:63:9b:e9:a0:4f:0c:1c:51:ae:4b:4f:42:f6:58:ba:49:14:
        6c:9c:f3:93:5b:e3:54:3e:92:71:e3:2b:fc:65:f5:3d:17:ee:
        50:a9:17:bd:da:f8:a4:02:a7:34:5b:1c:f7:d3:19:06:62:59:
        16:31:f0:af:ef:ec:ca:a9:82:28:63:e2:65:20:57:91:dc:d7:
        8e:f3:aa:f9:92:6b:2f:90:72:f7:de:b9:55:bd:d7:a3:de:db:
        a0:d3:ae:2a:31:3c:91:93:e2:4a:21:1c:0d:f4:76:0d:a0:f1:
        e2:e8:32:37:72:1b:b5:84:26:29:65:c5:e6:f8:48:d7:d0:bc:
        c9:5c:93:c4:e3:71:67:96:a3:c5:ee:7d:37:d8:5c:26:a8:fd:
        30:7f:35:91:08:4c:98:1d:a9:8d:cd:f2:d3:5f:9d:6f:5a:28:
        f5:a3:70:98:5c:34:13:ed:88:a0:24:f3:b4:fc:24:be:f1:f1:
        e0:97:01:08:32:49:3a:65:74:be:f5:58:a8:f5:8e:5e:cd:68:
        cf:59:d2:7a:ed:96:35:9a:1d:1e:cb:2f:5c:ec:6d:cc:55:aa:
        f7:cd:1a:82:14:ba:0a:ec:4d:06:04:7a:28:bf:85:45:ee:d3:
        10:bc:42:7b:63:74:04:95:9f:47:96:79:51:db:5b:f1:79:2d:
        78:79:53:fd
-----BEGIN CERTIFICATE-----
MIIDtjCCAp6gAwIBAgIQLEA8lh5Oy18/HauXmGlYqzANBgkqhkiG9w0BAQsFADAb
MRkwFwYDVQQDDBBJb3RTY2hvb2wgU3ViIENBMB4XDTIzMDUwNTExMjQ0NloXDTI0
MDUwNDExMjQ0NlowgYYxCzAJBgNVBAYTAkRFMRAwDgYDVQQIDAdCYXZhcmlhMRMw
EQYDVQQKDApJb1QgU2Nob29sMRUwEwYDVQQLDAxQS0kgU2VydmljZXMxDzANBgNV
BAMMBnNhbXBsZTEoMCYGCSqGSIb3DQEJARYZaW90c2Nob29sQG1haWJvcm53b2xm
Zi5kZTCCASIwDQYJKoZIhvcNAQEBBQADggEPADCCAQoCggEBAL57uGZJH/LBuDPB
SaNU7SiR6LzTngolwOEe7BG9VGs66g1Cspkw1YuI1XVcHLM1WAngRhuckRFsm+GW
XaeW/3uq8HFareMpTpci7xViXbR6uV3tfqljxOeSuLuhMPIGq4KgmbxLwtzijLoa
vZ0ov3n4Kw5JstWfNwp5MolOhviLQZIAij5i48nGYYMBR7pBewUO1PpsAE+Nez4+
ubW2MUDv/LIxxDEv53nN2Lx1CykVl6A+bBVuUmdYNGCOKvkF6Ntpctvs7dG4iQo2
VrQorD19OnnaeuU/RAbvDpvs7F5wyJH+rPiNC2BteW7fze23p9QW3fv4jhW+bh3b
ho4HvwECAwEAAaOBiTCBhjAfBgNVHSMEGDAWgBR4XcXxcK0fzeXr8uvs8HFCMF7M
PTAMBgNVHRMBAf8EAjAAMBMGA1UdJQQMMAoGCCsGAQUFBwMCMA4GA1UdDwEB/wQE
AwIHgDAdBgNVHQ4EFgQUxPSs/nY4GUB8TFv4di17xVGLhKUwEQYDVR0RBAowCIIG
c2FtcGxlMA0GCSqGSIb3DQEBCwUAA4IBAQAJY5vpoE8MHFGuS09C9li6SRRsnPOT
W+NUPpJx4yv8ZfU9F+5QqRe92vikAqc0Wxz30xkGYlkWMfCv7+zKqYIoY+JlIFeR
3NeO86r5kmsvkHL33rlVvdej3tug064qMTyRk+JKIRwN9HYNoPHi6DI3chu1hCYp
ZcXm+EjX0LzJXJPE43FnlqPF7n032FwmqP0wfzWRCEyYHamNzfLTX51vWij1o3CY
XDQT7YigJPO0/CS+8fHglwEIMkk6ZXS+9Vio9Y5ezWjPWdJ67ZY1mh0eyy9c7G3M
Var3zRqCFLoK7E0GBHoov4VF7tMQvEJ7Y3QElZ9HlnlR21vxeS14eVP9
-----END CERTIFICATE-----
Certificate:
    Data:
        Version: 3 (0x2)
        Serial Number:
            34:de:bf:8a:8f:a0:40:08:2b:0b:6c:b5:10:57:9a:01
        Signature Algorithm: sha256WithRSAEncryption
        Issuer: CN=IotSchool Root CA
        Validity
            Not Before: Apr 19 18:46:43 2023 GMT
            Not After : Apr 16 18:46:43 2033 GMT
        Subject: CN=IotSchool Sub CA
        Subject Public Key Info:
            Public Key Algorithm: rsaEncryption
                Public-Key: (2048 bit)
                Modulus:
                    00:d5:4f:94:5a:dd:28:60:bf:19:80:76:b8:6f:5d:
                    10:28:a2:f3:df:07:80:eb:23:e8:85:f5:9d:2c:ff:
                    6c:35:f1:4b:92:e9:97:eb:73:fa:90:f6:0b:72:1a:
                    b6:e4:41:a6:c8:f6:6a:4c:fb:4b:ed:cf:fb:ef:87:
                    60:d2:00:2b:38:a2:30:4a:d0:57:02:0c:18:16:92:
                    7d:d8:ac:ff:f9:31:a0:72:76:9d:f8:96:8a:bd:4b:
                    e4:f2:f4:8d:f1:1b:fe:a1:0a:1e:d9:02:25:f6:b5:
                    17:fa:a4:9c:38:f7:44:64:90:be:93:cd:74:98:4e:
                    68:e7:47:98:a5:c3:9f:df:09:1f:8c:e2:b6:d3:be:
                    51:d0:33:26:b9:dd:01:fb:30:aa:42:2a:d7:06:6f:
                    0e:07:03:e2:5a:aa:8e:2f:f2:f0:17:4f:7b:7e:3f:
                    d2:91:9b:cd:2c:66:43:1a:21:32:fc:06:58:ba:b2:
                    ef:a4:f8:83:92:05:ee:84:38:21:fa:49:9b:7b:2a:
                    70:6b:94:cd:c8:b4:f7:db:96:42:c0:b7:3c:bf:25:
                    3f:de:cf:ce:09:72:cc:b0:2d:af:5f:24:bf:ec:ef:
                    b7:bc:e0:00:42:7f:44:14:be:08:dc:71:27:fc:ee:
                    32:49:d1:e6:27:bf:44:24:aa:b1:96:8d:6d:c8:79:
                    e7:09
                Exponent: 65537 (0x10001)
        X509v3 extensions:
            X509v3 Authority Key Identifier: 
                9C:C6:5F:2E:18:33:EE:D4:16:2C:1F:E3:71:F8:98:EA:D5:22:19:EC
            X509v3 Basic Constraints: critical
                CA:TRUE, pathlen:0
            X509v3 Extended Key Usage: 
                TLS Web Client Authentication, TLS Web Server Authentication
            X509v3 Key Usage: critical
                Certificate Sign, CRL Sign
            X509v3 Subject Key Identifier: 
                78:5D:C5:F1:70:AD:1F:CD:E5:EB:F2:EB:EC:F0:71:42:30:5E:CC:3D
    Signature Algorithm: sha256WithRSAEncryption
    Signature Value:
        a3:15:2e:76:e0:51:90:57:3e:b0:90:20:5d:b3:af:27:51:f5:
        93:a9:6e:e7:d7:10:78:36:0a:18:c3:82:ce:b7:66:82:1d:e4:
        9c:ae:2d:41:1f:69:bb:7e:49:b9:ea:71:ec:fd:39:1c:d0:07:
        b7:15:a1:4e:e6:a3:1a:01:ab:3d:3e:6d:fd:f8:b1:03:5a:fc:
        3a:13:a0:51:5d:5e:4e:e5:28:f4:47:2e:b8:8d:f5:af:22:03:
        95:95:fa:60:95:fe:b6:57:5b:59:20:6d:22:96:7e:b0:40:3c:
        00:0d:2c:0c:47:9a:c4:f1:04:fc:83:b9:a1:c2:75:7b:15:bd:
        7e:5e:eb:d0:83:6b:aa:b5:a0:ec:73:3d:b7:5a:6c:13:fe:91:
        a6:6e:40:5f:8e:8c:a1:84:f1:a3:37:9d:0b:3f:b7:26:6a:89:
        b9:21:05:58:56:d7:99:bb:32:ce:55:98:32:d6:4c:e0:0c:34:
        c1:aa:e5:c4:79:8d:94:e2:aa:e8:5b:2a:2a:44:55:e5:7a:dd:
        97:6f:e5:71:b3:4a:5e:1d:fd:76:d8:9c:af:b2:64:ad:43:a1:
        3e:ee:bf:a9:c2:7a:1c:30:c1:77:c4:38:bb:33:bc:72:f8:db:
        cc:01:06:9a:17:21:c9:57:64:01:b1:b5:84:46:91:8e:18:45:
        bb:45:52:98
-----BEGIN CERTIFICATE-----
MIIDSDCCAjCgAwIBAgIQNN6/io+gQAgrC2y1EFeaATANBgkqhkiG9w0BAQsFADAc
MRowGAYDVQQDDBFJb3RTY2hvb2wgUm9vdCBDQTAeFw0yMzA0MTkxODQ2NDNaFw0z
MzA0MTYxODQ2NDNaMBsxGTAXBgNVBAMMEElvdFNjaG9vbCBTdWIgQ0EwggEiMA0G
CSqGSIb3DQEBAQUAA4IBDwAwggEKAoIBAQDVT5Ra3ShgvxmAdrhvXRAoovPfB4Dr
I+iF9Z0s/2w18UuS6Zfrc/qQ9gtyGrbkQabI9mpM+0vtz/vvh2DSACs4ojBK0FcC
DBgWkn3YrP/5MaBydp34loq9S+Ty9I3xG/6hCh7ZAiX2tRf6pJw490RkkL6TzXSY
TmjnR5ilw5/fCR+M4rbTvlHQMya53QH7MKpCKtcGbw4HA+Jaqo4v8vAXT3t+P9KR
m80sZkMaITL8Bli6su+k+IOSBe6EOCH6SZt7KnBrlM3ItPfblkLAtzy/JT/ez84J
csywLa9fJL/s77e84ABCf0QUvgjccSf87jJJ0eYnv0QkqrGWjW3IeecJAgMBAAGj
gYYwgYMwHwYDVR0jBBgwFoAUnMZfLhgz7tQWLB/jcfiY6tUiGewwEgYDVR0TAQH/
BAgwBgEB/wIBADAdBgNVHSUEFjAUBggrBgEFBQcDAgYIKwYBBQUHAwEwDgYDVR0P
AQH/BAQDAgEGMB0GA1UdDgQWBBR4XcXxcK0fzeXr8uvs8HFCMF7MPTANBgkqhkiG
9w0BAQsFAAOCAQEAoxUuduBRkFc+sJAgXbOvJ1H1k6lu59cQeDYKGMOCzrdmgh3k
nK4tQR9pu35Juepx7P05HNAHtxWhTuajGgGrPT5t/fixA1r8OhOgUV1eTuUo9Ecu
uI31ryIDlZX6YJX+tldbWSBtIpZ+sEA8AA0sDEeaxPEE/IO5ocJ1exW9fl7r0INr
qrWg7HM9t1psE/6Rpm5AX46MoYTxozedCz+3JmqJuSEFWFbXmbsyzlWYMtZM4Aw0
warlxHmNlOKq6FsqKkRV5Xrdl2/lcbNKXh39dticr7JkrUOhPu6/qcJ6HDDBd8Q4
uzO8cvjbzAEGmhchyVdkAbG1hEaRjhhFu0VSmA==
-----END CERTIFICATE-----
