Certificate:
    Data:
        Version: 3 (0x2)
        Serial Number:
            2c:40:3c:96:1e:4e:cb:5f:3f:1d:ab:97:98:69:58:b2
        Signature Algorithm: sha256WithRSAEncryption
        Issuer: CN=IotSchool Sub CA
        Validity
            Not Before: May  5 11:25:34 2023 GMT
            Not After : May  4 11:25:34 2024 GMT
        Subject: C=DE, ST=Bavaria, O=IoT School, OU=PKI Services, CN=sample/emailAddress=iotschool@maibornwolff.de
        Subject Public Key Info:
            Public Key Algorithm: rsaEncryption
                Public-Key: (2048 bit)
                Modulus:
                    00:a3:1e:f0:5d:f2:14:0b:d4:c4:f8:37:8d:40:37:
                    c2:fb:03:0e:0b:09:2a:6c:73:3e:14:1d:2b:62:4c:
                    ce:57:03:ec:ff:32:04:84:ec:ec:3b:d0:5a:a8:c4:
                    d1:d6:79:3a:6c:b5:e5:4c:d0:44:52:77:3f:f0:eb:
                    a7:84:7e:ad:b2:ff:15:29:ef:3f:02:ea:68:2a:3e:
                    53:d1:52:47:3a:41:67:a4:29:e4:01:be:ed:76:73:
                    86:d6:29:76:9d:e5:47:b1:dc:b0:7c:1b:2f:72:a7:
                    a6:02:25:72:5f:fb:03:51:50:bf:7a:5c:43:6f:c6:
                    dc:99:2d:30:c8:c8:9c:de:b6:73:0c:1b:ce:48:5d:
                    3b:84:c3:43:1c:aa:42:5e:99:ae:84:2d:07:e2:39:
                    46:92:fb:a2:bd:d5:c4:14:ed:20:b0:d8:a8:7a:cf:
                    a8:a1:4e:e3:3c:72:ee:01:12:db:fd:d7:45:4a:a2:
                    c2:17:f6:44:fc:85:8d:37:30:c1:3d:20:18:65:55:
                    8a:e4:c8:ea:5a:d6:c7:42:c8:7f:b8:40:0c:87:27:
                    49:05:f1:1c:c5:df:94:ae:9d:ba:c7:29:d7:79:37:
                    97:e0:c4:86:50:3f:66:99:7c:de:83:0b:e5:3e:4b:
                    62:82:28:ed:97:06:d6:f8:cc:75:a2:2e:8d:d8:a4:
                    e0:7b
                Exponent: 65537 (0x10001)
        X509v3 extensions:
            X509v3 Authority Key Identifier: 
                12:4F:18:DE:F3:2F:A2:0E:9C:21:B9:D5:16:C1:68:94:41:1F:AD:AC
            X509v3 Basic Constraints: critical
                CA:FALSE
            X509v3 Extended Key Usage: 
                TLS Web Client Authentication
            X509v3 Key Usage: critical
                Digital Signature
            X509v3 Subject Key Identifier: 
                62:70:0F:3D:3D:05:8C:D9:61:08:59:8E:E4:2F:7F:67:A8:C4:1B:78
            X509v3 Subject Alternative Name: 
                DNS:sample
    Signature Algorithm: sha256WithRSAEncryption
    Signature Value:
        6b:f5:dd:9d:28:43:02:a4:08:d3:ff:e1:f8:30:b8:82:24:0b:
        d4:e9:f8:b1:f5:47:c9:36:2c:56:8b:27:d6:a3:df:b1:5b:e6:
        6e:01:d8:e1:91:17:d8:21:35:ed:2e:43:4d:ce:0c:63:de:b7:
        08:9e:d5:dd:9f:52:6d:5a:f2:ab:c4:53:d0:34:53:70:16:ae:
        5e:6c:d2:c1:3a:8c:25:32:0c:79:77:62:3c:fe:78:f1:e0:3d:
        39:76:b3:e1:ca:f7:57:eb:f5:c7:1c:cb:66:76:c6:31:52:90:
        46:6a:68:d9:f7:4e:ea:88:ca:a3:be:b5:9b:6f:7c:07:cc:25:
        09:29:65:d1:a7:89:84:91:63:35:f8:03:47:25:31:e2:b5:43:
        b2:46:65:b5:6a:3d:2e:21:f3:ce:83:85:b9:1b:02:c9:d0:38:
        11:41:64:20:f1:92:65:fe:b1:e9:e2:34:9c:ba:9e:e7:37:c7:
        ce:78:c7:c1:73:b9:9f:50:97:4f:26:b7:ef:27:ac:6c:38:d2:
        84:87:91:09:49:3c:7b:38:fc:e7:48:7f:a8:47:c9:c9:60:a9:
        4c:55:d4:53:2d:ec:a8:39:0c:b9:f3:08:3d:03:0e:56:a5:f1:
        07:ef:e8:d1:5e:bf:e2:ed:a7:5f:23:09:63:41:ba:ed:8d:43:
        63:ac:25:ca
-----BEGIN CERTIFICATE-----
MIIDtjCCAp6gAwIBAgIQLEA8lh5Oy18/HauXmGlYsjANBgkqhkiG9w0BAQsFADAb
MRkwFwYDVQQDDBBJb3RTY2hvb2wgU3ViIENBMB4XDTIzMDUwNTExMjUzNFoXDTI0
MDUwNDExMjUzNFowgYYxCzAJBgNVBAYTAkRFMRAwDgYDVQQIDAdCYXZhcmlhMRMw
EQYDVQQKDApJb1QgU2Nob29sMRUwEwYDVQQLDAxQS0kgU2VydmljZXMxDzANBgNV
BAMMBnNhbXBsZTEoMCYGCSqGSIb3DQEJARYZaW90c2Nob29sQG1haWJvcm53b2xm
Zi5kZTCCASIwDQYJKoZIhvcNAQEBBQADggEPADCCAQoCggEBAKMe8F3yFAvUxPg3
jUA3wvsDDgsJKmxzPhQdK2JMzlcD7P8yBITs7DvQWqjE0dZ5Omy15UzQRFJ3P/Dr
p4R+rbL/FSnvPwLqaCo+U9FSRzpBZ6Qp5AG+7XZzhtYpdp3lR7HcsHwbL3KnpgIl
cl/7A1FQv3pcQ2/G3JktMMjInN62cwwbzkhdO4TDQxyqQl6ZroQtB+I5RpL7or3V
xBTtILDYqHrPqKFO4zxy7gES2/3XRUqiwhf2RPyFjTcwwT0gGGVViuTI6lrWx0LI
f7hADIcnSQXxHMXflK6duscp13k3l+DEhlA/Zpl83oML5T5LYoIo7ZcG1vjMdaIu
jdik4HsCAwEAAaOBiTCBhjAfBgNVHSMEGDAWgBQSTxje8y+iDpwhudUWwWiUQR+t
rDAMBgNVHRMBAf8EAjAAMBMGA1UdJQQMMAoGCCsGAQUFBwMCMA4GA1UdDwEB/wQE
AwIHgDAdBgNVHQ4EFgQUYnAPPT0FjNlhCFmO5C9/Z6jEG3gwEQYDVR0RBAowCIIG
c2FtcGxlMA0GCSqGSIb3DQEBCwUAA4IBAQBr9d2dKEMCpAjT/+H4MLiCJAvU6fix
9UfJNixWiyfWo9+xW+ZuAdjhkRfYITXtLkNNzgxj3rcIntXdn1JtWvKrxFPQNFNw
Fq5ebNLBOowlMgx5d2I8/njx4D05drPhyvdX6/XHHMtmdsYxUpBGamjZ907qiMqj
vrWbb3wHzCUJKWXRp4mEkWM1+ANHJTHitUOyRmW1aj0uIfPOg4W5GwLJ0DgRQWQg
8ZJl/rHp4jScup7nN8fOeMfBc7mfUJdPJrfvJ6xsONKEh5EJSTx7OPznSH+oR8nJ
YKlMVdRTLeyoOQy58wg9Aw5WpfEH7+jRXr/i7adfIwljQbrtjUNjrCXK
-----END CERTIFICATE-----
Certificate:
    Data:
        Version: 3 (0x2)
        Serial Number:
            bf:60:70:de:ff:a3:49:5d:dd:55:cf:f2:1a:0b:18:e5
        Signature Algorithm: sha256WithRSAEncryption
        Issuer: CN=IotSchool Root CA
        Validity
            Not Before: Apr 25 14:19:49 2023 GMT
            Not After : Apr 22 14:19:49 2033 GMT
        Subject: CN=IotSchool Sub CA
        Subject Public Key Info:
            Public Key Algorithm: rsaEncryption
                Public-Key: (2048 bit)
                Modulus:
                    00:ca:5e:d9:d4:51:2e:1f:39:30:8c:f7:32:0b:18:
                    55:ee:ba:ec:fb:c2:78:9b:b4:38:11:60:16:52:98:
                    62:f8:0f:39:10:c2:4c:2d:b5:63:32:49:1f:e5:1c:
                    8a:22:b1:7b:02:a9:f1:25:dd:7c:7c:cd:b3:db:1c:
                    99:e2:57:53:39:db:fc:0a:92:6a:08:86:5d:97:7f:
                    5d:32:8c:e7:f0:17:aa:27:3b:51:5f:59:5c:fc:cb:
                    b5:1d:60:54:ed:bc:36:f8:4d:ab:27:59:04:c8:1e:
                    92:d6:f0:2b:c1:a1:89:bc:5b:a1:36:42:99:d9:ad:
                    a4:f5:ee:ae:5f:e9:36:08:f6:41:51:cf:d2:66:09:
                    b0:c9:53:55:d0:61:0c:a7:7e:e5:aa:08:b4:07:87:
                    30:d4:82:d8:7f:58:ca:50:af:a7:95:8d:5f:8d:4d:
                    5a:7c:a5:13:10:f1:20:21:47:51:10:34:11:eb:5b:
                    7c:9e:f7:63:27:89:8c:19:ba:37:8a:d5:c0:8c:0b:
                    11:e3:30:94:e7:d2:e6:13:50:2d:ef:b5:ba:22:82:
                    c9:71:ff:96:f6:08:9c:6d:82:c6:9d:d4:3d:97:f4:
                    fb:3f:74:0f:b7:1f:60:49:2e:5e:f1:e3:fa:e1:b4:
                    7f:27:bb:7a:f6:5d:ae:f8:de:73:1a:6e:e3:d0:2b:
                    32:3d
                Exponent: 65537 (0x10001)
        X509v3 extensions:
            X509v3 Authority Key Identifier: 
                9C:C6:5F:2E:18:33:EE:D4:16:2C:1F:E3:71:F8:98:EA:D5:22:19:EC
            X509v3 Basic Constraints: critical
                CA:TRUE, pathlen:0
            X509v3 Extended Key Usage: 
                TLS Web Client Authentication, TLS Web Server Authentication
            X509v3 Key Usage: critical
                Certificate Sign, CRL Sign
            X509v3 Subject Key Identifier: 
                12:4F:18:DE:F3:2F:A2:0E:9C:21:B9:D5:16:C1:68:94:41:1F:AD:AC
    Signature Algorithm: sha256WithRSAEncryption
    Signature Value:
        3d:64:8c:25:00:53:11:f5:1d:2c:84:a8:44:da:d1:94:cd:df:
        21:ff:f7:7f:66:95:fc:76:63:df:22:1d:f5:9e:ad:3c:ba:ff:
        6d:b5:e1:2d:14:4d:80:92:dc:70:0c:17:95:d8:e5:94:13:5d:
        b5:7f:0f:0a:4c:8d:81:e0:c7:f7:b5:30:c4:7f:13:46:21:e1:
        d0:bc:5c:18:1f:86:3a:2c:12:26:82:77:94:76:f1:2c:62:4b:
        9d:0f:98:f9:ea:ae:18:8b:5c:b9:c8:f4:ef:78:8b:c8:11:62:
        0d:1a:b7:76:fd:69:d4:33:c5:2e:2d:d3:27:75:dd:8a:ed:13:
        d3:25:e0:71:e8:11:3c:71:bb:a0:f6:90:e2:c8:ff:cf:b1:6a:
        47:2d:41:fe:ae:c4:d5:aa:d4:12:bc:fc:b3:3f:78:97:9e:03:
        39:44:3d:8b:d6:19:e6:a2:f8:2f:fa:0d:1f:4e:64:05:5b:b9:
        0a:19:2a:50:ba:6e:84:8c:57:6d:31:b4:65:58:20:af:72:b8:
        49:ea:15:41:43:eb:c6:6b:48:53:7b:3f:c1:a4:dd:7c:2b:7e:
        c2:21:c3:92:03:66:ec:39:1e:23:ea:92:6e:ed:f2:f8:02:51:
        71:3b:ab:15:d9:46:5b:46:bc:4f:f5:3b:09:fc:cc:31:b7:39:
        38:cb:be:09
-----BEGIN CERTIFICATE-----
MIIDSTCCAjGgAwIBAgIRAL9gcN7/o0ld3VXP8hoLGOUwDQYJKoZIhvcNAQELBQAw
HDEaMBgGA1UEAwwRSW90U2Nob29sIFJvb3QgQ0EwHhcNMjMwNDI1MTQxOTQ5WhcN
MzMwNDIyMTQxOTQ5WjAbMRkwFwYDVQQDDBBJb3RTY2hvb2wgU3ViIENBMIIBIjAN
BgkqhkiG9w0BAQEFAAOCAQ8AMIIBCgKCAQEAyl7Z1FEuHzkwjPcyCxhV7rrs+8J4
m7Q4EWAWUphi+A85EMJMLbVjMkkf5RyKIrF7AqnxJd18fM2z2xyZ4ldTOdv8CpJq
CIZdl39dMozn8BeqJztRX1lc/Mu1HWBU7bw2+E2rJ1kEyB6S1vArwaGJvFuhNkKZ
2a2k9e6uX+k2CPZBUc/SZgmwyVNV0GEMp37lqgi0B4cw1ILYf1jKUK+nlY1fjU1a
fKUTEPEgIUdREDQR61t8nvdjJ4mMGbo3itXAjAsR4zCU59LmE1At77W6IoLJcf+W
9gicbYLGndQ9l/T7P3QPtx9gSS5e8eP64bR/J7t69l2u+N5zGm7j0CsyPQIDAQAB
o4GGMIGDMB8GA1UdIwQYMBaAFJzGXy4YM+7UFiwf43H4mOrVIhnsMBIGA1UdEwEB
/wQIMAYBAf8CAQAwHQYDVR0lBBYwFAYIKwYBBQUHAwIGCCsGAQUFBwMBMA4GA1Ud
DwEB/wQEAwIBBjAdBgNVHQ4EFgQUEk8Y3vMvog6cIbnVFsFolEEfrawwDQYJKoZI
hvcNAQELBQADggEBAD1kjCUAUxH1HSyEqETa0ZTN3yH/939mlfx2Y98iHfWerTy6
/2214S0UTYCS3HAMF5XY5ZQTXbV/DwpMjYHgx/e1MMR/E0Yh4dC8XBgfhjosEiaC
d5R28SxiS50PmPnqrhiLXLnI9O94i8gRYg0at3b9adQzxS4t0yd13YrtE9Ml4HHo
ETxxu6D2kOLI/8+xakctQf6uxNWq1BK8/LM/eJeeAzlEPYvWGeai+C/6DR9OZAVb
uQoZKlC6boSMV20xtGVYIK9yuEnqFUFD68ZrSFN7P8Gk3XwrfsIhw5IDZuw5HiPq
km7t8vgCUXE7qxXZRltGvE/1Own8zDG3OTjLvgk=
-----END CERTIFICATE-----
