Certificate:
    Data:
        Version: 3 (0x2)
        Serial Number:
            2c:40:3c:96:1e:4e:cb:5f:3f:1d:ab:97:98:69:58:b3
        Signature Algorithm: sha256WithRSAEncryption
        Issuer: CN=IotSchool Sub CA
        Validity
            Not Before: May  5 11:25:41 2023 GMT
            Not After : May  4 11:25:41 2024 GMT
        Subject: C=DE, ST=Bavaria, O=IoT School, OU=PKI Services, CN=sample/emailAddress=iotschool@maibornwolff.de
        Subject Public Key Info:
            Public Key Algorithm: rsaEncryption
                Public-Key: (2048 bit)
                Modulus:
                    00:bb:ac:f0:36:31:47:ef:9e:6d:37:17:aa:f1:b6:
                    35:f0:50:38:7c:04:b9:d9:47:0c:9a:7b:d5:76:5a:
                    7a:a4:bd:50:82:60:7b:41:52:78:08:4a:8d:e0:4a:
                    20:17:ed:fe:23:a8:fc:c3:54:6c:c0:a7:f2:0a:d2:
                    35:52:61:e6:39:82:d6:15:2f:93:48:6a:52:36:14:
                    92:b9:31:71:b3:54:4d:15:81:5b:41:d2:99:17:c5:
                    60:83:a6:ef:91:af:b4:a3:d7:53:b3:1d:07:a1:45:
                    23:f5:ee:25:8a:7b:96:e2:a3:85:fe:51:e3:37:ce:
                    0a:aa:0e:33:31:ae:65:6d:7d:1d:5e:93:a5:f4:08:
                    ce:1a:61:06:d1:e6:f2:10:19:b6:27:5a:eb:e4:8f:
                    c3:82:37:8e:b2:73:20:e8:80:91:e1:1a:44:af:d5:
                    c3:b8:fa:d0:5b:32:6b:21:40:39:a8:14:d2:93:ca:
                    7d:77:70:bf:b3:21:91:a7:b1:8f:bb:31:54:fb:4f:
                    de:f0:16:74:0d:18:1b:24:e5:d0:b2:f3:20:35:a1:
                    f7:bb:2c:42:2a:ec:d7:b0:3b:f0:17:f5:5b:15:5a:
                    6f:59:7c:3c:66:23:ad:17:96:dd:6d:5e:53:f2:c8:
                    96:96:fe:1d:17:a3:77:27:d5:50:25:47:4a:18:35:
                    c5:a7
                Exponent: 65537 (0x10001)
        X509v3 extensions:
            X509v3 Authority Key Identifier: 
                F8:8F:44:2E:89:88:3F:DF:7C:8A:43:51:3F:07:25:9B:F7:93:3B:20
            X509v3 Basic Constraints: critical
                CA:FALSE
            X509v3 Extended Key Usage: 
                TLS Web Client Authentication
            X509v3 Key Usage: critical
                Digital Signature
            X509v3 Subject Key Identifier: 
                79:E2:6A:93:72:5F:03:BF:DF:52:CE:9A:E5:BD:32:1C:81:EE:89:3E
            X509v3 Subject Alternative Name: 
                DNS:sample
    Signature Algorithm: sha256WithRSAEncryption
    Signature Value:
        49:90:64:76:e2:7e:b6:47:12:7e:e5:6d:bc:5b:88:72:0b:10:
        48:69:3e:35:81:c2:9d:46:8a:25:4c:1f:6a:67:14:f6:8c:81:
        78:ad:0f:13:d5:c0:be:14:2c:b1:18:fa:77:69:d0:a2:21:f9:
        0a:84:1e:3d:69:6a:de:62:07:4c:ba:c9:ba:4d:8b:6a:61:f8:
        52:7a:9b:40:fd:d8:5f:b4:6e:9f:ef:9d:20:de:99:82:99:0a:
        66:93:4a:3d:64:62:eb:cb:57:5b:1a:d8:31:7e:00:7f:f4:4d:
        4a:f2:0f:20:df:5a:22:d2:8f:c3:3f:f7:d4:b9:3f:af:7e:a5:
        f2:26:ef:af:42:6e:f0:6a:d0:a6:48:bb:98:b7:d9:95:f0:3f:
        07:81:74:d9:4f:1d:c2:8d:3c:ac:27:73:68:57:74:cf:e5:0a:
        36:a1:a4:a1:6a:3f:75:43:dd:76:6e:00:5c:26:6a:ac:d2:1e:
        5e:e3:e2:78:e5:da:f4:0b:80:43:7a:d1:e7:2c:a4:98:8b:73:
        02:7b:9a:6c:67:07:a9:8f:bf:e6:6c:e4:80:07:e4:c6:f0:ab:
        2c:bb:b6:ef:a3:3e:4d:a8:af:d7:d2:4a:3b:26:52:21:2b:7e:
        66:18:be:da:19:28:3b:a5:45:10:df:c1:45:85:46:9a:ea:36:
        34:54:ea:da
-----BEGIN CERTIFICATE-----
MIIDtjCCAp6gAwIBAgIQLEA8lh5Oy18/HauXmGlYszANBgkqhkiG9w0BAQsFADAb
MRkwFwYDVQQDDBBJb3RTY2hvb2wgU3ViIENBMB4XDTIzMDUwNTExMjU0MVoXDTI0
MDUwNDExMjU0MVowgYYxCzAJBgNVBAYTAkRFMRAwDgYDVQQIDAdCYXZhcmlhMRMw
EQYDVQQKDApJb1QgU2Nob29sMRUwEwYDVQQLDAxQS0kgU2VydmljZXMxDzANBgNV
BAMMBnNhbXBsZTEoMCYGCSqGSIb3DQEJARYZaW90c2Nob29sQG1haWJvcm53b2xm
Zi5kZTCCASIwDQYJKoZIhvcNAQEBBQADggEPADCCAQoCggEBALus8DYxR++ebTcX
qvG2NfBQOHwEudlHDJp71XZaeqS9UIJge0FSeAhKjeBKIBft/iOo/MNUbMCn8grS
NVJh5jmC1hUvk0hqUjYUkrkxcbNUTRWBW0HSmRfFYIOm75GvtKPXU7MdB6FFI/Xu
JYp7luKjhf5R4zfOCqoOMzGuZW19HV6TpfQIzhphBtHm8hAZtida6+SPw4I3jrJz
IOiAkeEaRK/Vw7j60FsyayFAOagU0pPKfXdwv7Mhkaexj7sxVPtP3vAWdA0YGyTl
0LLzIDWh97ssQirs17A78Bf1WxVab1l8PGYjrReW3W1eU/LIlpb+HRejdyfVUCVH
Shg1xacCAwEAAaOBiTCBhjAfBgNVHSMEGDAWgBT4j0QuiYg/33yKQ1E/ByWb95M7
IDAMBgNVHRMBAf8EAjAAMBMGA1UdJQQMMAoGCCsGAQUFBwMCMA4GA1UdDwEB/wQE
AwIHgDAdBgNVHQ4EFgQUeeJqk3JfA7/fUs6a5b0yHIHuiT4wEQYDVR0RBAowCIIG
c2FtcGxlMA0GCSqGSIb3DQEBCwUAA4IBAQBJkGR24n62RxJ+5W28W4hyCxBIaT41
gcKdRoolTB9qZxT2jIF4rQ8T1cC+FCyxGPp3adCiIfkKhB49aWreYgdMusm6TYtq
YfhSeptA/dhftG6f750g3pmCmQpmk0o9ZGLry1dbGtgxfgB/9E1K8g8g31oi0o/D
P/fUuT+vfqXyJu+vQm7watCmSLuYt9mV8D8HgXTZTx3CjTysJ3NoV3TP5Qo2oaSh
aj91Q912bgBcJmqs0h5e4+J45dr0C4BDetHnLKSYi3MCe5psZwepj7/mbOSAB+TG
8Kssu7bvoz5NqK/X0ko7JlIhK35mGL7aGSg7pUUQ38FFhUaa6jY0VOra
-----END CERTIFICATE-----
Certificate:
    Data:
        Version: 3 (0x2)
        Serial Number:
            28:f5:0d:41:d4:9d:a5:61:d6:29:42:6f:ae:28:30:c1
        Signature Algorithm: sha256WithRSAEncryption
        Issuer: CN=IotSchool Root CA
        Validity
            Not Before: Apr 25 14:02:11 2023 GMT
            Not After : Apr 22 14:02:11 2033 GMT
        Subject: CN=IotSchool Sub CA
        Subject Public Key Info:
            Public Key Algorithm: rsaEncryption
                Public-Key: (2048 bit)
                Modulus:
                    00:ce:66:6c:1b:7b:22:8b:b5:4b:54:e3:f4:81:8e:
                    b1:e2:a9:21:9a:42:28:ce:9d:a0:c6:3d:3c:01:69:
                    66:f7:2c:a2:1d:b0:56:bf:0f:f5:14:ff:7f:24:6b:
                    ab:ec:bc:82:0a:be:df:5b:a2:6d:81:42:41:da:0e:
                    f3:7a:ae:5e:1c:2a:cb:7c:6c:fa:df:78:2f:25:81:
                    ec:16:f0:d7:a1:18:95:49:ca:01:6a:6c:fd:57:32:
                    98:fb:3f:50:4b:cb:bf:17:1c:21:2b:78:61:46:a3:
                    6f:5b:16:54:12:d4:c0:39:c3:76:f5:25:72:d8:0a:
                    18:f6:9e:93:57:14:f1:42:d5:72:aa:7b:61:4f:62:
                    32:ef:30:a4:44:97:dd:ab:dc:30:84:02:4c:b0:dc:
                    f6:5d:c5:c3:9f:dc:93:24:56:5e:4a:d9:e6:f3:65:
                    fc:f2:a1:58:73:7a:d4:38:09:e8:00:e8:2f:ff:5f:
                    28:41:15:03:6d:6a:03:39:82:ab:f2:48:c1:45:17:
                    03:25:8e:9b:71:07:2f:5a:b4:b9:52:46:90:15:ab:
                    cb:87:60:b6:9d:35:bd:23:3a:8e:09:3a:54:43:77:
                    50:80:03:f7:24:33:08:25:2f:a4:0f:52:a2:e3:6f:
                    dd:17:71:b0:93:de:12:b8:95:92:7c:59:9f:bd:eb:
                    3c:4f
                Exponent: 65537 (0x10001)
        X509v3 extensions:
            X509v3 Authority Key Identifier: 
                9C:C6:5F:2E:18:33:EE:D4:16:2C:1F:E3:71:F8:98:EA:D5:22:19:EC
            X509v3 Basic Constraints: critical
                CA:TRUE, pathlen:0
            X509v3 Extended Key Usage: 
                TLS Web Client Authentication, TLS Web Server Authentication
            X509v3 Key Usage: critical
                Certificate Sign, CRL Sign
            X509v3 Subject Key Identifier: 
                F8:8F:44:2E:89:88:3F:DF:7C:8A:43:51:3F:07:25:9B:F7:93:3B:20
    Signature Algorithm: sha256WithRSAEncryption
    Signature Value:
        12:0f:f2:fe:bb:88:d1:fd:74:3e:e6:bf:72:69:ae:25:5d:83:
        79:8f:05:10:09:24:b7:4c:41:9d:a7:b6:77:0c:d6:ad:63:9a:
        31:f1:80:b9:bf:fc:f8:fb:f6:9c:d6:18:39:13:9b:1c:22:c5:
        ed:b0:02:4e:83:3e:42:bb:01:bf:48:e4:0b:69:74:af:72:f7:
        18:20:33:ad:03:cd:4f:2d:c4:6c:42:73:8f:6e:5a:8d:19:cb:
        07:2f:e1:a9:84:70:44:3f:74:f8:b2:3e:08:c0:3d:a7:3e:4a:
        8b:e0:6e:2f:5a:22:81:d1:0d:fa:36:47:05:55:c7:0b:19:cb:
        a4:93:41:18:90:c5:79:83:21:6f:10:5a:dc:fb:d4:84:f2:8d:
        4f:32:35:43:be:c2:d1:1e:13:e2:c9:47:ca:1b:a9:77:20:3f:
        ff:27:82:0d:d3:31:ec:50:6f:6d:c8:b8:bb:8d:20:59:c3:e7:
        f9:f0:a6:d2:2d:db:5b:5c:71:65:cd:55:75:a2:29:ec:b0:bb:
        b0:0f:a0:8b:1a:8c:7c:26:60:85:c5:c5:70:74:1f:ad:6f:14:
        1d:a7:84:f5:80:82:72:1c:14:88:13:50:46:d6:09:f1:a6:73:
        02:a1:46:13:c1:1d:10:60:d8:a9:dc:15:f0:a2:0d:33:be:98:
        04:d8:51:f1
-----BEGIN CERTIFICATE-----
MIIDSDCCAjCgAwIBAgIQKPUNQdSdpWHWKUJvrigwwTANBgkqhkiG9w0BAQsFADAc
MRowGAYDVQQDDBFJb3RTY2hvb2wgUm9vdCBDQTAeFw0yMzA0MjUxNDAyMTFaFw0z
MzA0MjIxNDAyMTFaMBsxGTAXBgNVBAMMEElvdFNjaG9vbCBTdWIgQ0EwggEiMA0G
CSqGSIb3DQEBAQUAA4IBDwAwggEKAoIBAQDOZmwbeyKLtUtU4/SBjrHiqSGaQijO
naDGPTwBaWb3LKIdsFa/D/UU/38ka6vsvIIKvt9bom2BQkHaDvN6rl4cKst8bPrf
eC8lgewW8NehGJVJygFqbP1XMpj7P1BLy78XHCEreGFGo29bFlQS1MA5w3b1JXLY
Chj2npNXFPFC1XKqe2FPYjLvMKREl92r3DCEAkyw3PZdxcOf3JMkVl5K2ebzZfzy
oVhzetQ4CegA6C//XyhBFQNtagM5gqvySMFFFwMljptxBy9atLlSRpAVq8uHYLad
Nb0jOo4JOlRDd1CAA/ckMwglL6QPUqLjb90XcbCT3hK4lZJ8WZ+96zxPAgMBAAGj
gYYwgYMwHwYDVR0jBBgwFoAUnMZfLhgz7tQWLB/jcfiY6tUiGewwEgYDVR0TAQH/
BAgwBgEB/wIBADAdBgNVHSUEFjAUBggrBgEFBQcDAgYIKwYBBQUHAwEwDgYDVR0P
AQH/BAQDAgEGMB0GA1UdDgQWBBT4j0QuiYg/33yKQ1E/ByWb95M7IDANBgkqhkiG
9w0BAQsFAAOCAQEAEg/y/ruI0f10Pua/cmmuJV2DeY8FEAkkt0xBnae2dwzWrWOa
MfGAub/8+Pv2nNYYORObHCLF7bACToM+QrsBv0jkC2l0r3L3GCAzrQPNTy3EbEJz
j25ajRnLBy/hqYRwRD90+LI+CMA9pz5Ki+BuL1oigdEN+jZHBVXHCxnLpJNBGJDF
eYMhbxBa3PvUhPKNTzI1Q77C0R4T4slHyhupdyA//yeCDdMx7FBvbci4u40gWcPn
+fCm0i3bW1xxZc1VdaIp7LC7sA+gixqMfCZghcXFcHQfrW8UHaeE9YCCchwUiBNQ
RtYJ8aZzAqFGE8EdEGDYqdwV8KINM76YBNhR8Q==
-----END CERTIFICATE-----
