Certificate:
    Data:
        Version: 3 (0x2)
        Serial Number:
            2c:40:3c:96:1e:4e:cb:5f:3f:1d:ab:97:98:69:58:a5
        Signature Algorithm: sha256WithRSAEncryption
        Issuer: CN=IotSchool Sub CA
        Validity
            Not Before: May  5 11:24:39 2023 GMT
            Not After : May  4 11:24:39 2024 GMT
        Subject: C=DE, ST=Bavaria, O=IoT School, OU=PKI Services, CN=sample/emailAddress=iotschool@maibornwolff.de
        Subject Public Key Info:
            Public Key Algorithm: rsaEncryption
                Public-Key: (2048 bit)
                Modulus:
                    00:9e:2d:58:68:a9:e4:08:b8:22:a8:0f:ac:41:f3:
                    df:10:6b:4f:86:22:e2:74:e3:b0:18:aa:8f:85:c0:
                    f3:87:1a:75:f5:22:9a:eb:1b:b5:2f:46:55:dd:5b:
                    66:7b:20:6e:b9:79:d7:5f:06:4b:19:85:af:db:ec:
                    8a:a6:16:e1:67:e5:ef:a1:6a:6c:a2:fd:8e:c3:5d:
                    4a:5d:89:93:65:dd:75:07:d2:e9:2d:0c:05:38:b6:
                    fc:8e:bf:6e:c4:3b:6a:51:07:c6:a1:a2:84:87:bc:
                    16:85:a2:11:2b:e5:68:bc:e6:6d:fa:2e:4d:2d:33:
                    31:56:db:31:87:2e:e1:86:a6:1f:a7:7c:3d:a9:8b:
                    a6:9a:d8:6b:30:4d:9a:96:7b:04:6a:fe:87:78:b3:
                    57:31:dc:7a:95:f8:ef:89:ab:05:b8:ce:1b:84:45:
                    b6:7e:86:67:0b:7f:d5:6f:20:4e:4a:1c:b7:70:c0:
                    85:29:a4:8a:32:f7:6a:06:12:17:40:ac:90:0e:1c:
                    5b:f2:11:30:53:c8:13:fa:b3:0d:33:da:00:fc:21:
                    6f:c5:f9:ac:67:e8:d1:35:b9:88:e5:a5:43:df:0c:
                    a6:eb:b1:34:b5:a3:67:ad:8a:e5:45:c5:66:0c:fe:
                    ae:fc:a6:c7:af:c0:aa:19:f6:8b:a5:b0:c2:61:f8:
                    fe:91
                Exponent: 65537 (0x10001)
        X509v3 extensions:
            X509v3 Authority Key Identifier: 
                01:84:CC:4E:74:16:93:1B:BA:9A:C1:B6:23:29:BF:0D:3E:03:36:C5
            X509v3 Basic Constraints: critical
                CA:FALSE
            X509v3 Extended Key Usage: 
                TLS Web Client Authentication
            X509v3 Key Usage: critical
                Digital Signature
            X509v3 Subject Key Identifier: 
                07:76:6E:EC:BE:6E:AE:CD:65:84:88:C1:42:C5:1A:D2:AE:47:30:F8
            X509v3 Subject Alternative Name: 
                DNS:sample
    Signature Algorithm: sha256WithRSAEncryption
    Signature Value:
        64:13:0e:7b:ae:ea:94:cb:20:32:f1:a0:fe:6f:e5:c9:08:9b:
        96:1e:76:62:72:9f:60:d1:47:cc:71:ca:11:d7:c6:22:0a:73:
        13:b7:ec:7f:59:43:21:9b:dd:ae:00:1b:0c:b0:5b:85:d2:93:
        59:3f:ba:1d:74:52:ee:1c:ef:ee:4b:59:4f:72:56:9e:55:dd:
        b8:70:a0:a0:fd:81:dd:5d:3b:ab:d4:17:ae:7b:08:d1:c4:a5:
        59:9c:4a:f4:e8:55:47:19:6e:ca:65:3b:42:f4:24:2a:6a:ab:
        26:b4:25:3f:2f:cb:cb:e9:b7:b3:58:9e:cb:36:fb:ac:82:a6:
        fb:b1:ef:5e:19:ba:48:14:fa:13:99:03:62:64:f2:2b:99:a0:
        aa:33:f3:62:fc:c0:8b:82:6b:53:36:9b:6e:8a:ce:2b:4b:f6:
        ba:6c:49:12:c0:1c:92:c2:48:71:52:2c:a4:a1:f0:11:94:48:
        bb:db:e7:aa:06:64:c0:d3:a1:04:a6:7e:3f:5b:e5:0e:35:d3:
        aa:a5:2b:83:ac:97:d6:14:d5:9e:28:fa:1c:ac:af:8f:e7:20:
        71:64:fc:6a:c5:b7:96:36:83:bb:c6:0f:b7:a8:71:81:d5:72:
        d8:7f:34:86:2d:d4:52:45:1c:cd:00:46:0c:ea:6f:54:c7:ae:
        6e:f0:56:84
-----BEGIN CERTIFICATE-----
MIIDtjCCAp6gAwIBAgIQLEA8lh5Oy18/HauXmGlYpTANBgkqhkiG9w0BAQsFADAb
MRkwFwYDVQQDDBBJb3RTY2hvb2wgU3ViIENBMB4XDTIzMDUwNTExMjQzOVoXDTI0
MDUwNDExMjQzOVowgYYxCzAJBgNVBAYTAkRFMRAwDgYDVQQIDAdCYXZhcmlhMRMw
EQYDVQQKDApJb1QgU2Nob29sMRUwEwYDVQQLDAxQS0kgU2VydmljZXMxDzANBgNV
BAMMBnNhbXBsZTEoMCYGCSqGSIb3DQEJARYZaW90c2Nob29sQG1haWJvcm53b2xm
Zi5kZTCCASIwDQYJKoZIhvcNAQEBBQADggEPADCCAQoCggEBAJ4tWGip5Ai4IqgP
rEHz3xBrT4Yi4nTjsBiqj4XA84cadfUimusbtS9GVd1bZnsgbrl5118GSxmFr9vs
iqYW4Wfl76FqbKL9jsNdSl2Jk2XddQfS6S0MBTi2/I6/bsQ7alEHxqGihIe8FoWi
ESvlaLzmbfouTS0zMVbbMYcu4YamH6d8PamLpprYazBNmpZ7BGr+h3izVzHcepX4
74mrBbjOG4RFtn6GZwt/1W8gTkoct3DAhSmkijL3agYSF0CskA4cW/IRMFPIE/qz
DTPaAPwhb8X5rGfo0TW5iOWlQ98MpuuxNLWjZ62K5UXFZgz+rvymx6/Aqhn2i6Ww
wmH4/pECAwEAAaOBiTCBhjAfBgNVHSMEGDAWgBQBhMxOdBaTG7qawbYjKb8NPgM2
xTAMBgNVHRMBAf8EAjAAMBMGA1UdJQQMMAoGCCsGAQUFBwMCMA4GA1UdDwEB/wQE
AwIHgDAdBgNVHQ4EFgQUB3Zu7L5urs1lhIjBQsUa0q5HMPgwEQYDVR0RBAowCIIG
c2FtcGxlMA0GCSqGSIb3DQEBCwUAA4IBAQBkEw57ruqUyyAy8aD+b+XJCJuWHnZi
cp9g0UfMccoR18YiCnMTt+x/WUMhm92uABsMsFuF0pNZP7oddFLuHO/uS1lPclae
Vd24cKCg/YHdXTur1BeuewjRxKVZnEr06FVHGW7KZTtC9CQqaqsmtCU/L8vL6bez
WJ7LNvusgqb7se9eGbpIFPoTmQNiZPIrmaCqM/Ni/MCLgmtTNptuis4rS/a6bEkS
wBySwkhxUiykofARlEi72+eqBmTA06EEpn4/W+UONdOqpSuDrJfWFNWeKPocrK+P
5yBxZPxqxbeWNoO7xg+3qHGB1XLYfzSGLdRSRRzNAEYM6m9Ux65u8FaE
-----END CERTIFICATE-----
Certificate:
    Data:
        Version: 3 (0x2)
        Serial Number:
            9c:59:70:53:f0:06:c3:bc:cc:ac:aa:bc:e5:1a:04:f7
        Signature Algorithm: sha256WithRSAEncryption
        Issuer: CN=IotSchool Root CA
        Validity
            Not Before: Apr 25 14:38:11 2023 GMT
            Not After : Apr 22 14:38:11 2033 GMT
        Subject: CN=IotSchool Sub CA
        Subject Public Key Info:
            Public Key Algorithm: rsaEncryption
                Public-Key: (2048 bit)
                Modulus:
                    00:97:9e:5d:3e:15:17:3b:58:d9:74:fa:75:00:2e:
                    ac:8c:96:6e:f5:47:a8:db:59:8d:4e:3b:f8:5e:0b:
                    bb:92:b6:83:ba:ce:fd:ae:06:2a:a2:86:b0:21:12:
                    a6:a7:2d:67:1e:b2:a3:51:2e:57:45:03:05:1b:b9:
                    aa:b3:ab:d0:5d:a9:7d:51:7b:b8:75:3b:59:98:41:
                    38:30:ff:ab:fc:16:b5:0c:ee:a3:22:ee:c2:37:c3:
                    a3:72:88:d2:d2:ee:6e:48:73:ae:cb:cf:9f:e8:50:
                    6c:48:21:6e:f0:35:f7:1c:82:ed:bf:f6:2f:7c:7e:
                    eb:df:83:d3:be:ec:bb:6a:b1:99:27:f5:9f:1b:12:
                    2a:08:c2:7c:99:fb:99:1d:bd:8b:d5:7b:5e:f9:03:
                    2e:fc:e6:8f:93:a5:36:ff:98:1a:fa:f0:e5:e4:82:
                    b2:0b:41:da:46:12:5e:5d:18:fe:0c:70:de:f2:33:
                    62:4a:b6:1a:5c:be:3d:fa:19:4a:2d:07:13:8b:27:
                    56:5f:fb:82:75:cb:2a:55:c8:6f:47:fa:92:e7:86:
                    a6:9b:b4:b7:f3:51:d6:0c:c5:71:70:f1:71:88:31:
                    f2:5a:b4:9a:2f:f0:bf:a9:eb:ae:54:80:86:41:72:
                    05:7b:c2:6a:5c:17:62:ca:db:90:81:42:15:fc:1a:
                    d3:a7
                Exponent: 65537 (0x10001)
        X509v3 extensions:
            X509v3 Authority Key Identifier: 
                9C:C6:5F:2E:18:33:EE:D4:16:2C:1F:E3:71:F8:98:EA:D5:22:19:EC
            X509v3 Basic Constraints: critical
                CA:TRUE, pathlen:0
            X509v3 Extended Key Usage: 
                TLS Web Client Authentication, TLS Web Server Authentication
            X509v3 Key Usage: critical
                Certificate Sign, CRL Sign
            X509v3 Subject Key Identifier: 
                01:84:CC:4E:74:16:93:1B:BA:9A:C1:B6:23:29:BF:0D:3E:03:36:C5
    Signature Algorithm: sha256WithRSAEncryption
    Signature Value:
        22:e8:82:c7:3d:30:e5:12:76:45:6a:1c:99:9e:5d:65:bf:93:
        1e:1f:40:74:22:d4:9e:ab:3d:59:29:f0:1e:8b:f6:ef:f1:ee:
        9d:78:d2:4c:ad:2d:c0:b5:4a:ec:e7:72:82:56:7f:16:dd:fd:
        41:06:ee:90:69:c3:f3:de:82:fc:7a:d2:b0:6d:c6:92:a3:dd:
        92:76:62:99:94:26:c8:61:61:23:9d:ed:51:62:d5:8c:a6:9e:
        a2:6f:3c:40:08:ba:05:34:64:b5:d4:eb:1c:61:a5:0e:06:69:
        a3:2c:90:d6:b5:74:4a:aa:4b:4b:44:d7:ce:66:e8:c9:53:df:
        44:a5:51:59:d2:73:8f:36:f0:00:82:54:77:d8:39:ec:a3:14:
        ac:47:cd:71:d7:5e:24:9a:b1:b0:a7:19:af:f1:ff:90:35:21:
        95:a3:f4:fa:b9:04:2a:23:0b:ec:34:21:97:39:65:c1:bb:6e:
        c5:41:b5:e7:bc:bb:44:bc:63:c5:6c:a8:55:3b:c2:80:b8:e8:
        30:f7:e1:35:a7:54:58:74:32:f0:44:14:d7:e1:43:34:93:61:
        c8:cb:25:59:2b:cf:5a:45:f0:f5:f3:fa:e1:ef:bc:bd:a0:41:
        f1:bf:5f:92:b4:52:58:a3:4d:9c:ee:ea:c0:34:0c:65:f5:79:
        b9:42:8d:e4
-----BEGIN CERTIFICATE-----
MIIDSTCCAjGgAwIBAgIRAJxZcFPwBsO8zKyqvOUaBPcwDQYJKoZIhvcNAQELBQAw
HDEaMBgGA1UEAwwRSW90U2Nob29sIFJvb3QgQ0EwHhcNMjMwNDI1MTQzODExWhcN
MzMwNDIyMTQzODExWjAbMRkwFwYDVQQDDBBJb3RTY2hvb2wgU3ViIENBMIIBIjAN
BgkqhkiG9w0BAQEFAAOCAQ8AMIIBCgKCAQEAl55dPhUXO1jZdPp1AC6sjJZu9Ueo
21mNTjv4Xgu7kraDus79rgYqooawIRKmpy1nHrKjUS5XRQMFG7mqs6vQXal9UXu4
dTtZmEE4MP+r/Ba1DO6jIu7CN8OjcojS0u5uSHOuy8+f6FBsSCFu8DX3HILtv/Yv
fH7r34PTvuy7arGZJ/WfGxIqCMJ8mfuZHb2L1Xte+QMu/OaPk6U2/5ga+vDl5IKy
C0HaRhJeXRj+DHDe8jNiSrYaXL49+hlKLQcTiydWX/uCdcsqVchvR/qS54amm7S3
81HWDMVxcPFxiDHyWrSaL/C/qeuuVICGQXIFe8JqXBdiytuQgUIV/BrTpwIDAQAB
o4GGMIGDMB8GA1UdIwQYMBaAFJzGXy4YM+7UFiwf43H4mOrVIhnsMBIGA1UdEwEB
/wQIMAYBAf8CAQAwHQYDVR0lBBYwFAYIKwYBBQUHAwIGCCsGAQUFBwMBMA4GA1Ud
DwEB/wQEAwIBBjAdBgNVHQ4EFgQUAYTMTnQWkxu6msG2Iym/DT4DNsUwDQYJKoZI
hvcNAQELBQADggEBACLogsc9MOUSdkVqHJmeXWW/kx4fQHQi1J6rPVkp8B6L9u/x
7p140kytLcC1SuzncoJWfxbd/UEG7pBpw/Pegvx60rBtxpKj3ZJ2YpmUJshhYSOd
7VFi1YymnqJvPEAIugU0ZLXU6xxhpQ4GaaMskNa1dEqqS0tE185m6MlT30SlUVnS
c4828ACCVHfYOeyjFKxHzXHXXiSasbCnGa/x/5A1IZWj9Pq5BCojC+w0IZc5ZcG7
bsVBtee8u0S8Y8VsqFU7woC46DD34TWnVFh0MvBEFNfhQzSTYcjLJVkrz1pF8PXz
+uHvvL2gQfG/X5K0UlijTZzu6sA0DGX1eblCjeQ=
-----END CERTIFICATE-----
