Certificate:
    Data:
        Version: 3 (0x2)
        Serial Number:
            2c:40:3c:96:1e:4e:cb:5f:3f:1d:ab:97:98:69:58:a9
        Signature Algorithm: sha256WithRSAEncryption
        Issuer: CN=IotSchool Sub CA
        Validity
            Not Before: May  5 11:24:43 2023 GMT
            Not After : May  4 11:24:43 2024 GMT
        Subject: C=DE, ST=Bavaria, O=IoT School, OU=PKI Services, CN=sample/emailAddress=iotschool@maibornwolff.de
        Subject Public Key Info:
            Public Key Algorithm: rsaEncryption
                Public-Key: (2048 bit)
                Modulus:
                    00:d8:57:88:18:c3:76:09:ec:65:7b:aa:6a:2c:bf:
                    04:e3:11:c8:9f:bb:e9:91:7a:30:29:ba:64:2f:19:
                    b9:9e:16:4a:76:74:eb:4f:fa:9d:ab:a7:8e:e4:81:
                    81:39:b1:41:3c:af:dc:43:63:bc:8e:ff:99:b0:05:
                    c9:b7:d2:83:90:a5:1b:05:8b:26:55:30:c1:07:4a:
                    3f:0d:48:f5:6e:f6:cc:b8:d5:40:8a:67:dd:bf:83:
                    d4:17:85:b3:29:ac:f0:49:7c:5c:d3:b5:d2:5a:42:
                    a9:6f:25:3e:03:be:ac:d1:3e:a2:23:35:92:a3:1e:
                    aa:5c:5d:43:04:ab:95:41:8c:77:2a:39:ac:b5:e9:
                    3f:3f:92:b5:61:41:e2:2b:b4:e5:b9:11:1f:94:cf:
                    ea:53:be:46:4e:55:61:b4:0f:88:19:f6:ad:49:c7:
                    68:f2:10:ea:67:0a:53:e9:c7:af:a7:6d:48:8f:28:
                    00:25:08:55:eb:49:2e:20:d6:98:4f:23:a1:90:e8:
                    dc:d8:73:16:b1:0d:80:f5:7b:88:6c:85:75:d5:51:
                    c3:86:11:3d:b9:fd:fe:26:15:76:26:97:4a:a5:a8:
                    92:51:a1:33:bc:a0:03:c7:42:c7:bb:ae:34:36:c0:
                    5c:83:14:af:64:57:41:cd:f4:d5:13:05:f5:f5:55:
                    16:33
                Exponent: 65537 (0x10001)
        X509v3 extensions:
            X509v3 Authority Key Identifier: 
                AE:3E:25:DF:4B:91:C7:6C:4A:7B:82:D0:59:D1:E2:72:6C:9F:D9:E2
            X509v3 Basic Constraints: critical
                CA:FALSE
            X509v3 Extended Key Usage: 
                TLS Web Client Authentication
            X509v3 Key Usage: critical
                Digital Signature
            X509v3 Subject Key Identifier: 
                1F:2F:DE:71:60:60:8E:EC:1F:64:80:C2:E1:07:CC:13:14:5D:25:6A
            X509v3 Subject Alternative Name: 
                DNS:sample
    Signature Algorithm: sha256WithRSAEncryption
    Signature Value:
        51:47:4a:d6:a4:8b:7d:2b:f6:70:cb:d5:3f:22:1a:7e:76:70:
        b7:1f:09:d4:a3:eb:18:ae:9c:1d:c8:1e:11:4d:3d:92:df:a0:
        18:bc:1e:6e:0d:cd:34:29:86:3d:77:dd:a0:a8:88:51:37:9e:
        18:3f:93:72:b3:00:fb:09:19:ee:0d:b5:6b:9e:a1:09:f3:d9:
        37:a6:9f:2a:c8:12:af:9a:f4:63:b0:7a:d8:ff:6d:1f:6a:66:
        fc:76:94:f9:36:a2:e5:81:1b:fa:8a:6f:5f:aa:38:78:c0:1b:
        1d:97:86:15:34:52:bb:9e:73:e0:86:29:ba:ac:eb:e2:91:1d:
        6e:64:47:4f:b4:0d:b8:de:c5:52:ea:5f:f7:d8:29:c7:fd:3d:
        86:20:f9:17:e7:d2:c2:06:83:13:9c:95:7d:4b:b5:c7:12:42:
        1d:38:e1:1d:8a:d8:26:d2:f2:50:63:e7:46:14:9c:29:6d:1d:
        a3:00:cb:57:34:cc:95:f3:9f:13:8e:76:4d:5b:0e:ad:8c:d6:
        67:37:67:31:99:cd:e3:a7:41:8a:a5:46:00:be:cb:77:1f:17:
        5f:b3:aa:cb:d5:92:f6:30:55:f1:d2:43:af:c2:3d:99:3b:e6:
        03:b6:2e:e8:a3:d2:9a:df:be:55:af:df:c5:1c:53:66:59:3d:
        68:8f:bc:d2
-----BEGIN CERTIFICATE-----
MIIDtjCCAp6gAwIBAgIQLEA8lh5Oy18/HauXmGlYqTANBgkqhkiG9w0BAQsFADAb
MRkwFwYDVQQDDBBJb3RTY2hvb2wgU3ViIENBMB4XDTIzMDUwNTExMjQ0M1oXDTI0
MDUwNDExMjQ0M1owgYYxCzAJBgNVBAYTAkRFMRAwDgYDVQQIDAdCYXZhcmlhMRMw
EQYDVQQKDApJb1QgU2Nob29sMRUwEwYDVQQLDAxQS0kgU2VydmljZXMxDzANBgNV
BAMMBnNhbXBsZTEoMCYGCSqGSIb3DQEJARYZaW90c2Nob29sQG1haWJvcm53b2xm
Zi5kZTCCASIwDQYJKoZIhvcNAQEBBQADggEPADCCAQoCggEBANhXiBjDdgnsZXuq
aiy/BOMRyJ+76ZF6MCm6ZC8ZuZ4WSnZ060/6naunjuSBgTmxQTyv3ENjvI7/mbAF
ybfSg5ClGwWLJlUwwQdKPw1I9W72zLjVQIpn3b+D1BeFsyms8El8XNO10lpCqW8l
PgO+rNE+oiM1kqMeqlxdQwSrlUGMdyo5rLXpPz+StWFB4iu05bkRH5TP6lO+Rk5V
YbQPiBn2rUnHaPIQ6mcKU+nHr6dtSI8oACUIVetJLiDWmE8joZDo3NhzFrENgPV7
iGyFddVRw4YRPbn9/iYVdiaXSqWoklGhM7ygA8dCx7uuNDbAXIMUr2RXQc301RMF
9fVVFjMCAwEAAaOBiTCBhjAfBgNVHSMEGDAWgBSuPiXfS5HHbEp7gtBZ0eJybJ/Z
4jAMBgNVHRMBAf8EAjAAMBMGA1UdJQQMMAoGCCsGAQUFBwMCMA4GA1UdDwEB/wQE
AwIHgDAdBgNVHQ4EFgQUHy/ecWBgjuwfZIDC4QfMExRdJWowEQYDVR0RBAowCIIG
c2FtcGxlMA0GCSqGSIb3DQEBCwUAA4IBAQBRR0rWpIt9K/Zwy9U/Ihp+dnC3HwnU
o+sYrpwdyB4RTT2S36AYvB5uDc00KYY9d92gqIhRN54YP5NyswD7CRnuDbVrnqEJ
89k3pp8qyBKvmvRjsHrY/20famb8dpT5NqLlgRv6im9fqjh4wBsdl4YVNFK7nnPg
him6rOvikR1uZEdPtA243sVS6l/32CnH/T2GIPkX59LCBoMTnJV9S7XHEkIdOOEd
itgm0vJQY+dGFJwpbR2jAMtXNMyV858TjnZNWw6tjNZnN2cxmc3jp0GKpUYAvst3
Hxdfs6rL1ZL2MFXx0kOvwj2ZO+YDti7oo9Ka375Vr9/FHFNmWT1oj7zS
-----END CERTIFICATE-----
Certificate:
    Data:
        Version: 3 (0x2)
        Serial Number:
            1f:4c:9e:eb:bf:b0:0e:87:66:b9:55:48:c6:bd:a3:77
        Signature Algorithm: sha256WithRSAEncryption
        Issuer: CN=IotSchool Root CA
        Validity
            Not Before: Apr 25 14:05:32 2023 GMT
            Not After : Apr 22 14:05:32 2033 GMT
        Subject: CN=IotSchool Sub CA
        Subject Public Key Info:
            Public Key Algorithm: rsaEncryption
                Public-Key: (2048 bit)
                Modulus:
                    00:f9:7d:2b:d3:fc:d4:69:f5:e4:37:75:d3:ac:94:
                    07:6c:29:72:9b:44:3a:7d:34:c0:d4:ab:72:fb:5a:
                    01:4e:12:da:78:56:3f:3b:f9:3b:31:e9:df:63:b9:
                    65:83:43:23:fe:bd:da:e3:99:8b:43:4d:a8:1e:f1:
                    34:a9:2f:21:cf:4f:d0:06:91:0f:2c:b1:f0:be:f3:
                    6a:a5:ea:22:5b:ff:b5:75:55:f5:08:12:44:b2:6f:
                    d3:4d:78:59:82:b3:e9:7c:ab:e3:8f:69:8d:4d:cb:
                    7d:91:99:77:55:03:b7:5d:a9:a4:cb:59:25:4a:1b:
                    6f:1e:b8:6a:bc:c4:1a:02:8d:99:31:7c:32:82:9a:
                    d5:c6:1d:cf:68:a2:9d:96:7c:59:bb:9d:2a:7a:81:
                    a0:3a:e7:f8:d8:a3:e1:f2:59:dd:6c:6c:84:da:c3:
                    fd:f3:02:c5:fb:39:e3:33:c7:ee:c8:2f:ff:3d:fa:
                    ae:b7:6a:0b:7f:6a:29:a6:55:c9:09:b0:ae:b7:73:
                    e9:76:a1:78:d2:be:f3:aa:1e:37:99:8e:f9:fa:6d:
                    8a:e8:b4:bb:dc:c6:fb:bd:17:ad:10:7d:6f:71:ba:
                    62:a4:3c:6e:fd:03:28:92:0e:76:c9:cc:c8:f7:a8:
                    eb:9d:b9:0a:f7:db:ce:a4:32:f5:3f:48:72:86:cb:
                    b2:25
                Exponent: 65537 (0x10001)
        X509v3 extensions:
            X509v3 Authority Key Identifier: 
                9C:C6:5F:2E:18:33:EE:D4:16:2C:1F:E3:71:F8:98:EA:D5:22:19:EC
            X509v3 Basic Constraints: critical
                CA:TRUE, pathlen:0
            X509v3 Extended Key Usage: 
                TLS Web Client Authentication, TLS Web Server Authentication
            X509v3 Key Usage: critical
                Certificate Sign, CRL Sign
            X509v3 Subject Key Identifier: 
                AE:3E:25:DF:4B:91:C7:6C:4A:7B:82:D0:59:D1:E2:72:6C:9F:D9:E2
    Signature Algorithm: sha256WithRSAEncryption
    Signature Value:
        08:43:6b:72:e6:5a:42:e8:a1:59:a1:b3:cc:06:a5:87:98:bb:
        af:6d:e1:af:11:72:ff:43:66:2b:5b:fa:87:a3:e9:d8:d5:d5:
        2d:20:83:b0:22:3a:44:c8:40:05:fb:9c:5c:74:b2:a6:9a:90:
        34:0e:af:de:ec:ed:28:17:9e:fe:34:9b:a4:0d:22:14:ee:4d:
        b1:e6:c1:31:09:05:56:92:4d:1c:4b:dd:4d:ad:ae:e3:ee:47:
        9a:4a:0d:fe:2a:2b:7a:6e:58:93:16:b6:97:44:50:a9:7c:5b:
        40:cc:c2:11:99:6e:d7:05:12:60:6f:5b:d6:a8:af:6e:02:76:
        d9:eb:f1:df:77:1f:08:47:0c:c3:0f:a2:5c:f2:42:54:5b:6f:
        f5:d5:2f:e8:f5:c4:43:f5:ad:b9:0b:8a:39:ad:f6:c2:81:97:
        49:ce:aa:7e:8a:34:1a:eb:85:77:16:56:8a:86:a8:d4:5b:89:
        8a:ea:91:8c:c2:e5:35:7f:77:70:23:46:6b:6b:ec:65:69:e2:
        7a:d1:b8:c2:3e:76:4b:24:11:86:d2:5b:17:79:02:b1:ca:1a:
        93:02:82:d5:d7:5c:13:8b:2c:cd:a2:88:1c:89:0c:1b:e2:d7:
        10:c2:a6:56:71:af:9f:c8:14:15:bb:4e:10:52:0d:2d:97:b8:
        3a:38:74:00
-----BEGIN CERTIFICATE-----
MIIDSDCCAjCgAwIBAgIQH0ye67+wDodmuVVIxr2jdzANBgkqhkiG9w0BAQsFADAc
MRowGAYDVQQDDBFJb3RTY2hvb2wgUm9vdCBDQTAeFw0yMzA0MjUxNDA1MzJaFw0z
MzA0MjIxNDA1MzJaMBsxGTAXBgNVBAMMEElvdFNjaG9vbCBTdWIgQ0EwggEiMA0G
CSqGSIb3DQEBAQUAA4IBDwAwggEKAoIBAQD5fSvT/NRp9eQ3ddOslAdsKXKbRDp9
NMDUq3L7WgFOEtp4Vj87+Tsx6d9juWWDQyP+vdrjmYtDTage8TSpLyHPT9AGkQ8s
sfC+82ql6iJb/7V1VfUIEkSyb9NNeFmCs+l8q+OPaY1Ny32RmXdVA7ddqaTLWSVK
G28euGq8xBoCjZkxfDKCmtXGHc9oop2WfFm7nSp6gaA65/jYo+HyWd1sbITaw/3z
AsX7OeMzx+7IL/89+q63agt/aimmVckJsK63c+l2oXjSvvOqHjeZjvn6bYrotLvc
xvu9F60QfW9xumKkPG79AyiSDnbJzMj3qOuduQr3286kMvU/SHKGy7IlAgMBAAGj
gYYwgYMwHwYDVR0jBBgwFoAUnMZfLhgz7tQWLB/jcfiY6tUiGewwEgYDVR0TAQH/
BAgwBgEB/wIBADAdBgNVHSUEFjAUBggrBgEFBQcDAgYIKwYBBQUHAwEwDgYDVR0P
AQH/BAQDAgEGMB0GA1UdDgQWBBSuPiXfS5HHbEp7gtBZ0eJybJ/Z4jANBgkqhkiG
9w0BAQsFAAOCAQEACENrcuZaQuihWaGzzAalh5i7r23hrxFy/0NmK1v6h6Pp2NXV
LSCDsCI6RMhABfucXHSyppqQNA6v3uztKBee/jSbpA0iFO5NsebBMQkFVpJNHEvd
Ta2u4+5HmkoN/iorem5Ykxa2l0RQqXxbQMzCEZlu1wUSYG9b1qivbgJ22evx33cf
CEcMww+iXPJCVFtv9dUv6PXEQ/WtuQuKOa32woGXSc6qfoo0GuuFdxZWioao1FuJ
iuqRjMLlNX93cCNGa2vsZWnietG4wj52SyQRhtJbF3kCscoakwKC1ddcE4sszaKI
HIkMG+LXEMKmVnGvn8gUFbtOEFINLZe4Ojh0AA==
-----END CERTIFICATE-----
