Certificate:
    Data:
        Version: 3 (0x2)
        Serial Number:
            2c:40:3c:96:1e:4e:cb:5f:3f:1d:ab:97:98:69:58:b8
        Signature Algorithm: sha256WithRSAEncryption
        Issuer: CN=IotSchool Sub CA
        Validity
            Not Before: May  5 11:25:55 2023 GMT
            Not After : May  4 11:25:55 2024 GMT
        Subject: C=DE, ST=Bavaria, O=IoT School, OU=PKI Services, CN=sample/emailAddress=iotschool@maibornwolff.de
        Subject Public Key Info:
            Public Key Algorithm: rsaEncryption
                Public-Key: (2048 bit)
                Modulus:
                    00:cc:97:b6:85:10:73:bb:25:df:99:49:5d:38:20:
                    f1:59:66:b3:d8:f0:2c:07:e4:f5:f7:89:f6:38:e1:
                    68:55:6b:5a:2e:0e:91:0e:2f:70:da:1d:60:16:a4:
                    d7:73:dc:24:ee:ea:c4:ff:48:c4:01:ed:c0:31:43:
                    ec:38:56:8d:d7:c1:72:33:e1:6f:6b:b3:6f:d9:49:
                    a3:5a:a2:00:e8:58:c4:ab:ad:fa:96:02:39:fc:92:
                    36:cf:de:99:ca:96:ce:8c:d4:46:22:a8:21:4a:3d:
                    dd:68:b8:cb:be:53:93:e0:50:ed:04:40:c1:30:88:
                    5c:47:c7:7c:74:8a:9d:6d:ad:e6:5b:0e:d2:4f:9f:
                    5e:eb:30:5b:ab:6b:26:29:64:f5:9b:8f:40:a8:c0:
                    f7:58:50:15:e1:02:de:bb:fd:42:84:0d:55:8f:a1:
                    5f:cd:a1:96:1b:71:f1:db:b0:0c:d2:1f:4c:82:18:
                    59:6c:b1:a2:ab:17:44:c6:c1:23:a9:e7:62:c1:67:
                    70:0f:4e:6b:bb:79:ef:56:35:86:df:9a:c6:7e:22:
                    a7:78:09:f4:9d:4a:c0:27:a7:61:31:82:fc:b2:98:
                    1e:d1:df:80:76:f6:02:68:90:f0:0e:14:fa:eb:a4:
                    d2:7e:df:15:f8:7f:79:ab:a8:2c:e3:64:49:c6:20:
                    f1:39
                Exponent: 65537 (0x10001)
        X509v3 extensions:
            X509v3 Authority Key Identifier: 
                C1:22:82:05:7C:3F:71:28:5E:9E:B2:67:19:2F:BE:24:F8:C1:BF:8E
            X509v3 Basic Constraints: critical
                CA:FALSE
            X509v3 Extended Key Usage: 
                TLS Web Client Authentication
            X509v3 Key Usage: critical
                Digital Signature
            X509v3 Subject Key Identifier: 
                79:CB:9D:1D:17:B5:AE:A0:A4:00:80:C8:41:BE:0E:3E:F8:E9:0D:1D
            X509v3 Subject Alternative Name: 
                DNS:sample
    Signature Algorithm: sha256WithRSAEncryption
    Signature Value:
        7e:5e:e2:24:d0:84:c6:da:54:ba:44:9c:2b:a3:5d:99:74:c4:
        3c:85:b4:c3:85:59:6a:3e:ce:01:05:76:a8:9c:78:60:8c:30:
        16:0a:65:8f:11:10:e6:e3:27:1e:55:31:07:1b:f4:bf:af:ff:
        59:f6:27:33:14:0c:97:89:34:12:9e:18:3e:f4:9b:1b:b4:13:
        63:56:13:55:27:54:e9:c2:35:b0:99:05:0f:45:9b:a7:1c:15:
        c4:9e:62:05:5f:5c:05:40:d2:43:b9:b2:e4:73:d2:35:d5:ce:
        c8:23:0d:5c:ca:0e:d0:1a:f7:37:96:12:ae:4a:b5:be:e9:59:
        5b:c6:e8:3c:62:c9:da:b4:3a:02:fa:8c:b4:e5:08:21:74:5c:
        3f:97:7e:d8:8a:d0:7a:a9:da:72:f3:88:d3:78:10:43:45:5f:
        ab:53:d8:6a:06:65:13:3c:e6:4b:8e:a6:6f:e4:7e:c6:0f:49:
        a2:83:01:73:ec:06:d6:bf:f7:54:b6:8b:83:5a:e6:7c:0a:4a:
        9c:ee:e1:a3:e5:7f:3e:ec:9a:4a:7d:ec:d2:fe:bb:ac:6d:de:
        27:d4:5b:d6:03:46:7d:55:04:08:00:e9:aa:99:2b:4c:10:34:
        de:f9:e8:c6:59:e3:5f:03:f2:f3:ec:33:b1:d2:f0:bd:24:2f:
        43:26:ef:29
-----BEGIN CERTIFICATE-----
MIIDtjCCAp6gAwIBAgIQLEA8lh5Oy18/HauXmGlYuDANBgkqhkiG9w0BAQsFADAb
MRkwFwYDVQQDDBBJb3RTY2hvb2wgU3ViIENBMB4XDTIzMDUwNTExMjU1NVoXDTI0
MDUwNDExMjU1NVowgYYxCzAJBgNVBAYTAkRFMRAwDgYDVQQIDAdCYXZhcmlhMRMw
EQYDVQQKDApJb1QgU2Nob29sMRUwEwYDVQQLDAxQS0kgU2VydmljZXMxDzANBgNV
BAMMBnNhbXBsZTEoMCYGCSqGSIb3DQEJARYZaW90c2Nob29sQG1haWJvcm53b2xm
Zi5kZTCCASIwDQYJKoZIhvcNAQEBBQADggEPADCCAQoCggEBAMyXtoUQc7sl35lJ
XTgg8Vlms9jwLAfk9feJ9jjhaFVrWi4OkQ4vcNodYBak13PcJO7qxP9IxAHtwDFD
7DhWjdfBcjPhb2uzb9lJo1qiAOhYxKut+pYCOfySNs/emcqWzozURiKoIUo93Wi4
y75Tk+BQ7QRAwTCIXEfHfHSKnW2t5lsO0k+fXuswW6trJilk9ZuPQKjA91hQFeEC
3rv9QoQNVY+hX82hlhtx8duwDNIfTIIYWWyxoqsXRMbBI6nnYsFncA9Oa7t571Y1
ht+axn4ip3gJ9J1KwCenYTGC/LKYHtHfgHb2AmiQ8A4U+uuk0n7fFfh/eauoLONk
ScYg8TkCAwEAAaOBiTCBhjAfBgNVHSMEGDAWgBTBIoIFfD9xKF6esmcZL74k+MG/
jjAMBgNVHRMBAf8EAjAAMBMGA1UdJQQMMAoGCCsGAQUFBwMCMA4GA1UdDwEB/wQE
AwIHgDAdBgNVHQ4EFgQUecudHRe1rqCkAIDIQb4OPvjpDR0wEQYDVR0RBAowCIIG
c2FtcGxlMA0GCSqGSIb3DQEBCwUAA4IBAQB+XuIk0ITG2lS6RJwro12ZdMQ8hbTD
hVlqPs4BBXaonHhgjDAWCmWPERDm4yceVTEHG/S/r/9Z9iczFAyXiTQSnhg+9Jsb
tBNjVhNVJ1TpwjWwmQUPRZunHBXEnmIFX1wFQNJDubLkc9I11c7IIw1cyg7QGvc3
lhKuSrW+6Vlbxug8YsnatDoC+oy05QghdFw/l37YitB6qdpy84jTeBBDRV+rU9hq
BmUTPOZLjqZv5H7GD0migwFz7AbWv/dUtouDWuZ8Ckqc7uGj5X8+7JpKfezS/rus
bd4n1FvWA0Z9VQQIAOmqmStMEDTe+ejGWeNfA/Lz7DOx0vC9JC9DJu8p
-----END CERTIFICATE-----
Certificate:
    Data:
        Version: 3 (0x2)
        Serial Number:
            c4:7d:b5:6d:9a:60:7f:c1:60:43:39:c2:3e:1e:79:65
        Signature Algorithm: sha256WithRSAEncryption
        Issuer: CN=IotSchool Root CA
        Validity
            Not Before: Apr 25 14:48:28 2023 GMT
            Not After : Apr 22 14:48:28 2033 GMT
        Subject: CN=IotSchool Sub CA
        Subject Public Key Info:
            Public Key Algorithm: rsaEncryption
                Public-Key: (2048 bit)
                Modulus:
                    00:ce:cd:8a:34:05:ac:67:bc:d9:a7:b4:af:cc:2b:
                    54:10:d7:52:1e:ac:3b:60:5f:b3:8f:94:01:f3:44:
                    bf:f4:d1:31:c4:da:25:b9:bd:3c:8b:5f:1c:80:77:
                    f4:b7:a2:72:cb:13:a5:67:d2:29:1e:6d:57:96:7a:
                    9c:89:ed:0b:bc:71:1b:0d:37:89:09:12:b5:e8:60:
                    31:5a:e3:de:5e:dc:fd:c8:5a:cf:b9:ea:70:e5:3c:
                    9a:9e:03:7d:6a:5e:bf:f8:49:3a:66:74:73:15:46:
                    a4:d3:78:22:af:1d:34:0c:92:9a:47:dd:0d:68:0f:
                    c1:cb:86:da:85:2e:48:cd:0e:6c:a7:0b:81:ac:65:
                    3b:95:bc:26:04:de:99:84:15:0e:86:75:f5:2f:66:
                    d0:60:d4:d9:63:5c:68:33:cf:2a:24:e6:4b:26:54:
                    60:56:86:47:88:6b:94:c7:62:f2:f5:0b:89:e2:33:
                    62:be:f0:f5:8d:79:a0:75:ce:d7:8c:9b:fe:a4:c3:
                    7e:68:10:2c:b7:ab:35:cf:2d:6f:66:87:fb:dd:8f:
                    37:2a:1b:76:24:6a:71:d8:1b:67:06:31:5d:b5:91:
                    94:9e:da:20:d5:43:72:ee:b6:54:19:de:66:3e:8d:
                    a6:29:5a:7b:52:0b:9c:60:23:d4:c6:53:4f:01:4c:
                    77:a9
                Exponent: 65537 (0x10001)
        X509v3 extensions:
            X509v3 Authority Key Identifier: 
                9C:C6:5F:2E:18:33:EE:D4:16:2C:1F:E3:71:F8:98:EA:D5:22:19:EC
            X509v3 Basic Constraints: critical
                CA:TRUE, pathlen:0
            X509v3 Extended Key Usage: 
                TLS Web Client Authentication, TLS Web Server Authentication
            X509v3 Key Usage: critical
                Certificate Sign, CRL Sign
            X509v3 Subject Key Identifier: 
                C1:22:82:05:7C:3F:71:28:5E:9E:B2:67:19:2F:BE:24:F8:C1:BF:8E
    Signature Algorithm: sha256WithRSAEncryption
    Signature Value:
        a0:3b:06:72:71:7e:10:c5:41:f0:28:62:2b:e3:5f:30:d0:d1:
        00:76:67:5d:eb:e4:31:ca:f0:5d:97:1a:90:15:53:b7:7e:74:
        00:40:30:07:b5:2c:7b:9d:4e:a9:a9:d0:60:35:99:47:10:7f:
        23:99:de:f3:66:f1:9b:5c:e8:9a:bb:06:a4:c6:9d:91:b8:30:
        6c:81:d6:48:29:03:0b:95:32:68:43:fb:ff:df:00:0b:77:2c:
        ac:cd:ee:03:c9:62:de:47:1e:99:05:eb:f7:23:e0:e7:1d:c0:
        87:b2:a4:9b:55:b5:7d:1d:e5:25:e5:f9:fc:ad:95:41:c6:bd:
        68:bc:e6:b5:71:03:a7:bf:45:a6:2e:58:fb:3f:17:41:40:b7:
        7b:90:7d:d7:a3:43:c8:71:6c:c4:23:00:bd:fc:e6:0f:d7:b2:
        b8:9e:9e:ac:5f:4f:05:74:e3:dc:32:a5:b8:0d:1b:fa:5a:7b:
        4c:4c:31:35:b9:8e:9f:53:e3:3a:68:5f:8e:51:4e:23:25:0b:
        df:98:c1:e7:d8:b1:29:88:f7:a5:36:cb:3f:e0:e8:47:25:a4:
        da:17:a4:cd:c8:8b:5d:10:9a:7d:53:92:e2:fd:eb:61:f3:5d:
        47:81:0b:18:01:06:c3:00:1d:a2:8d:46:65:fe:47:a6:2a:c3:
        e2:22:d0:e8
-----BEGIN CERTIFICATE-----
MIIDSTCCAjGgAwIBAgIRAMR9tW2aYH/BYEM5wj4eeWUwDQYJKoZIhvcNAQELBQAw
HDEaMBgGA1UEAwwRSW90U2Nob29sIFJvb3QgQ0EwHhcNMjMwNDI1MTQ0ODI4WhcN
MzMwNDIyMTQ0ODI4WjAbMRkwFwYDVQQDDBBJb3RTY2hvb2wgU3ViIENBMIIBIjAN
BgkqhkiG9w0BAQEFAAOCAQ8AMIIBCgKCAQEAzs2KNAWsZ7zZp7SvzCtUENdSHqw7
YF+zj5QB80S/9NExxNolub08i18cgHf0t6JyyxOlZ9IpHm1Xlnqcie0LvHEbDTeJ
CRK16GAxWuPeXtz9yFrPuepw5TyangN9al6/+Ek6ZnRzFUak03girx00DJKaR90N
aA/By4bahS5IzQ5spwuBrGU7lbwmBN6ZhBUOhnX1L2bQYNTZY1xoM88qJOZLJlRg
VoZHiGuUx2Ly9QuJ4jNivvD1jXmgdc7XjJv+pMN+aBAst6s1zy1vZof73Y83Kht2
JGpx2BtnBjFdtZGUntog1UNy7rZUGd5mPo2mKVp7UgucYCPUxlNPAUx3qQIDAQAB
o4GGMIGDMB8GA1UdIwQYMBaAFJzGXy4YM+7UFiwf43H4mOrVIhnsMBIGA1UdEwEB
/wQIMAYBAf8CAQAwHQYDVR0lBBYwFAYIKwYBBQUHAwIGCCsGAQUFBwMBMA4GA1Ud
DwEB/wQEAwIBBjAdBgNVHQ4EFgQUwSKCBXw/cShenrJnGS++JPjBv44wDQYJKoZI
hvcNAQELBQADggEBAKA7BnJxfhDFQfAoYivjXzDQ0QB2Z13r5DHK8F2XGpAVU7d+
dABAMAe1LHudTqmp0GA1mUcQfyOZ3vNm8Ztc6Jq7BqTGnZG4MGyB1kgpAwuVMmhD
+//fAAt3LKzN7gPJYt5HHpkF6/cj4OcdwIeypJtVtX0d5SXl+fytlUHGvWi85rVx
A6e/RaYuWPs/F0FAt3uQfdejQ8hxbMQjAL385g/XsrienqxfTwV049wypbgNG/pa
e0xMMTW5jp9T4zpoX45RTiMlC9+YwefYsSmI96U2yz/g6EclpNoXpM3Ii10Qmn1T
kuL962HzXUeBCxgBBsMAHaKNRmX+R6Yqw+Ii0Og=
-----END CERTIFICATE-----
