Certificate:
    Data:
        Version: 3 (0x2)
        Serial Number:
            2c:40:3c:96:1e:4e:cb:5f:3f:1d:ab:97:98:69:58:aa
        Signature Algorithm: sha256WithRSAEncryption
        Issuer: CN=IotSchool Sub CA
        Validity
            Not Before: May  5 11:24:45 2023 GMT
            Not After : May  4 11:24:45 2024 GMT
        Subject: C=DE, ST=Bavaria, O=IoT School, OU=PKI Services, CN=sample/emailAddress=iotschool@maibornwolff.de
        Subject Public Key Info:
            Public Key Algorithm: rsaEncryption
                Public-Key: (2048 bit)
                Modulus:
                    00:e8:76:47:47:5c:14:de:34:ea:3b:54:55:4a:b8:
                    94:ea:f9:b0:0b:28:5c:46:c9:25:9d:cc:f9:82:36:
                    df:75:f9:33:d7:36:17:6a:c9:95:97:c0:6b:3f:17:
                    b5:63:be:96:6d:76:e4:93:20:79:f5:ec:38:61:ce:
                    f7:94:a7:b1:24:e6:d2:f6:8f:e2:8f:8c:82:65:45:
                    ca:37:81:2f:72:1a:03:1c:dc:6f:f9:d8:fa:64:b3:
                    2d:93:79:ef:41:0b:d7:ab:20:a8:7e:54:6d:e4:35:
                    76:a6:65:df:a5:0d:af:f3:ee:bb:4a:50:e1:69:bc:
                    29:91:ad:d8:ac:f2:e1:76:32:80:f9:91:47:4d:79:
                    b7:8c:99:7b:04:64:b6:42:16:cd:ce:88:c8:69:bd:
                    9d:36:ba:92:88:ec:05:3d:fd:3e:9d:dc:02:52:d4:
                    85:65:5b:5e:a9:a6:e5:2d:2a:c2:1d:af:e5:91:9c:
                    71:53:23:4e:5a:cc:a7:01:3e:75:5a:9a:20:a9:b0:
                    bf:d0:c5:bd:75:dc:b2:24:a4:4b:91:ab:70:e1:29:
                    43:86:7d:06:08:0d:25:b4:5e:e9:c1:13:79:50:06:
                    b8:d2:2f:60:52:08:39:30:e0:53:da:cb:45:6d:bc:
                    a4:d0:d7:de:db:1d:ec:b6:db:05:9b:29:18:a2:26:
                    81:0b
                Exponent: 65537 (0x10001)
        X509v3 extensions:
            X509v3 Authority Key Identifier: 
                D1:E7:53:F6:EF:9F:E6:28:7B:71:4A:F9:55:D8:5C:40:74:32:A1:FC
            X509v3 Basic Constraints: critical
                CA:FALSE
            X509v3 Extended Key Usage: 
                TLS Web Client Authentication
            X509v3 Key Usage: critical
                Digital Signature
            X509v3 Subject Key Identifier: 
                97:1E:01:B7:25:DB:73:20:B5:6F:C6:0F:6A:56:CB:51:05:B3:24:5E
            X509v3 Subject Alternative Name: 
                DNS:sample
    Signature Algorithm: sha256WithRSAEncryption
    Signature Value:
        29:d2:d2:63:78:17:d6:c0:65:d1:4c:e6:c8:2f:fe:c6:e5:4d:
        56:30:ae:a1:ab:ca:39:45:ec:18:e9:e1:21:61:4a:e1:0f:cb:
        d0:ea:58:82:55:05:17:ef:6e:7e:90:84:6f:7a:c7:9b:3b:4a:
        14:7a:25:55:5d:3e:d4:06:5d:35:dc:f3:d0:d3:67:83:b7:14:
        87:59:9e:ab:93:a3:96:e0:aa:9a:82:06:de:a2:0b:63:66:32:
        c3:f5:91:14:d1:e4:cb:f4:f5:2d:6d:a8:d4:1e:75:6d:d1:73:
        e2:a8:68:cc:21:da:6e:c1:5b:c5:aa:29:46:78:7b:b5:7f:3a:
        ef:46:9f:df:b7:bd:0d:36:9c:81:c5:6d:01:9e:95:2a:36:fa:
        3e:40:0f:24:6c:d8:5d:61:ac:fc:74:02:d8:7c:dc:65:1c:b6:
        2c:30:8c:1b:e0:f6:6d:37:27:7b:3c:d3:4d:02:e5:d7:35:f9:
        48:df:e9:13:92:cf:03:6b:9b:fb:fc:ed:52:a6:e5:dc:53:9e:
        80:8e:a7:ce:ec:ae:3d:20:ca:1e:1d:d0:c3:fa:b7:16:79:f7:
        2b:15:12:23:55:71:72:f5:c5:de:51:5e:cf:61:f7:ae:ef:a9:
        f9:50:a1:cc:79:f8:38:c0:62:56:62:79:a0:82:7a:2d:f7:66:
        41:3b:c0:e1
-----BEGIN CERTIFICATE-----
MIIDtjCCAp6gAwIBAgIQLEA8lh5Oy18/HauXmGlYqjANBgkqhkiG9w0BAQsFADAb
MRkwFwYDVQQDDBBJb3RTY2hvb2wgU3ViIENBMB4XDTIzMDUwNTExMjQ0NVoXDTI0
MDUwNDExMjQ0NVowgYYxCzAJBgNVBAYTAkRFMRAwDgYDVQQIDAdCYXZhcmlhMRMw
EQYDVQQKDApJb1QgU2Nob29sMRUwEwYDVQQLDAxQS0kgU2VydmljZXMxDzANBgNV
BAMMBnNhbXBsZTEoMCYGCSqGSIb3DQEJARYZaW90c2Nob29sQG1haWJvcm53b2xm
Zi5kZTCCASIwDQYJKoZIhvcNAQEBBQADggEPADCCAQoCggEBAOh2R0dcFN406jtU
VUq4lOr5sAsoXEbJJZ3M+YI233X5M9c2F2rJlZfAaz8XtWO+lm125JMgefXsOGHO
95SnsSTm0vaP4o+MgmVFyjeBL3IaAxzcb/nY+mSzLZN570EL16sgqH5UbeQ1dqZl
36UNr/Puu0pQ4Wm8KZGt2Kzy4XYygPmRR015t4yZewRktkIWzc6IyGm9nTa6kojs
BT39Pp3cAlLUhWVbXqmm5S0qwh2v5ZGccVMjTlrMpwE+dVqaIKmwv9DFvXXcsiSk
S5GrcOEpQ4Z9BggNJbRe6cETeVAGuNIvYFIIOTDgU9rLRW28pNDX3tsd7LbbBZsp
GKImgQsCAwEAAaOBiTCBhjAfBgNVHSMEGDAWgBTR51P275/mKHtxSvlV2FxAdDKh
/DAMBgNVHRMBAf8EAjAAMBMGA1UdJQQMMAoGCCsGAQUFBwMCMA4GA1UdDwEB/wQE
AwIHgDAdBgNVHQ4EFgQUlx4BtyXbcyC1b8YPalbLUQWzJF4wEQYDVR0RBAowCIIG
c2FtcGxlMA0GCSqGSIb3DQEBCwUAA4IBAQAp0tJjeBfWwGXRTObIL/7G5U1WMK6h
q8o5RewY6eEhYUrhD8vQ6liCVQUX725+kIRvesebO0oUeiVVXT7UBl013PPQ02eD
txSHWZ6rk6OW4KqaggbeogtjZjLD9ZEU0eTL9PUtbajUHnVt0XPiqGjMIdpuwVvF
qilGeHu1fzrvRp/ft70NNpyBxW0BnpUqNvo+QA8kbNhdYaz8dALYfNxlHLYsMIwb
4PZtNyd7PNNNAuXXNflI3+kTks8Da5v7/O1SpuXcU56AjqfO7K49IMoeHdDD+rcW
efcrFRIjVXFy9cXeUV7PYfeu76n5UKHMefg4wGJWYnmggnot92ZBO8Dh
-----END CERTIFICATE-----
Certificate:
    Data:
        Version: 3 (0x2)
        Serial Number:
            30:ac:8e:48:cb:37:d4:55:eb:c1:2c:50:25:57:7a:e4
        Signature Algorithm: sha256WithRSAEncryption
        Issuer: CN=IotSchool Root CA
        Validity
            Not Before: Apr 25 14:45:01 2023 GMT
            Not After : Apr 22 14:45:01 2033 GMT
        Subject: CN=IotSchool Sub CA
        Subject Public Key Info:
            Public Key Algorithm: rsaEncryption
                Public-Key: (2048 bit)
                Modulus:
                    00:9c:1f:e1:f3:78:8f:47:1b:e4:7b:e3:d3:1c:c7:
                    42:9f:1c:af:09:f7:8d:4b:7a:6d:64:4d:7a:c0:c5:
                    90:19:d5:d9:5d:08:b9:1e:ff:22:5e:d7:7e:70:8d:
                    69:5f:da:b7:26:9b:dc:3a:4d:33:8d:4e:00:d9:ee:
                    91:46:f5:a7:c8:7e:9c:f8:03:39:8a:ac:f2:62:37:
                    e9:87:a0:1e:8e:54:65:63:94:60:ae:16:3b:63:a2:
                    df:c1:2a:ec:b3:70:80:94:7a:08:be:a0:2f:bc:71:
                    5d:59:c1:1d:d2:8c:a1:0a:18:d2:f4:9a:4b:1c:e9:
                    22:a7:d6:34:b4:82:cd:3b:e5:ce:7a:43:0a:eb:a8:
                    1c:74:1e:41:15:d6:8b:b4:be:c4:16:94:9e:e9:5d:
                    e5:d7:b4:fd:44:a6:80:8f:85:00:04:d7:c4:8e:80:
                    57:0a:79:1d:8d:4e:3b:62:3d:73:af:c3:a1:35:d1:
                    17:ec:56:7d:ab:64:3a:14:95:9e:7d:14:17:65:8c:
                    f0:c6:4d:3c:d6:58:86:96:6e:cd:c0:dd:28:5f:54:
                    33:ce:b8:df:dd:ff:b9:d5:6e:fd:e4:fc:7d:da:df:
                    ec:5b:55:f7:dc:57:38:05:3d:0d:d3:ee:5d:06:aa:
                    3d:29:15:04:5e:be:fb:0f:fd:55:17:7e:c6:d0:f9:
                    90:bb
                Exponent: 65537 (0x10001)
        X509v3 extensions:
            X509v3 Authority Key Identifier: 
                9C:C6:5F:2E:18:33:EE:D4:16:2C:1F:E3:71:F8:98:EA:D5:22:19:EC
            X509v3 Basic Constraints: critical
                CA:TRUE, pathlen:0
            X509v3 Extended Key Usage: 
                TLS Web Client Authentication, TLS Web Server Authentication
            X509v3 Key Usage: critical
                Certificate Sign, CRL Sign
            X509v3 Subject Key Identifier: 
                D1:E7:53:F6:EF:9F:E6:28:7B:71:4A:F9:55:D8:5C:40:74:32:A1:FC
    Signature Algorithm: sha256WithRSAEncryption
    Signature Value:
        4a:77:05:4e:65:d9:9c:d2:bb:e8:e1:34:ba:66:a9:95:9c:76:
        1f:a6:9a:52:f1:37:94:87:af:8d:33:72:1e:38:2f:a7:5a:2a:
        4f:a5:c2:2c:46:5b:ee:de:90:c8:6c:46:3b:75:12:f3:d2:0c:
        62:bb:97:86:85:ad:3f:91:f5:0c:d0:ae:dc:e5:a3:bd:86:e0:
        03:21:40:bf:0b:66:4e:dd:f5:5e:4a:93:1a:ac:e4:b9:01:88:
        cb:90:b1:94:35:87:ea:09:a6:93:08:ae:a6:a8:0f:67:80:38:
        7d:a2:4c:0f:7a:c3:a5:28:ed:48:f8:15:de:b6:be:bf:d7:b9:
        81:79:14:d4:03:b5:e9:1c:2d:ab:f9:45:0b:8b:5a:ae:d0:28:
        e4:34:23:a1:3a:c6:92:5b:37:d5:c2:c3:d5:f7:28:4c:e5:4b:
        c6:b5:a6:08:e1:83:2a:69:36:a1:34:5d:2e:ac:de:0e:a7:18:
        d3:aa:b6:f3:43:84:14:cb:c0:3f:6f:ef:71:3f:0c:25:ca:dd:
        3a:99:18:97:b7:8b:e3:5f:9c:84:2e:b9:9a:f2:fe:c9:57:99:
        e3:51:22:11:92:fb:a3:16:17:4d:4c:7b:c3:14:36:6a:99:a2:
        3d:02:e5:62:92:7c:cd:51:04:54:de:67:b0:9a:e0:dc:8e:e8:
        15:2c:56:58
-----BEGIN CERTIFICATE-----
MIIDSDCCAjCgAwIBAgIQMKyOSMs31FXrwSxQJVd65DANBgkqhkiG9w0BAQsFADAc
MRowGAYDVQQDDBFJb3RTY2hvb2wgUm9vdCBDQTAeFw0yMzA0MjUxNDQ1MDFaFw0z
MzA0MjIxNDQ1MDFaMBsxGTAXBgNVBAMMEElvdFNjaG9vbCBTdWIgQ0EwggEiMA0G
CSqGSIb3DQEBAQUAA4IBDwAwggEKAoIBAQCcH+HzeI9HG+R749Mcx0KfHK8J941L
em1kTXrAxZAZ1dldCLke/yJe135wjWlf2rcmm9w6TTONTgDZ7pFG9afIfpz4AzmK
rPJiN+mHoB6OVGVjlGCuFjtjot/BKuyzcICUegi+oC+8cV1ZwR3SjKEKGNL0mksc
6SKn1jS0gs075c56QwrrqBx0HkEV1ou0vsQWlJ7pXeXXtP1EpoCPhQAE18SOgFcK
eR2NTjtiPXOvw6E10RfsVn2rZDoUlZ59FBdljPDGTTzWWIaWbs3A3ShfVDPOuN/d
/7nVbv3k/H3a3+xbVffcVzgFPQ3T7l0Gqj0pFQRevvsP/VUXfsbQ+ZC7AgMBAAGj
gYYwgYMwHwYDVR0jBBgwFoAUnMZfLhgz7tQWLB/jcfiY6tUiGewwEgYDVR0TAQH/
BAgwBgEB/wIBADAdBgNVHSUEFjAUBggrBgEFBQcDAgYIKwYBBQUHAwEwDgYDVR0P
AQH/BAQDAgEGMB0GA1UdDgQWBBTR51P275/mKHtxSvlV2FxAdDKh/DANBgkqhkiG
9w0BAQsFAAOCAQEASncFTmXZnNK76OE0umaplZx2H6aaUvE3lIevjTNyHjgvp1oq
T6XCLEZb7t6QyGxGO3US89IMYruXhoWtP5H1DNCu3OWjvYbgAyFAvwtmTt31XkqT
GqzkuQGIy5CxlDWH6gmmkwiupqgPZ4A4faJMD3rDpSjtSPgV3ra+v9e5gXkU1AO1
6Rwtq/lFC4tartAo5DQjoTrGkls31cLD1fcoTOVLxrWmCOGDKmk2oTRdLqzeDqcY
06q280OEFMvAP2/vcT8MJcrdOpkYl7eL41+chC65mvL+yVeZ41EiEZL7oxYXTUx7
wxQ2apmiPQLlYpJ8zVEEVN5nsJrg3I7oFSxWWA==
-----END CERTIFICATE-----
