Certificate:
    Data:
        Version: 3 (0x2)
        Serial Number:
            2c:40:3c:96:1e:4e:cb:5f:3f:1d:ab:97:98:69:58:a2
        Signature Algorithm: sha256WithRSAEncryption
        Issuer: CN=IotSchool Sub CA
        Validity
            Not Before: May  5 11:24:36 2023 GMT
            Not After : May  4 11:24:36 2024 GMT
        Subject: C=DE, ST=Bavaria, O=IoT School, OU=PKI Services, CN=sample/emailAddress=iotschool@maibornwolff.de
        Subject Public Key Info:
            Public Key Algorithm: rsaEncryption
                Public-Key: (2048 bit)
                Modulus:
                    00:bd:ae:08:ea:25:57:da:f4:8d:8e:65:95:18:2e:
                    00:63:e3:f6:62:17:b2:a5:1e:d6:38:30:d6:3e:0e:
                    84:64:dc:c2:a3:a4:12:c6:06:89:41:48:7e:f9:70:
                    d4:d6:37:58:ec:d5:ca:3d:89:88:23:83:86:e6:ff:
                    56:19:94:ad:3e:07:bc:68:95:ba:53:c3:4a:26:76:
                    35:75:df:a1:65:be:c1:ee:dd:fd:7f:89:1e:1c:05:
                    24:4e:87:a2:94:ab:16:dd:62:4c:d5:b7:20:11:ca:
                    2e:83:42:b7:c3:36:1a:ce:77:c6:7a:93:2d:c5:7e:
                    5d:d6:6b:66:8e:a1:cc:71:a2:87:c3:ab:b1:60:6e:
                    b3:e1:ce:01:60:80:7b:2f:1f:ff:b3:d6:65:b7:94:
                    b7:39:2e:c3:90:49:5c:db:d9:d5:88:b2:52:37:59:
                    83:6d:50:96:ea:19:15:21:24:ed:fb:a0:3a:65:c5:
                    ee:63:2f:44:3c:bb:46:c5:e4:a3:3b:7f:ed:b2:da:
                    c5:2a:d2:14:99:91:56:b6:06:a0:d7:bd:23:92:ac:
                    17:f6:14:d3:67:f0:ee:6f:f8:df:e0:db:50:74:01:
                    f3:2f:22:db:b7:bd:2b:4c:ca:aa:a1:dd:48:6a:a0:
                    db:b5:34:16:7c:b9:bc:0f:6e:96:12:09:c6:28:a0:
                    c8:ad
                Exponent: 65537 (0x10001)
        X509v3 extensions:
            X509v3 Authority Key Identifier: 
                37:6E:D0:E1:19:13:F9:0C:3F:51:40:78:FF:4D:DF:F8:82:C6:AB:E3
            X509v3 Basic Constraints: critical
                CA:FALSE
            X509v3 Extended Key Usage: 
                TLS Web Client Authentication
            X509v3 Key Usage: critical
                Digital Signature
            X509v3 Subject Key Identifier: 
                ED:76:77:0C:E1:82:C7:C3:BB:F2:B5:4C:B7:01:52:26:E9:B3:DE:4A
            X509v3 Subject Alternative Name: 
                DNS:sample
    Signature Algorithm: sha256WithRSAEncryption
    Signature Value:
        aa:5d:b1:94:10:c1:e9:11:4c:52:92:26:ab:3a:4b:19:cd:2c:
        75:06:50:c9:bf:54:49:26:a1:4b:58:58:17:cf:30:19:e8:ff:
        6d:cf:42:9a:a5:22:35:f5:25:6b:2a:0c:f2:ab:58:13:b7:f0:
        38:a6:d1:8e:72:68:be:e3:86:89:34:36:f9:e3:b2:28:1b:f8:
        eb:3b:bd:00:6b:94:3d:7e:8d:ed:40:a5:3c:f6:5d:e8:9c:e7:
        9e:56:e2:a3:3b:11:68:d3:9c:14:a6:ad:80:69:af:95:2d:7e:
        e3:5e:c7:d2:7b:d9:84:bf:b2:c4:c7:83:90:f3:3a:1c:fb:9f:
        b8:e9:9c:a8:fe:77:23:8b:1b:60:a9:cc:1a:d8:cb:9a:e8:c9:
        2f:5d:e6:16:cd:c3:41:0d:a8:07:87:0b:f4:a8:b0:30:a7:b3:
        ff:55:0e:d0:b2:7a:1a:e5:cc:ae:1d:99:8c:85:82:48:17:73:
        b8:15:ff:7b:1a:bb:0f:ee:b3:3e:81:73:5d:a1:0c:7c:58:ec:
        de:5f:ab:d1:93:58:37:33:6c:a2:a0:ba:12:ef:38:8d:56:df:
        3d:65:89:12:65:a7:b7:c3:bf:99:18:ed:2a:09:72:7a:81:dc:
        52:04:ba:20:ae:bf:0c:c2:fe:b1:f1:be:c9:26:3f:e4:b5:e3:
        f4:a0:e6:1d
-----BEGIN CERTIFICATE-----
MIIDtjCCAp6gAwIBAgIQLEA8lh5Oy18/HauXmGlYojANBgkqhkiG9w0BAQsFADAb
MRkwFwYDVQQDDBBJb3RTY2hvb2wgU3ViIENBMB4XDTIzMDUwNTExMjQzNloXDTI0
MDUwNDExMjQzNlowgYYxCzAJBgNVBAYTAkRFMRAwDgYDVQQIDAdCYXZhcmlhMRMw
EQYDVQQKDApJb1QgU2Nob29sMRUwEwYDVQQLDAxQS0kgU2VydmljZXMxDzANBgNV
BAMMBnNhbXBsZTEoMCYGCSqGSIb3DQEJARYZaW90c2Nob29sQG1haWJvcm53b2xm
Zi5kZTCCASIwDQYJKoZIhvcNAQEBBQADggEPADCCAQoCggEBAL2uCOolV9r0jY5l
lRguAGPj9mIXsqUe1jgw1j4OhGTcwqOkEsYGiUFIfvlw1NY3WOzVyj2JiCODhub/
VhmUrT4HvGiVulPDSiZ2NXXfoWW+we7d/X+JHhwFJE6HopSrFt1iTNW3IBHKLoNC
t8M2Gs53xnqTLcV+XdZrZo6hzHGih8OrsWBus+HOAWCAey8f/7PWZbeUtzkuw5BJ
XNvZ1YiyUjdZg21QluoZFSEk7fugOmXF7mMvRDy7RsXkozt/7bLaxSrSFJmRVrYG
oNe9I5KsF/YU02fw7m/43+DbUHQB8y8i27e9K0zKqqHdSGqg27U0Fny5vA9ulhIJ
xiigyK0CAwEAAaOBiTCBhjAfBgNVHSMEGDAWgBQ3btDhGRP5DD9RQHj/Td/4gsar
4zAMBgNVHRMBAf8EAjAAMBMGA1UdJQQMMAoGCCsGAQUFBwMCMA4GA1UdDwEB/wQE
AwIHgDAdBgNVHQ4EFgQU7XZ3DOGCx8O78rVMtwFSJumz3kowEQYDVR0RBAowCIIG
c2FtcGxlMA0GCSqGSIb3DQEBCwUAA4IBAQCqXbGUEMHpEUxSkiarOksZzSx1BlDJ
v1RJJqFLWFgXzzAZ6P9tz0KapSI19SVrKgzyq1gTt/A4ptGOcmi+44aJNDb547Io
G/jrO70Aa5Q9fo3tQKU89l3onOeeVuKjOxFo05wUpq2Aaa+VLX7jXsfSe9mEv7LE
x4OQ8zoc+5+46Zyo/ncjixtgqcwa2Mua6MkvXeYWzcNBDagHhwv0qLAwp7P/VQ7Q
snoa5cyuHZmMhYJIF3O4Ff97GrsP7rM+gXNdoQx8WOzeX6vRk1g3M2yioLoS7ziN
Vt89ZYkSZae3w7+ZGO0qCXJ6gdxSBLogrr8Mwv6x8b7JJj/kteP0oOYd
-----END CERTIFICATE-----
Certificate:
    Data:
        Version: 3 (0x2)
        Serial Number:
            72:06:f0:b1:94:01:f0:55:d5:a3:c5:43:bc:ef:99:87
        Signature Algorithm: sha256WithRSAEncryption
        Issuer: CN=IotSchool Root CA
        Validity
            Not Before: Apr 25 14:28:29 2023 GMT
            Not After : Apr 22 14:28:29 2033 GMT
        Subject: CN=IotSchool Sub CA
        Subject Public Key Info:
            Public Key Algorithm: rsaEncryption
                Public-Key: (2048 bit)
                Modulus:
                    00:e6:23:53:3d:ba:30:32:26:a6:13:e2:48:a8:93:
                    e2:44:d2:9c:5e:6e:02:a1:0a:ae:bd:58:50:4f:d7:
                    87:4d:0e:20:d5:bb:b0:f6:4c:39:1a:d9:28:2f:7d:
                    4c:8f:44:c5:b6:09:86:79:fa:f9:a6:7b:bb:78:92:
                    a9:53:65:8a:3e:c0:b7:04:d9:6c:d0:96:6c:c8:88:
                    32:08:5b:d1:5b:d4:60:38:98:17:03:ae:c5:8c:42:
                    24:ab:7c:0f:c1:b0:41:a2:6a:8f:95:90:8b:80:5b:
                    46:43:0a:3e:27:cc:65:c6:eb:3a:6f:3a:6f:1b:bb:
                    63:1c:c0:a9:a7:79:62:3a:1d:cf:e1:b5:c0:a7:6c:
                    11:76:ff:84:92:27:c2:d9:12:9f:52:ad:39:12:65:
                    9c:66:11:36:ec:0a:50:8f:dd:43:a0:d6:42:1f:e4:
                    fe:93:d6:c7:d1:3f:31:ee:d0:27:79:39:7e:ae:64:
                    5f:e7:13:5a:f9:17:89:5c:cc:01:e0:85:95:56:b4:
                    08:10:4d:b0:87:27:8b:94:74:79:67:c3:a2:de:79:
                    34:68:13:de:32:bf:ea:5a:f3:af:18:cb:bd:c4:f9:
                    c0:0f:d4:22:23:dc:2c:4f:22:15:9e:03:90:d7:ff:
                    5e:ee:cd:55:da:f3:c0:46:c1:34:5e:22:59:32:c8:
                    33:a1
                Exponent: 65537 (0x10001)
        X509v3 extensions:
            X509v3 Authority Key Identifier: 
                9C:C6:5F:2E:18:33:EE:D4:16:2C:1F:E3:71:F8:98:EA:D5:22:19:EC
            X509v3 Basic Constraints: critical
                CA:TRUE, pathlen:0
            X509v3 Extended Key Usage: 
                TLS Web Client Authentication, TLS Web Server Authentication
            X509v3 Key Usage: critical
                Certificate Sign, CRL Sign
            X509v3 Subject Key Identifier: 
                37:6E:D0:E1:19:13:F9:0C:3F:51:40:78:FF:4D:DF:F8:82:C6:AB:E3
    Signature Algorithm: sha256WithRSAEncryption
    Signature Value:
        39:ec:01:11:60:71:42:d5:65:41:c1:7f:05:ec:60:70:c3:11:
        f4:15:73:54:9b:27:fc:d8:83:28:a3:ea:0c:07:8d:1b:f3:f4:
        2e:fa:c1:b8:da:95:cf:cb:7a:4e:ae:0c:7f:ec:92:a5:c5:b7:
        72:af:0c:97:d1:d4:5d:64:64:dd:c8:38:79:4d:d7:2e:e3:bf:
        a6:e7:0d:00:40:f7:41:b5:f7:d4:b3:f8:79:c0:e0:c5:04:20:
        73:38:82:2c:74:fd:e5:1c:3a:b7:9b:6b:83:1e:db:ed:1e:b7:
        1b:47:6b:88:7d:61:a9:ed:c8:3e:91:53:1d:56:a1:ab:86:25:
        29:5c:2c:21:ca:73:1c:9e:e1:a0:4c:60:0a:d9:3e:86:b1:20:
        21:a3:0b:53:a4:b3:ff:bb:3e:3e:a2:10:1a:e4:ad:0e:1b:b1:
        21:fa:a3:8e:48:21:e9:20:ab:0c:c0:fa:84:69:c8:b0:e1:11:
        da:8f:d9:3d:5c:c2:2c:04:e1:bb:81:02:d7:8f:52:52:f9:0d:
        bb:db:85:68:9a:5b:bb:d3:6b:3c:65:05:26:57:ca:a1:5b:b5:
        65:86:c5:69:e5:3c:bd:f5:44:20:a6:a0:44:fa:07:c8:06:c5:
        5a:ea:b3:be:4c:a0:78:51:39:a2:f0:a8:e8:88:6f:5e:83:59:
        20:cb:20:4b
-----BEGIN CERTIFICATE-----
MIIDSDCCAjCgAwIBAgIQcgbwsZQB8FXVo8VDvO+ZhzANBgkqhkiG9w0BAQsFADAc
MRowGAYDVQQDDBFJb3RTY2hvb2wgUm9vdCBDQTAeFw0yMzA0MjUxNDI4MjlaFw0z
MzA0MjIxNDI4MjlaMBsxGTAXBgNVBAMMEElvdFNjaG9vbCBTdWIgQ0EwggEiMA0G
CSqGSIb3DQEBAQUAA4IBDwAwggEKAoIBAQDmI1M9ujAyJqYT4kiok+JE0pxebgKh
Cq69WFBP14dNDiDVu7D2TDka2SgvfUyPRMW2CYZ5+vmme7t4kqlTZYo+wLcE2WzQ
lmzIiDIIW9Fb1GA4mBcDrsWMQiSrfA/BsEGiao+VkIuAW0ZDCj4nzGXG6zpvOm8b
u2McwKmneWI6Hc/htcCnbBF2/4SSJ8LZEp9SrTkSZZxmETbsClCP3UOg1kIf5P6T
1sfRPzHu0Cd5OX6uZF/nE1r5F4lczAHghZVWtAgQTbCHJ4uUdHlnw6LeeTRoE94y
v+pa868Yy73E+cAP1CIj3CxPIhWeA5DX/17uzVXa88BGwTReIlkyyDOhAgMBAAGj
gYYwgYMwHwYDVR0jBBgwFoAUnMZfLhgz7tQWLB/jcfiY6tUiGewwEgYDVR0TAQH/
BAgwBgEB/wIBADAdBgNVHSUEFjAUBggrBgEFBQcDAgYIKwYBBQUHAwEwDgYDVR0P
AQH/BAQDAgEGMB0GA1UdDgQWBBQ3btDhGRP5DD9RQHj/Td/4gsar4zANBgkqhkiG
9w0BAQsFAAOCAQEAOewBEWBxQtVlQcF/BexgcMMR9BVzVJsn/NiDKKPqDAeNG/P0
LvrBuNqVz8t6Tq4Mf+ySpcW3cq8Ml9HUXWRk3cg4eU3XLuO/pucNAED3QbX31LP4
ecDgxQQgcziCLHT95Rw6t5trgx7b7R63G0driH1hqe3IPpFTHVahq4YlKVwsIcpz
HJ7hoExgCtk+hrEgIaMLU6Sz/7s+PqIQGuStDhuxIfqjjkgh6SCrDMD6hGnIsOER
2o/ZPVzCLAThu4EC149SUvkNu9uFaJpbu9NrPGUFJlfKoVu1ZYbFaeU8vfVEIKag
RPoHyAbFWuqzvkygeFE5ovCo6IhvXoNZIMsgSw==
-----END CERTIFICATE-----
