Certificate:
    Data:
        Version: 3 (0x2)
        Serial Number:
            2c:40:3c:96:1e:4e:cb:5f:3f:1d:ab:97:98:69:58:b9
        Signature Algorithm: sha256WithRSAEncryption
        Issuer: CN=IotSchool Sub CA
        Validity
            Not Before: May  5 11:25:58 2023 GMT
            Not After : May  4 11:25:58 2024 GMT
        Subject: C=DE, ST=Bavaria, O=IoT School, OU=PKI Services, CN=sample/emailAddress=iotschool@maibornwolff.de
        Subject Public Key Info:
            Public Key Algorithm: rsaEncryption
                Public-Key: (2048 bit)
                Modulus:
                    00:ac:22:f6:84:08:57:41:23:86:d5:3e:a4:e8:c2:
                    92:43:98:74:5d:bc:1f:97:f4:c5:be:6d:3e:1c:83:
                    f4:5e:92:71:fd:ed:7b:5e:82:4a:a8:e1:24:b3:11:
                    0f:c8:c9:b1:48:aa:97:e8:e2:99:b8:8b:35:71:21:
                    ec:00:75:e5:27:84:af:99:e2:9b:8a:7d:71:bf:b4:
                    de:33:50:27:60:7c:7f:0e:4c:e7:22:6f:45:38:55:
                    c0:03:cc:04:0b:64:94:27:e0:5d:e4:89:a0:a0:02:
                    62:24:45:c2:a6:ae:d7:53:b4:de:4e:9f:35:28:7c:
                    06:c4:da:3d:ed:ee:13:8c:05:3f:2b:61:a1:cd:53:
                    11:ed:26:1f:78:e5:10:f6:81:c9:50:f5:5f:9e:12:
                    22:ca:7b:e8:84:81:98:63:f4:36:cb:ce:5d:1b:19:
                    da:35:4b:06:d8:2f:b5:90:6d:c7:53:64:4b:20:52:
                    00:d5:17:56:a4:54:56:9f:74:3c:56:42:f6:e1:20:
                    7e:30:ec:23:d8:6f:ef:1f:02:84:8d:ef:2b:6a:42:
                    45:c2:81:e7:2b:ce:fa:b0:b4:de:0b:95:8e:fc:7a:
                    bf:e9:de:fd:65:a9:8d:64:84:57:59:ea:c8:e6:3b:
                    bd:fa:71:9d:5d:11:b7:19:d0:4c:13:11:c1:65:f4:
                    f8:bd
                Exponent: 65537 (0x10001)
        X509v3 extensions:
            X509v3 Authority Key Identifier: 
                96:78:F2:E1:DD:20:43:D2:27:8F:AA:82:48:F5:2D:C4:D8:89:49:10
            X509v3 Basic Constraints: critical
                CA:FALSE
            X509v3 Extended Key Usage: 
                TLS Web Client Authentication
            X509v3 Key Usage: critical
                Digital Signature
            X509v3 Subject Key Identifier: 
                67:88:8A:EB:A9:FE:95:60:DB:73:B9:B9:23:38:BB:7E:30:A1:CB:DD
            X509v3 Subject Alternative Name: 
                DNS:sample
    Signature Algorithm: sha256WithRSAEncryption
    Signature Value:
        87:ea:b5:94:e3:1a:b8:5a:64:0b:76:ab:9e:8a:58:e5:b3:55:
        f3:99:70:4d:59:bf:6e:81:d8:65:c3:5e:d8:e6:21:04:29:37:
        7f:4a:87:66:4c:01:73:fb:2c:28:07:e5:e2:be:97:76:5b:af:
        ed:b6:06:5b:17:a5:f7:ec:3c:72:e1:56:a4:f3:16:a0:20:69:
        0b:66:48:bf:55:ed:a9:ec:ba:2c:88:37:0a:ea:95:8c:09:2c:
        40:be:4f:e8:8e:05:2b:53:11:af:74:a1:79:be:8f:87:ee:3b:
        1b:ac:87:b9:e7:b9:06:30:c2:18:ff:ea:49:d6:35:ad:c1:56:
        e4:81:f4:de:7c:e5:ac:84:f2:52:f7:46:c4:76:af:26:4f:98:
        73:cb:d2:41:97:d7:4d:e7:17:35:f1:0b:e6:f2:e0:18:c2:24:
        94:d7:c6:fa:0e:5e:90:6a:d2:41:b9:3a:57:65:14:89:d9:7f:
        6c:06:ba:b5:48:c6:5c:7e:11:6e:bc:f4:c2:88:b3:1c:62:f9:
        a7:a9:d1:34:2f:cf:eb:98:80:2a:5c:bb:4d:ed:be:5d:d9:cc:
        ee:45:cc:b8:45:d9:05:05:e2:62:1c:f5:74:dc:9e:64:de:0e:
        c6:d3:36:96:e7:7a:0c:81:4a:e3:bf:96:4c:d5:eb:26:31:d9:
        83:d8:cc:ab
-----BEGIN CERTIFICATE-----
MIIDtjCCAp6gAwIBAgIQLEA8lh5Oy18/HauXmGlYuTANBgkqhkiG9w0BAQsFADAb
MRkwFwYDVQQDDBBJb3RTY2hvb2wgU3ViIENBMB4XDTIzMDUwNTExMjU1OFoXDTI0
MDUwNDExMjU1OFowgYYxCzAJBgNVBAYTAkRFMRAwDgYDVQQIDAdCYXZhcmlhMRMw
EQYDVQQKDApJb1QgU2Nob29sMRUwEwYDVQQLDAxQS0kgU2VydmljZXMxDzANBgNV
BAMMBnNhbXBsZTEoMCYGCSqGSIb3DQEJARYZaW90c2Nob29sQG1haWJvcm53b2xm
Zi5kZTCCASIwDQYJKoZIhvcNAQEBBQADggEPADCCAQoCggEBAKwi9oQIV0EjhtU+
pOjCkkOYdF28H5f0xb5tPhyD9F6Scf3te16CSqjhJLMRD8jJsUiql+jimbiLNXEh
7AB15SeEr5nim4p9cb+03jNQJ2B8fw5M5yJvRThVwAPMBAtklCfgXeSJoKACYiRF
wqau11O03k6fNSh8BsTaPe3uE4wFPythoc1TEe0mH3jlEPaByVD1X54SIsp76ISB
mGP0NsvOXRsZ2jVLBtgvtZBtx1NkSyBSANUXVqRUVp90PFZC9uEgfjDsI9hv7x8C
hI3vK2pCRcKB5yvO+rC03guVjvx6v+ne/WWpjWSEV1nqyOY7vfpxnV0RtxnQTBMR
wWX0+L0CAwEAAaOBiTCBhjAfBgNVHSMEGDAWgBSWePLh3SBD0iePqoJI9S3E2IlJ
EDAMBgNVHRMBAf8EAjAAMBMGA1UdJQQMMAoGCCsGAQUFBwMCMA4GA1UdDwEB/wQE
AwIHgDAdBgNVHQ4EFgQUZ4iK66n+lWDbc7m5Izi7fjChy90wEQYDVR0RBAowCIIG
c2FtcGxlMA0GCSqGSIb3DQEBCwUAA4IBAQCH6rWU4xq4WmQLdqueiljls1XzmXBN
Wb9ugdhlw17Y5iEEKTd/SodmTAFz+ywoB+Xivpd2W6/ttgZbF6X37Dxy4Vak8xag
IGkLZki/Ve2p7LosiDcK6pWMCSxAvk/ojgUrUxGvdKF5vo+H7jsbrIe557kGMMIY
/+pJ1jWtwVbkgfTefOWshPJS90bEdq8mT5hzy9JBl9dN5xc18Qvm8uAYwiSU18b6
Dl6QatJBuTpXZRSJ2X9sBrq1SMZcfhFuvPTCiLMcYvmnqdE0L8/rmIAqXLtN7b5d
2czuRcy4RdkFBeJiHPV03J5k3g7G0zaW53oMgUrjv5ZM1esmMdmD2Myr
-----END CERTIFICATE-----
Certificate:
    Data:
        Version: 3 (0x2)
        Serial Number:
            46:ca:b3:56:44:85:49:f6:4c:2c:b6:3d:35:d1:2a:f7
        Signature Algorithm: sha256WithRSAEncryption
        Issuer: CN=IotSchool Root CA
        Validity
            Not Before: Apr 25 18:17:35 2023 GMT
            Not After : Apr 22 18:17:35 2033 GMT
        Subject: CN=IotSchool Sub CA
        Subject Public Key Info:
            Public Key Algorithm: rsaEncryption
                Public-Key: (2048 bit)
                Modulus:
                    00:c9:02:d3:c9:a0:65:90:fc:8e:93:70:92:94:f7:
                    c2:71:3c:70:a7:ff:e9:12:8b:49:9d:6e:da:45:1b:
                    f1:39:eb:1c:b0:23:12:02:30:a6:db:61:b5:95:3b:
                    5e:29:7a:d5:09:34:a5:2e:ad:3a:a2:f3:cd:33:a2:
                    0e:fa:ba:74:e7:d8:bc:11:30:52:c6:e5:68:f6:0b:
                    39:55:4c:d1:c7:51:7d:1f:f7:f6:25:88:fc:8b:7b:
                    2f:92:be:b5:62:ad:f8:16:ec:7e:dc:60:90:ad:a5:
                    e6:a2:3c:31:69:88:f5:5b:a4:e8:06:92:aa:e6:41:
                    17:02:ee:e0:7e:f9:a1:59:d1:9b:54:d3:71:87:67:
                    be:f9:e8:0c:51:0c:95:16:ee:4d:c6:3a:11:23:69:
                    a5:7f:f3:10:57:d8:c6:2f:af:d9:d9:ef:6d:1b:75:
                    8a:9f:98:31:d7:38:a4:4b:b0:9b:f1:12:9f:87:21:
                    e7:ca:8d:b6:ac:7b:85:14:61:aa:b9:5e:87:22:ee:
                    3b:3a:b9:17:5f:af:e1:ed:db:0b:e0:d0:cd:e9:36:
                    11:9e:dc:36:a3:1d:3f:d9:3a:59:70:b2:84:62:7d:
                    89:1d:9a:c5:ad:d2:96:de:4b:ef:6c:c2:ef:23:44:
                    91:8a:3e:62:45:28:1f:3f:40:bc:b6:eb:69:4d:a7:
                    63:79
                Exponent: 65537 (0x10001)
        X509v3 extensions:
            X509v3 Authority Key Identifier: 
                9C:C6:5F:2E:18:33:EE:D4:16:2C:1F:E3:71:F8:98:EA:D5:22:19:EC
            X509v3 Basic Constraints: critical
                CA:TRUE, pathlen:0
            X509v3 Extended Key Usage: 
                TLS Web Client Authentication, TLS Web Server Authentication
            X509v3 Key Usage: critical
                Certificate Sign, CRL Sign
            X509v3 Subject Key Identifier: 
                96:78:F2:E1:DD:20:43:D2:27:8F:AA:82:48:F5:2D:C4:D8:89:49:10
    Signature Algorithm: sha256WithRSAEncryption
    Signature Value:
        3b:3c:a6:2b:ff:df:c1:34:de:39:b8:db:a1:b4:78:ab:6c:ca:
        be:2f:1f:64:de:a2:91:56:f7:2a:3a:60:9b:fd:ac:37:33:64:
        8d:cb:29:5a:cb:9d:3b:76:bc:15:37:1d:b6:ca:df:9e:0e:36:
        89:a3:e7:21:da:a9:40:75:a4:29:e5:42:97:65:84:13:e0:8d:
        15:76:72:55:14:60:f7:3d:f2:4d:f9:d0:fe:fa:db:7e:e5:e6:
        ec:de:55:c3:fd:b5:24:15:a5:b1:3b:be:81:5c:89:61:5a:09:
        91:47:14:6a:66:20:ff:fb:f7:30:b7:94:cb:a4:5a:8d:75:9b:
        91:de:18:cc:55:1b:8c:57:33:7c:5b:32:e8:77:09:f8:9d:fb:
        0f:ba:0e:21:24:c0:cd:60:55:86:e3:e6:93:68:24:ec:c9:71:
        5f:6a:f9:d0:c3:7a:cb:6c:54:09:dd:ed:38:a2:a3:77:f8:db:
        a9:57:d2:56:b6:3f:bd:90:80:bb:16:1b:e3:81:c0:e6:d3:bc:
        94:e6:b5:5a:74:4e:91:0d:4a:40:f3:7a:3b:ee:28:18:13:18:
        5d:5c:d1:94:07:e4:aa:41:45:de:9f:08:cf:4b:0a:15:8d:8d:
        38:cf:c6:26:a6:5a:29:59:89:8c:5a:42:24:70:3c:76:eb:f1:
        4b:ee:84:25
-----BEGIN CERTIFICATE-----
MIIDSDCCAjCgAwIBAgIQRsqzVkSFSfZMLLY9NdEq9zANBgkqhkiG9w0BAQsFADAc
MRowGAYDVQQDDBFJb3RTY2hvb2wgUm9vdCBDQTAeFw0yMzA0MjUxODE3MzVaFw0z
MzA0MjIxODE3MzVaMBsxGTAXBgNVBAMMEElvdFNjaG9vbCBTdWIgQ0EwggEiMA0G
CSqGSIb3DQEBAQUAA4IBDwAwggEKAoIBAQDJAtPJoGWQ/I6TcJKU98JxPHCn/+kS
i0mdbtpFG/E56xywIxICMKbbYbWVO14petUJNKUurTqi880zog76unTn2LwRMFLG
5Wj2CzlVTNHHUX0f9/YliPyLey+SvrVirfgW7H7cYJCtpeaiPDFpiPVbpOgGkqrm
QRcC7uB++aFZ0ZtU03GHZ7756AxRDJUW7k3GOhEjaaV/8xBX2MYvr9nZ720bdYqf
mDHXOKRLsJvxEp+HIefKjbase4UUYaq5Xoci7js6uRdfr+Ht2wvg0M3pNhGe3Daj
HT/ZOllwsoRifYkdmsWt0pbeS+9swu8jRJGKPmJFKB8/QLy262lNp2N5AgMBAAGj
gYYwgYMwHwYDVR0jBBgwFoAUnMZfLhgz7tQWLB/jcfiY6tUiGewwEgYDVR0TAQH/
BAgwBgEB/wIBADAdBgNVHSUEFjAUBggrBgEFBQcDAgYIKwYBBQUHAwEwDgYDVR0P
AQH/BAQDAgEGMB0GA1UdDgQWBBSWePLh3SBD0iePqoJI9S3E2IlJEDANBgkqhkiG
9w0BAQsFAAOCAQEAOzymK//fwTTeObjbobR4q2zKvi8fZN6ikVb3Kjpgm/2sNzNk
jcspWsudO3a8FTcdtsrfng42iaPnIdqpQHWkKeVCl2WEE+CNFXZyVRRg9z3yTfnQ
/vrbfuXm7N5Vw/21JBWlsTu+gVyJYVoJkUcUamYg//v3MLeUy6RajXWbkd4YzFUb
jFczfFsy6HcJ+J37D7oOISTAzWBVhuPmk2gk7MlxX2r50MN6y2xUCd3tOKKjd/jb
qVfSVrY/vZCAuxYb44HA5tO8lOa1WnROkQ1KQPN6O+4oGBMYXVzRlAfkqkFF3p8I
z0sKFY2NOM/GJqZaKVmJjFpCJHA8duvxS+6EJQ==
-----END CERTIFICATE-----
