Certificate:
    Data:
        Version: 3 (0x2)
        Serial Number:
            2c:40:3c:96:1e:4e:cb:5f:3f:1d:ab:97:98:69:58:b6
        Signature Algorithm: sha256WithRSAEncryption
        Issuer: CN=IotSchool Sub CA
        Validity
            Not Before: May  5 11:25:50 2023 GMT
            Not After : May  4 11:25:50 2024 GMT
        Subject: C=DE, ST=Bavaria, O=IoT School, OU=PKI Services, CN=sample/emailAddress=iotschool@maibornwolff.de
        Subject Public Key Info:
            Public Key Algorithm: rsaEncryption
                Public-Key: (2048 bit)
                Modulus:
                    00:d0:95:c5:27:32:e4:39:db:52:e3:9c:6f:88:73:
                    ae:cd:3e:53:ef:66:7f:1d:52:23:fd:c4:28:7e:ac:
                    d0:3b:fb:25:58:4e:98:da:ed:47:bc:58:73:0c:32:
                    87:8d:99:2f:5d:7e:3a:e8:6c:7a:7f:bd:bc:15:9f:
                    5d:71:0e:00:46:1a:0d:3d:ac:35:da:9d:0b:8e:27:
                    ce:92:40:ac:cd:16:b5:06:88:29:7b:13:4b:62:9a:
                    fc:82:7f:bf:05:2f:0c:5c:7c:41:da:1f:d0:5e:bd:
                    37:aa:d8:39:d9:6a:ad:71:e4:98:cd:5e:1d:7b:58:
                    43:b6:ca:4e:24:7d:e1:c1:88:27:14:c2:24:06:be:
                    67:32:5d:ea:93:8c:c7:73:a3:db:1c:9c:db:e7:a7:
                    a8:b2:4f:1b:45:99:6e:2a:47:f3:a9:a2:02:7d:b7:
                    d6:62:20:ff:e7:55:2c:22:5d:03:cb:6f:82:e6:0e:
                    10:30:ad:32:11:ee:f8:62:5c:2d:5e:af:9b:95:2a:
                    a9:22:39:98:46:af:6a:c9:7d:b9:7e:d1:e8:04:19:
                    74:5b:f0:8a:c5:ca:da:47:2d:ad:e6:a5:70:95:ee:
                    47:6a:96:3c:9a:2f:da:73:04:a6:63:5a:63:09:54:
                    62:93:0a:0e:35:00:73:6a:b1:82:e9:3f:59:4e:d8:
                    dd:41
                Exponent: 65537 (0x10001)
        X509v3 extensions:
            X509v3 Authority Key Identifier: 
                F0:0B:BD:B0:D1:F4:09:2B:A3:FB:F8:76:78:1A:2F:06:2A:9C:B1:6C
            X509v3 Basic Constraints: critical
                CA:FALSE
            X509v3 Extended Key Usage: 
                TLS Web Client Authentication
            X509v3 Key Usage: critical
                Digital Signature
            X509v3 Subject Key Identifier: 
                8F:5C:5E:25:6A:7A:4D:2D:BD:B4:8C:AE:82:93:77:39:02:04:42:16
            X509v3 Subject Alternative Name: 
                DNS:sample
    Signature Algorithm: sha256WithRSAEncryption
    Signature Value:
        9b:6f:c6:23:1e:3c:39:ea:6c:31:7f:60:14:e6:4f:56:6f:e7:
        0a:f2:91:bd:fd:24:fd:dc:10:03:48:40:c5:88:c7:ef:9f:59:
        f7:d3:7a:83:0c:c4:92:09:bd:52:c6:d4:38:4f:7a:a7:4d:68:
        90:7b:c6:e7:66:c5:98:27:63:c1:d7:80:26:d7:72:d4:9a:f1:
        28:24:82:54:c8:43:5e:12:bd:d5:61:27:24:3f:0a:bf:9f:be:
        0f:46:43:fb:26:91:09:2c:51:35:ad:3c:a9:8e:56:12:bc:7c:
        6d:50:22:d0:40:7a:de:66:4f:e7:56:8d:df:ec:24:3b:0c:6c:
        88:b3:63:cb:34:c6:2b:26:cc:9a:90:d8:0c:ff:68:1e:06:b1:
        b5:5f:e3:05:d1:f2:8f:07:72:1a:fc:e8:17:1f:28:30:0d:26:
        72:c5:b4:24:69:f8:81:74:4c:2a:4f:4c:b5:fb:b7:9d:55:82:
        df:32:d4:a8:a0:5d:39:5c:ac:87:e8:df:96:39:30:60:56:84:
        e4:6c:5d:d6:be:c3:7e:14:d4:b7:d9:f5:10:22:2b:9c:72:f2:
        7b:b1:a4:06:fe:34:97:3f:9e:d0:74:48:38:41:4a:03:97:a5:
        ed:df:80:bd:01:87:a9:67:a5:9e:e9:04:92:67:8f:8d:0f:be:
        cc:b8:8a:3e
-----BEGIN CERTIFICATE-----
MIIDtjCCAp6gAwIBAgIQLEA8lh5Oy18/HauXmGlYtjANBgkqhkiG9w0BAQsFADAb
MRkwFwYDVQQDDBBJb3RTY2hvb2wgU3ViIENBMB4XDTIzMDUwNTExMjU1MFoXDTI0
MDUwNDExMjU1MFowgYYxCzAJBgNVBAYTAkRFMRAwDgYDVQQIDAdCYXZhcmlhMRMw
EQYDVQQKDApJb1QgU2Nob29sMRUwEwYDVQQLDAxQS0kgU2VydmljZXMxDzANBgNV
BAMMBnNhbXBsZTEoMCYGCSqGSIb3DQEJARYZaW90c2Nob29sQG1haWJvcm53b2xm
Zi5kZTCCASIwDQYJKoZIhvcNAQEBBQADggEPADCCAQoCggEBANCVxScy5DnbUuOc
b4hzrs0+U+9mfx1SI/3EKH6s0Dv7JVhOmNrtR7xYcwwyh42ZL11+Ouhsen+9vBWf
XXEOAEYaDT2sNdqdC44nzpJArM0WtQaIKXsTS2Ka/IJ/vwUvDFx8Qdof0F69N6rY
OdlqrXHkmM1eHXtYQ7bKTiR94cGIJxTCJAa+ZzJd6pOMx3Oj2xyc2+enqLJPG0WZ
bipH86miAn231mIg/+dVLCJdA8tvguYOEDCtMhHu+GJcLV6vm5UqqSI5mEavasl9
uX7R6AQZdFvwisXK2kctrealcJXuR2qWPJov2nMEpmNaYwlUYpMKDjUAc2qxguk/
WU7Y3UECAwEAAaOBiTCBhjAfBgNVHSMEGDAWgBTwC72w0fQJK6P7+HZ4Gi8GKpyx
bDAMBgNVHRMBAf8EAjAAMBMGA1UdJQQMMAoGCCsGAQUFBwMCMA4GA1UdDwEB/wQE
AwIHgDAdBgNVHQ4EFgQUj1xeJWp6TS29tIyugpN3OQIEQhYwEQYDVR0RBAowCIIG
c2FtcGxlMA0GCSqGSIb3DQEBCwUAA4IBAQCbb8YjHjw56mwxf2AU5k9Wb+cK8pG9
/ST93BADSEDFiMfvn1n303qDDMSSCb1SxtQ4T3qnTWiQe8bnZsWYJ2PB14Am13LU
mvEoJIJUyENeEr3VYSckPwq/n74PRkP7JpEJLFE1rTypjlYSvHxtUCLQQHreZk/n
Vo3f7CQ7DGyIs2PLNMYrJsyakNgM/2geBrG1X+MF0fKPB3Ia/OgXHygwDSZyxbQk
afiBdEwqT0y1+7edVYLfMtSooF05XKyH6N+WOTBgVoTkbF3WvsN+FNS32fUQIiuc
cvJ7saQG/jSXP57QdEg4QUoDl6Xt34C9AYepZ6We6QSSZ4+ND77MuIo+
-----END CERTIFICATE-----
Certificate:
    Data:
        Version: 3 (0x2)
        Serial Number:
            41:13:92:ce:dc:2b:4d:64:87:c4:a2:7f:98:b2:3e:d3
        Signature Algorithm: sha256WithRSAEncryption
        Issuer: CN=IotSchool Root CA
        Validity
            Not Before: Apr 25 14:31:52 2023 GMT
            Not After : Apr 22 14:31:52 2033 GMT
        Subject: CN=IotSchool Sub CA
        Subject Public Key Info:
            Public Key Algorithm: rsaEncryption
                Public-Key: (2048 bit)
                Modulus:
                    00:c7:4b:d8:49:29:a8:a8:2e:ac:d3:e9:6c:6d:5b:
                    a2:69:8d:85:71:09:c6:e3:f9:8c:f7:9e:4e:0b:0b:
                    ce:20:a2:28:3b:ea:c8:8f:09:22:b4:00:66:46:e8:
                    43:76:23:d0:cc:00:69:37:51:b6:6d:e0:3b:3b:ac:
                    b1:74:dc:10:ef:34:46:98:55:28:bc:2e:b1:b0:7c:
                    1f:e8:98:20:65:77:84:e2:ff:87:8b:84:0f:64:c6:
                    a6:cb:54:e0:e3:44:73:fe:71:87:ef:e6:90:33:28:
                    74:e2:75:1d:58:9f:db:4e:89:d2:37:99:d2:18:ce:
                    c4:75:aa:80:48:0a:97:74:ce:a9:c9:d9:09:93:50:
                    1c:f3:ce:55:e1:d0:27:c4:5c:07:da:97:38:5b:66:
                    8c:6c:8e:9e:4f:f2:3e:c4:d8:f0:7b:8a:48:93:6c:
                    bc:fb:ad:5a:42:06:7f:dc:ed:5c:4d:43:01:34:c5:
                    6f:09:c4:9f:77:75:97:70:f2:15:b1:fc:2e:12:d7:
                    25:5d:27:28:e6:52:8d:95:3d:dc:00:72:5e:ad:f0:
                    ef:73:d8:55:6c:80:a2:83:40:7c:02:52:76:ae:c9:
                    00:1a:a0:eb:a3:29:19:0d:80:ec:ea:41:ae:06:ea:
                    6b:6a:de:da:bb:65:56:97:67:39:92:ff:99:ff:3e:
                    fc:55
                Exponent: 65537 (0x10001)
        X509v3 extensions:
            X509v3 Authority Key Identifier: 
                9C:C6:5F:2E:18:33:EE:D4:16:2C:1F:E3:71:F8:98:EA:D5:22:19:EC
            X509v3 Basic Constraints: critical
                CA:TRUE, pathlen:0
            X509v3 Extended Key Usage: 
                TLS Web Client Authentication, TLS Web Server Authentication
            X509v3 Key Usage: critical
                Certificate Sign, CRL Sign
            X509v3 Subject Key Identifier: 
                F0:0B:BD:B0:D1:F4:09:2B:A3:FB:F8:76:78:1A:2F:06:2A:9C:B1:6C
    Signature Algorithm: sha256WithRSAEncryption
    Signature Value:
        96:d5:02:04:51:05:c6:2f:e0:bd:0f:00:e3:63:ca:fb:df:30:
        a0:fb:08:0d:39:43:68:d9:5d:3a:fd:6b:10:d5:a4:3d:7a:9e:
        b9:9f:ce:ee:36:4a:de:cd:e0:76:48:d3:37:8e:c5:76:88:d4:
        ad:c7:f8:38:28:14:50:56:8a:92:c6:1b:d8:45:72:3f:c4:40:
        5c:67:10:d8:d3:ea:60:19:e8:4a:36:84:45:08:04:6b:d3:d9:
        ad:11:c8:bc:f7:e4:83:4e:60:8a:01:db:f6:95:0f:04:2a:8b:
        f6:39:04:ba:2b:f3:2f:6c:1f:16:07:86:cf:a8:1e:a2:c5:35:
        6f:6f:85:cb:8e:d3:2e:21:7b:f7:01:7f:6c:8d:29:35:4f:45:
        ae:5e:2a:50:68:f2:7f:ea:c5:5f:81:78:72:01:3f:9b:6e:37:
        10:c4:f4:90:08:e2:9f:2b:34:e9:27:f8:57:7c:e9:f3:86:cf:
        9c:3d:e8:28:89:42:66:b8:71:a8:37:19:32:73:cc:65:eb:63:
        38:c8:34:4b:6a:10:c9:91:42:f2:0f:13:54:d5:08:b2:a8:d7:
        13:a6:fd:27:e4:07:b6:f6:92:10:91:a8:61:3f:9c:85:c8:76:
        98:8b:de:39:2b:a9:84:18:71:0c:9d:35:fa:a9:90:b2:bf:43:
        c9:7a:f2:74
-----BEGIN CERTIFICATE-----
MIIDSDCCAjCgAwIBAgIQQROSztwrTWSHxKJ/mLI+0zANBgkqhkiG9w0BAQsFADAc
MRowGAYDVQQDDBFJb3RTY2hvb2wgUm9vdCBDQTAeFw0yMzA0MjUxNDMxNTJaFw0z
MzA0MjIxNDMxNTJaMBsxGTAXBgNVBAMMEElvdFNjaG9vbCBTdWIgQ0EwggEiMA0G
CSqGSIb3DQEBAQUAA4IBDwAwggEKAoIBAQDHS9hJKaioLqzT6WxtW6JpjYVxCcbj
+Yz3nk4LC84goig76siPCSK0AGZG6EN2I9DMAGk3UbZt4Ds7rLF03BDvNEaYVSi8
LrGwfB/omCBld4Ti/4eLhA9kxqbLVODjRHP+cYfv5pAzKHTidR1Yn9tOidI3mdIY
zsR1qoBICpd0zqnJ2QmTUBzzzlXh0CfEXAfalzhbZoxsjp5P8j7E2PB7ikiTbLz7
rVpCBn/c7VxNQwE0xW8JxJ93dZdw8hWx/C4S1yVdJyjmUo2VPdwAcl6t8O9z2FVs
gKKDQHwCUnauyQAaoOujKRkNgOzqQa4G6mtq3tq7ZVaXZzmS/5n/PvxVAgMBAAGj
gYYwgYMwHwYDVR0jBBgwFoAUnMZfLhgz7tQWLB/jcfiY6tUiGewwEgYDVR0TAQH/
BAgwBgEB/wIBADAdBgNVHSUEFjAUBggrBgEFBQcDAgYIKwYBBQUHAwEwDgYDVR0P
AQH/BAQDAgEGMB0GA1UdDgQWBBTwC72w0fQJK6P7+HZ4Gi8GKpyxbDANBgkqhkiG
9w0BAQsFAAOCAQEAltUCBFEFxi/gvQ8A42PK+98woPsIDTlDaNldOv1rENWkPXqe
uZ/O7jZK3s3gdkjTN47FdojUrcf4OCgUUFaKksYb2EVyP8RAXGcQ2NPqYBnoSjaE
RQgEa9PZrRHIvPfkg05gigHb9pUPBCqL9jkEuivzL2wfFgeGz6geosU1b2+Fy47T
LiF79wF/bI0pNU9Frl4qUGjyf+rFX4F4cgE/m243EMT0kAjinys06Sf4V3zp84bP
nD3oKIlCZrhxqDcZMnPMZetjOMg0S2oQyZFC8g8TVNUIsqjXE6b9J+QHtvaSEJGo
YT+chch2mIveOSuphBhxDJ01+qmQsr9DyXrydA==
-----END CERTIFICATE-----
