Certificate:
    Data:
        Version: 3 (0x2)
        Serial Number:
            ca:10:bc:ca:e3:eb:7e:d5:73:99:3d:e5:18:87:06:9d
        Signature Algorithm: sha256WithRSAEncryption
        Issuer: CN=IotSchool Sub CA
        Validity
            Not Before: Apr 20 09:56:10 2023 GMT
            Not After : Apr 19 09:56:10 2024 GMT
        Subject: C=DE, ST=Bavaria, O=IoT School, OU=PKI Services, CN=tunis-station-tourist-route/emailAddress=iotschool@maibornwolff.de
        Subject Public Key Info:
            Public Key Algorithm: rsaEncryption
                Public-Key: (2048 bit)
                Modulus:
                    00:b0:cf:5c:d3:3f:43:d1:3f:da:63:f8:bc:dd:e5:
                    a2:28:8e:86:02:f6:72:f9:b4:5b:c8:4b:3c:2e:ff:
                    0a:e8:50:9b:bd:e8:88:67:a4:e1:6d:eb:af:36:b4:
                    8a:c9:90:dd:cb:d1:61:11:27:5d:57:f3:31:49:15:
                    8d:c4:8c:38:e8:de:50:a4:87:6a:65:a2:d9:d0:e2:
                    bc:83:5b:2e:3d:7b:53:f7:d6:8b:cf:81:1d:f8:9a:
                    87:ac:ad:8d:fd:bd:84:00:f6:91:65:e0:06:9f:8b:
                    e5:d1:36:87:e0:a0:ce:71:84:b8:9e:56:e8:1a:3c:
                    32:f6:b8:ca:24:16:0d:90:24:31:18:63:dc:51:f9:
                    a2:e8:55:95:30:10:d3:d8:62:b1:fc:95:ba:30:b4:
                    b3:dc:2f:f4:ea:73:f3:15:60:3a:2b:f5:43:95:93:
                    1a:18:84:53:f1:a3:0c:c2:8f:35:7d:e5:47:8e:9d:
                    5a:73:b7:9c:54:08:63:42:ca:2d:ea:78:73:de:7e:
                    f8:e4:05:0a:d4:f3:48:97:d5:1e:3f:96:17:91:f6:
                    41:94:db:43:1d:9f:ee:ef:0f:1b:28:75:db:c8:f5:
                    31:8e:e5:13:12:6a:4b:2d:47:c7:43:c5:81:d6:18:
                    64:2d:0b:75:de:05:4d:71:99:f6:84:fc:c7:56:15:
                    9d:0d
                Exponent: 65537 (0x10001)
        X509v3 extensions:
            X509v3 Authority Key Identifier: 
                78:5D:C5:F1:70:AD:1F:CD:E5:EB:F2:EB:EC:F0:71:42:30:5E:CC:3D
            X509v3 Basic Constraints: critical
                CA:FALSE
            X509v3 Extended Key Usage: 
                TLS Web Client Authentication
            X509v3 Key Usage: critical
                Digital Signature
            X509v3 Subject Key Identifier: 
                41:0D:11:84:FF:4F:E7:4C:5E:F2:65:97:0D:04:1E:C7:F0:3A:2F:AD
            X509v3 Subject Alternative Name: 
                DNS:tunis-station-tourist-route
    Signature Algorithm: sha256WithRSAEncryption
    Signature Value:
        cd:83:2b:fe:98:b5:df:cc:82:44:e2:6d:64:94:39:0c:bf:8c:
        4b:e3:4a:97:69:d1:d9:a1:6d:b4:04:78:e1:e9:ff:ad:ad:07:
        73:6e:05:ea:fc:76:31:a3:2c:27:9b:80:94:87:f8:57:30:71:
        1e:2c:40:47:af:c5:3a:d7:3c:a8:7e:ed:30:ba:d7:0d:dc:7e:
        9d:be:a8:97:c3:85:9f:df:92:93:d3:ae:18:8c:45:34:84:38:
        89:93:d7:aa:33:9d:b2:43:a5:07:bd:34:90:fc:17:cf:ed:c5:
        a3:1c:03:cb:19:58:9c:9b:1f:1e:34:a4:a3:05:92:1b:21:1f:
        d0:27:11:59:75:13:07:48:89:92:2a:c9:43:8b:a8:0c:f6:05:
        f4:0b:b5:d8:d1:50:da:6e:12:b2:b4:37:e6:d6:51:b0:36:83:
        00:2c:1e:88:71:11:30:2d:4a:06:40:8f:dc:a4:7d:87:3e:a3:
        2f:20:62:3a:07:8b:f9:0c:bf:47:14:9f:78:d0:e0:be:95:f6:
        3d:28:5b:91:ae:b9:7b:99:f1:7a:12:04:61:ca:1b:82:3f:99:
        af:db:3c:86:2a:40:e8:34:c9:a4:eb:40:6c:f0:fe:f3:3b:cb:
        d6:82:3e:b6:e7:d5:8e:59:56:bc:f8:1f:b1:f8:72:1c:d1:a8:
        93:cb:a7:41
-----BEGIN CERTIFICATE-----
MIID4TCCAsmgAwIBAgIRAMoQvMrj637Vc5k95RiHBp0wDQYJKoZIhvcNAQELBQAw
GzEZMBcGA1UEAwwQSW90U2Nob29sIFN1YiBDQTAeFw0yMzA0MjAwOTU2MTBaFw0y
NDA0MTkwOTU2MTBaMIGbMQswCQYDVQQGEwJERTEQMA4GA1UECAwHQmF2YXJpYTET
MBEGA1UECgwKSW9UIFNjaG9vbDEVMBMGA1UECwwMUEtJIFNlcnZpY2VzMSQwIgYD
VQQDDBt0dW5pcy1zdGF0aW9uLXRvdXJpc3Qtcm91dGUxKDAmBgkqhkiG9w0BCQEW
GWlvdHNjaG9vbEBtYWlib3Jud29sZmYuZGUwggEiMA0GCSqGSIb3DQEBAQUAA4IB
DwAwggEKAoIBAQCwz1zTP0PRP9pj+Lzd5aIojoYC9nL5tFvISzwu/wroUJu96Ihn
pOFt6682tIrJkN3L0WERJ11X8zFJFY3EjDjo3lCkh2plotnQ4ryDWy49e1P31ovP
gR34moesrY39vYQA9pFl4Aafi+XRNofgoM5xhLieVugaPDL2uMokFg2QJDEYY9xR
+aLoVZUwENPYYrH8lbowtLPcL/Tqc/MVYDor9UOVkxoYhFPxowzCjzV95UeOnVpz
t5xUCGNCyi3qeHPefvjkBQrU80iX1R4/lheR9kGU20Mdn+7vDxsoddvI9TGO5RMS
akstR8dDxYHWGGQtC3XeBU1xmfaE/MdWFZ0NAgMBAAGjgZ4wgZswHwYDVR0jBBgw
FoAUeF3F8XCtH83l6/Lr7PBxQjBezD0wDAYDVR0TAQH/BAIwADATBgNVHSUEDDAK
BggrBgEFBQcDAjAOBgNVHQ8BAf8EBAMCB4AwHQYDVR0OBBYEFEENEYT/T+dMXvJl
lw0EHsfwOi+tMCYGA1UdEQQfMB2CG3R1bmlzLXN0YXRpb24tdG91cmlzdC1yb3V0
ZTANBgkqhkiG9w0BAQsFAAOCAQEAzYMr/pi138yCROJtZJQ5DL+MS+NKl2nR2aFt
tAR44en/ra0Hc24F6vx2MaMsJ5uAlIf4VzBxHixAR6/FOtc8qH7tMLrXDdx+nb6o
l8OFn9+Sk9OuGIxFNIQ4iZPXqjOdskOlB700kPwXz+3FoxwDyxlYnJsfHjSkowWS
GyEf0CcRWXUTB0iJkirJQ4uoDPYF9Au12NFQ2m4SsrQ35tZRsDaDACweiHERMC1K
BkCP3KR9hz6jLyBiOgeL+Qy/RxSfeNDgvpX2PShbka65e5nxehIEYcobgj+Zr9s8
hipA6DTJpOtAbPD+8zvL1oI+tufVjllWvPgfsfhyHNGok8unQQ==
-----END CERTIFICATE-----
Certificate:
    Data:
        Version: 3 (0x2)
        Serial Number:
            34:de:bf:8a:8f:a0:40:08:2b:0b:6c:b5:10:57:9a:01
        Signature Algorithm: sha256WithRSAEncryption
        Issuer: CN=IotSchool Root CA
        Validity
            Not Before: Apr 19 18:46:43 2023 GMT
            Not After : Apr 16 18:46:43 2033 GMT
        Subject: CN=IotSchool Sub CA
        Subject Public Key Info:
            Public Key Algorithm: rsaEncryption
                Public-Key: (2048 bit)
                Modulus:
                    00:d5:4f:94:5a:dd:28:60:bf:19:80:76:b8:6f:5d:
                    10:28:a2:f3:df:07:80:eb:23:e8:85:f5:9d:2c:ff:
                    6c:35:f1:4b:92:e9:97:eb:73:fa:90:f6:0b:72:1a:
                    b6:e4:41:a6:c8:f6:6a:4c:fb:4b:ed:cf:fb:ef:87:
                    60:d2:00:2b:38:a2:30:4a:d0:57:02:0c:18:16:92:
                    7d:d8:ac:ff:f9:31:a0:72:76:9d:f8:96:8a:bd:4b:
                    e4:f2:f4:8d:f1:1b:fe:a1:0a:1e:d9:02:25:f6:b5:
                    17:fa:a4:9c:38:f7:44:64:90:be:93:cd:74:98:4e:
                    68:e7:47:98:a5:c3:9f:df:09:1f:8c:e2:b6:d3:be:
                    51:d0:33:26:b9:dd:01:fb:30:aa:42:2a:d7:06:6f:
                    0e:07:03:e2:5a:aa:8e:2f:f2:f0:17:4f:7b:7e:3f:
                    d2:91:9b:cd:2c:66:43:1a:21:32:fc:06:58:ba:b2:
                    ef:a4:f8:83:92:05:ee:84:38:21:fa:49:9b:7b:2a:
                    70:6b:94:cd:c8:b4:f7:db:96:42:c0:b7:3c:bf:25:
                    3f:de:cf:ce:09:72:cc:b0:2d:af:5f:24:bf:ec:ef:
                    b7:bc:e0:00:42:7f:44:14:be:08:dc:71:27:fc:ee:
                    32:49:d1:e6:27:bf:44:24:aa:b1:96:8d:6d:c8:79:
                    e7:09
                Exponent: 65537 (0x10001)
        X509v3 extensions:
            X509v3 Authority Key Identifier: 
                9C:C6:5F:2E:18:33:EE:D4:16:2C:1F:E3:71:F8:98:EA:D5:22:19:EC
            X509v3 Basic Constraints: critical
                CA:TRUE, pathlen:0
            X509v3 Extended Key Usage: 
                TLS Web Client Authentication, TLS Web Server Authentication
            X509v3 Key Usage: critical
                Certificate Sign, CRL Sign
            X509v3 Subject Key Identifier: 
                78:5D:C5:F1:70:AD:1F:CD:E5:EB:F2:EB:EC:F0:71:42:30:5E:CC:3D
    Signature Algorithm: sha256WithRSAEncryption
    Signature Value:
        a3:15:2e:76:e0:51:90:57:3e:b0:90:20:5d:b3:af:27:51:f5:
        93:a9:6e:e7:d7:10:78:36:0a:18:c3:82:ce:b7:66:82:1d:e4:
        9c:ae:2d:41:1f:69:bb:7e:49:b9:ea:71:ec:fd:39:1c:d0:07:
        b7:15:a1:4e:e6:a3:1a:01:ab:3d:3e:6d:fd:f8:b1:03:5a:fc:
        3a:13:a0:51:5d:5e:4e:e5:28:f4:47:2e:b8:8d:f5:af:22:03:
        95:95:fa:60:95:fe:b6:57:5b:59:20:6d:22:96:7e:b0:40:3c:
        00:0d:2c:0c:47:9a:c4:f1:04:fc:83:b9:a1:c2:75:7b:15:bd:
        7e:5e:eb:d0:83:6b:aa:b5:a0:ec:73:3d:b7:5a:6c:13:fe:91:
        a6:6e:40:5f:8e:8c:a1:84:f1:a3:37:9d:0b:3f:b7:26:6a:89:
        b9:21:05:58:56:d7:99:bb:32:ce:55:98:32:d6:4c:e0:0c:34:
        c1:aa:e5:c4:79:8d:94:e2:aa:e8:5b:2a:2a:44:55:e5:7a:dd:
        97:6f:e5:71:b3:4a:5e:1d:fd:76:d8:9c:af:b2:64:ad:43:a1:
        3e:ee:bf:a9:c2:7a:1c:30:c1:77:c4:38:bb:33:bc:72:f8:db:
        cc:01:06:9a:17:21:c9:57:64:01:b1:b5:84:46:91:8e:18:45:
        bb:45:52:98
-----BEGIN CERTIFICATE-----
MIIDSDCCAjCgAwIBAgIQNN6/io+gQAgrC2y1EFeaATANBgkqhkiG9w0BAQsFADAc
MRowGAYDVQQDDBFJb3RTY2hvb2wgUm9vdCBDQTAeFw0yMzA0MTkxODQ2NDNaFw0z
MzA0MTYxODQ2NDNaMBsxGTAXBgNVBAMMEElvdFNjaG9vbCBTdWIgQ0EwggEiMA0G
CSqGSIb3DQEBAQUAA4IBDwAwggEKAoIBAQDVT5Ra3ShgvxmAdrhvXRAoovPfB4Dr
I+iF9Z0s/2w18UuS6Zfrc/qQ9gtyGrbkQabI9mpM+0vtz/vvh2DSACs4ojBK0FcC
DBgWkn3YrP/5MaBydp34loq9S+Ty9I3xG/6hCh7ZAiX2tRf6pJw490RkkL6TzXSY
TmjnR5ilw5/fCR+M4rbTvlHQMya53QH7MKpCKtcGbw4HA+Jaqo4v8vAXT3t+P9KR
m80sZkMaITL8Bli6su+k+IOSBe6EOCH6SZt7KnBrlM3ItPfblkLAtzy/JT/ez84J
csywLa9fJL/s77e84ABCf0QUvgjccSf87jJJ0eYnv0QkqrGWjW3IeecJAgMBAAGj
gYYwgYMwHwYDVR0jBBgwFoAUnMZfLhgz7tQWLB/jcfiY6tUiGewwEgYDVR0TAQH/
BAgwBgEB/wIBADAdBgNVHSUEFjAUBggrBgEFBQcDAgYIKwYBBQUHAwEwDgYDVR0P
AQH/BAQDAgEGMB0GA1UdDgQWBBR4XcXxcK0fzeXr8uvs8HFCMF7MPTANBgkqhkiG
9w0BAQsFAAOCAQEAoxUuduBRkFc+sJAgXbOvJ1H1k6lu59cQeDYKGMOCzrdmgh3k
nK4tQR9pu35Juepx7P05HNAHtxWhTuajGgGrPT5t/fixA1r8OhOgUV1eTuUo9Ecu
uI31ryIDlZX6YJX+tldbWSBtIpZ+sEA8AA0sDEeaxPEE/IO5ocJ1exW9fl7r0INr
qrWg7HM9t1psE/6Rpm5AX46MoYTxozedCz+3JmqJuSEFWFbXmbsyzlWYMtZM4Aw0
warlxHmNlOKq6FsqKkRV5Xrdl2/lcbNKXh39dticr7JkrUOhPu6/qcJ6HDDBd8Q4
uzO8cvjbzAEGmhchyVdkAbG1hEaRjhhFu0VSmA==
-----END CERTIFICATE-----
