Certificate:
    Data:
        Version: 3 (0x2)
        Serial Number:
            2c:40:3c:96:1e:4e:cb:5f:3f:1d:ab:97:98:69:58:af
        Signature Algorithm: sha256WithRSAEncryption
        Issuer: CN=IotSchool Sub CA
        Validity
            Not Before: May  5 11:24:59 2023 GMT
            Not After : May  4 11:24:59 2024 GMT
        Subject: C=DE, ST=Bavaria, O=IoT School, OU=PKI Services, CN=sample/emailAddress=iotschool@maibornwolff.de
        Subject Public Key Info:
            Public Key Algorithm: rsaEncryption
                Public-Key: (2048 bit)
                Modulus:
                    00:aa:63:dc:e1:43:e7:88:7d:f3:ef:96:e8:ba:4b:
                    5a:e1:79:04:41:7b:77:d1:52:30:e5:ac:08:22:ac:
                    48:74:e1:4e:6d:68:1e:e6:04:cc:f0:7b:33:da:3c:
                    12:bc:ed:ab:b2:3a:0e:4a:61:3b:a2:c3:d2:c8:55:
                    09:80:ba:ce:fb:0b:c2:a0:a7:86:72:c9:1b:f1:33:
                    b1:98:81:63:23:e8:ed:ac:a0:57:e8:61:6d:a7:ee:
                    c5:9b:8e:0d:8f:c0:cb:58:0c:0a:28:99:37:69:ab:
                    67:08:a7:49:4e:47:79:cb:32:b5:01:19:31:0e:5b:
                    90:92:8e:4d:d7:dc:52:0a:26:9a:e1:a1:01:1a:d6:
                    09:d5:9c:b9:42:96:af:cd:7b:df:06:a8:32:f5:12:
                    6f:96:89:11:c2:e6:44:c3:9b:61:e9:f5:db:4c:6c:
                    01:f8:bc:94:4f:68:93:74:0a:8d:09:0f:18:02:4b:
                    e1:b9:09:9d:3e:49:72:4c:a5:ea:8f:17:00:e0:6b:
                    8e:82:70:38:72:f1:38:57:fa:4b:18:db:df:50:4c:
                    35:59:ee:8a:ac:71:13:65:32:60:30:58:31:2a:ec:
                    bb:42:b2:32:cc:5f:4e:35:6d:12:a4:5b:28:ac:bd:
                    68:08:72:5c:39:fc:0c:ae:9b:17:47:3e:34:5d:f0:
                    33:13
                Exponent: 65537 (0x10001)
        X509v3 extensions:
            X509v3 Authority Key Identifier: 
                5E:FD:8A:43:A8:F2:EC:C2:18:93:A2:05:6F:39:04:33:34:BB:AA:58
            X509v3 Basic Constraints: critical
                CA:FALSE
            X509v3 Extended Key Usage: 
                TLS Web Client Authentication
            X509v3 Key Usage: critical
                Digital Signature
            X509v3 Subject Key Identifier: 
                A4:7D:76:5F:3D:F9:B0:8E:5B:AD:F9:36:7E:B3:84:BC:6A:66:1F:11
            X509v3 Subject Alternative Name: 
                DNS:sample
    Signature Algorithm: sha256WithRSAEncryption
    Signature Value:
        5e:f7:5f:09:a0:89:c1:24:32:aa:4a:9d:7c:84:57:35:8b:b1:
        7c:0f:55:a1:f2:25:29:1a:84:44:5a:92:21:d8:c8:f0:a2:18:
        03:a4:d1:79:53:09:cf:ad:a1:1c:c1:c8:8d:95:66:40:8e:d5:
        ce:41:b6:37:44:e5:18:36:7d:5a:7c:af:7b:90:98:c0:11:46:
        24:af:26:df:13:b4:d0:c3:6a:17:8b:ac:53:1b:73:f7:a4:5d:
        84:06:6b:bb:b8:f3:2c:d1:b2:29:b1:21:c1:cc:43:5b:c6:4b:
        d4:76:a2:fb:39:b7:32:73:54:80:01:7f:c5:f8:91:13:b1:a7:
        f3:94:f6:b3:77:d3:a8:a0:e1:a8:0d:28:af:78:b8:a7:e0:be:
        1a:69:a6:bb:ce:af:6c:95:8b:18:af:e5:89:6b:29:fd:2c:73:
        65:51:e4:fc:02:34:d2:dd:08:56:1f:ac:7b:d1:f4:4d:88:f8:
        c2:24:c3:ac:51:2f:a4:8b:0e:c1:7d:c7:62:1c:53:fa:1a:62:
        fe:b1:26:ae:42:bf:0d:97:59:ff:51:28:94:66:19:d5:5d:33:
        5b:c5:6e:af:9f:95:5b:45:10:fe:33:43:1f:eb:82:b8:6c:05:
        36:08:44:96:5e:c4:3a:c1:98:7e:1f:e8:44:69:ef:33:59:f1:
        de:b8:d4:74
-----BEGIN CERTIFICATE-----
MIIDtjCCAp6gAwIBAgIQLEA8lh5Oy18/HauXmGlYrzANBgkqhkiG9w0BAQsFADAb
MRkwFwYDVQQDDBBJb3RTY2hvb2wgU3ViIENBMB4XDTIzMDUwNTExMjQ1OVoXDTI0
MDUwNDExMjQ1OVowgYYxCzAJBgNVBAYTAkRFMRAwDgYDVQQIDAdCYXZhcmlhMRMw
EQYDVQQKDApJb1QgU2Nob29sMRUwEwYDVQQLDAxQS0kgU2VydmljZXMxDzANBgNV
BAMMBnNhbXBsZTEoMCYGCSqGSIb3DQEJARYZaW90c2Nob29sQG1haWJvcm53b2xm
Zi5kZTCCASIwDQYJKoZIhvcNAQEBBQADggEPADCCAQoCggEBAKpj3OFD54h98++W
6LpLWuF5BEF7d9FSMOWsCCKsSHThTm1oHuYEzPB7M9o8Erztq7I6DkphO6LD0shV
CYC6zvsLwqCnhnLJG/EzsZiBYyPo7aygV+hhbafuxZuODY/Ay1gMCiiZN2mrZwin
SU5HecsytQEZMQ5bkJKOTdfcUgommuGhARrWCdWcuUKWr8173waoMvUSb5aJEcLm
RMObYen120xsAfi8lE9ok3QKjQkPGAJL4bkJnT5Jckyl6o8XAOBrjoJwOHLxOFf6
Sxjb31BMNVnuiqxxE2UyYDBYMSrsu0KyMsxfTjVtEqRbKKy9aAhyXDn8DK6bF0c+
NF3wMxMCAwEAAaOBiTCBhjAfBgNVHSMEGDAWgBRe/YpDqPLswhiTogVvOQQzNLuq
WDAMBgNVHRMBAf8EAjAAMBMGA1UdJQQMMAoGCCsGAQUFBwMCMA4GA1UdDwEB/wQE
AwIHgDAdBgNVHQ4EFgQUpH12Xz35sI5brfk2frOEvGpmHxEwEQYDVR0RBAowCIIG
c2FtcGxlMA0GCSqGSIb3DQEBCwUAA4IBAQBe918JoInBJDKqSp18hFc1i7F8D1Wh
8iUpGoREWpIh2MjwohgDpNF5UwnPraEcwciNlWZAjtXOQbY3ROUYNn1afK97kJjA
EUYkrybfE7TQw2oXi6xTG3P3pF2EBmu7uPMs0bIpsSHBzENbxkvUdqL7Obcyc1SA
AX/F+JETsafzlPazd9OooOGoDSiveLin4L4aaaa7zq9slYsYr+WJayn9LHNlUeT8
AjTS3QhWH6x70fRNiPjCJMOsUS+kiw7BfcdiHFP6GmL+sSauQr8Nl1n/USiUZhnV
XTNbxW6vn5VbRRD+M0Mf64K4bAU2CESWXsQ6wZh+H+hEae8zWfHeuNR0
-----END CERTIFICATE-----
Certificate:
    Data:
        Version: 3 (0x2)
        Serial Number:
            b4:05:cf:20:6c:2d:ae:8c:4e:89:58:57:78:2a:6c:48
        Signature Algorithm: sha256WithRSAEncryption
        Issuer: CN=IotSchool Root CA
        Validity
            Not Before: Apr 25 14:25:35 2023 GMT
            Not After : Apr 22 14:25:35 2033 GMT
        Subject: CN=IotSchool Sub CA
        Subject Public Key Info:
            Public Key Algorithm: rsaEncryption
                Public-Key: (2048 bit)
                Modulus:
                    00:9b:bf:fe:82:af:e9:c0:3d:ec:ed:64:8c:b0:dc:
                    d2:2c:ac:11:29:27:2b:b5:65:90:07:02:1d:11:28:
                    62:19:76:33:7c:fd:dc:e1:9b:13:40:a1:57:82:d8:
                    a7:58:6f:dd:dc:69:1a:ca:77:b8:13:c7:0b:71:24:
                    f2:0d:9e:da:dc:ab:74:16:1b:4f:a4:d9:6a:98:1a:
                    2f:de:09:2e:6b:a9:d9:df:32:9e:af:b8:40:6e:98:
                    e0:b2:e9:a1:9c:6b:60:03:38:3b:54:ac:89:04:8d:
                    2b:e5:25:11:cc:83:61:72:30:71:b0:df:a7:bc:c9:
                    e5:ef:84:7b:a5:71:fd:5b:6e:1a:66:48:b6:2c:9d:
                    c1:a2:34:73:f9:d0:c2:96:cd:63:29:d0:cd:4f:18:
                    fa:f0:18:3b:de:ed:c3:8c:f3:39:74:e3:6b:9e:50:
                    88:91:d7:0b:9b:73:cf:17:86:90:c0:5a:1b:eb:b8:
                    fc:3f:8a:33:58:93:05:b7:52:69:97:b7:1d:85:35:
                    bf:b7:b4:7a:f2:9d:0c:1b:8e:9f:7d:bf:da:92:a3:
                    46:94:d1:96:cc:f6:4f:57:f5:1e:d3:8d:21:f8:ac:
                    13:4e:bb:5e:5a:1d:4e:6b:32:bb:66:4e:66:f5:80:
                    15:17:2f:d5:91:00:bf:b4:61:a4:50:ec:1d:63:52:
                    85:9d
                Exponent: 65537 (0x10001)
        X509v3 extensions:
            X509v3 Authority Key Identifier: 
                9C:C6:5F:2E:18:33:EE:D4:16:2C:1F:E3:71:F8:98:EA:D5:22:19:EC
            X509v3 Basic Constraints: critical
                CA:TRUE, pathlen:0
            X509v3 Extended Key Usage: 
                TLS Web Client Authentication, TLS Web Server Authentication
            X509v3 Key Usage: critical
                Certificate Sign, CRL Sign
            X509v3 Subject Key Identifier: 
                5E:FD:8A:43:A8:F2:EC:C2:18:93:A2:05:6F:39:04:33:34:BB:AA:58
    Signature Algorithm: sha256WithRSAEncryption
    Signature Value:
        ba:b8:11:f9:2e:4e:5b:e3:20:54:d9:cf:80:e0:0a:a4:38:a5:
        41:2d:c3:ac:26:95:59:1e:ed:07:d6:22:d5:17:d5:0e:d4:1b:
        f7:1c:cd:d8:23:c8:06:29:4c:ec:d8:24:0e:7e:d8:bf:1a:d5:
        cf:38:d1:a6:a0:8c:a1:77:94:91:86:a1:9c:83:e4:1e:dd:c6:
        cb:69:c6:e2:24:2b:8a:27:bc:b0:35:8c:93:62:44:5d:2c:95:
        6c:7c:c3:d0:a6:50:28:2c:a2:34:f4:9c:b5:35:c5:f6:0a:2d:
        c0:14:59:36:40:2f:6f:83:ef:6c:fc:1d:4e:d9:50:80:f1:25:
        af:3b:a2:c3:f8:cb:5b:e2:f8:61:c8:a2:09:51:bb:df:77:78:
        21:16:dc:b6:32:f2:17:6d:e3:9c:ea:21:1a:15:bb:72:3f:ec:
        97:ca:47:7f:9b:db:a6:e9:44:08:3f:09:05:15:69:1c:5d:7d:
        42:35:d4:21:18:e7:08:7e:a4:e1:dc:7b:22:fd:36:08:db:a9:
        da:0c:3d:62:4d:10:23:d6:a6:ed:1f:e3:06:53:bb:55:ab:38:
        6d:56:4f:2f:14:6f:ab:7d:4e:3e:92:52:bf:2b:f3:a9:10:a9:
        57:30:38:6f:7d:07:e5:5b:eb:d4:e7:57:ce:47:b0:1a:0e:02:
        6c:49:4e:21
-----BEGIN CERTIFICATE-----
MIIDSTCCAjGgAwIBAgIRALQFzyBsLa6MTolYV3gqbEgwDQYJKoZIhvcNAQELBQAw
HDEaMBgGA1UEAwwRSW90U2Nob29sIFJvb3QgQ0EwHhcNMjMwNDI1MTQyNTM1WhcN
MzMwNDIyMTQyNTM1WjAbMRkwFwYDVQQDDBBJb3RTY2hvb2wgU3ViIENBMIIBIjAN
BgkqhkiG9w0BAQEFAAOCAQ8AMIIBCgKCAQEAm7/+gq/pwD3s7WSMsNzSLKwRKScr
tWWQBwIdEShiGXYzfP3c4ZsTQKFXgtinWG/d3Gkayne4E8cLcSTyDZ7a3Kt0FhtP
pNlqmBov3gkua6nZ3zKer7hAbpjgsumhnGtgAzg7VKyJBI0r5SURzINhcjBxsN+n
vMnl74R7pXH9W24aZki2LJ3BojRz+dDCls1jKdDNTxj68Bg73u3DjPM5dONrnlCI
kdcLm3PPF4aQwFob67j8P4ozWJMFt1Jpl7cdhTW/t7R68p0MG46ffb/akqNGlNGW
zPZPV/Ue040h+KwTTrteWh1OazK7Zk5m9YAVFy/VkQC/tGGkUOwdY1KFnQIDAQAB
o4GGMIGDMB8GA1UdIwQYMBaAFJzGXy4YM+7UFiwf43H4mOrVIhnsMBIGA1UdEwEB
/wQIMAYBAf8CAQAwHQYDVR0lBBYwFAYIKwYBBQUHAwIGCCsGAQUFBwMBMA4GA1Ud
DwEB/wQEAwIBBjAdBgNVHQ4EFgQUXv2KQ6jy7MIYk6IFbzkEMzS7qlgwDQYJKoZI
hvcNAQELBQADggEBALq4EfkuTlvjIFTZz4DgCqQ4pUEtw6wmlVke7QfWItUX1Q7U
G/cczdgjyAYpTOzYJA5+2L8a1c840aagjKF3lJGGoZyD5B7dxstpxuIkK4onvLA1
jJNiRF0slWx8w9CmUCgsojT0nLU1xfYKLcAUWTZAL2+D72z8HU7ZUIDxJa87osP4
y1vi+GHIoglRu993eCEW3LYy8hdt45zqIRoVu3I/7JfKR3+b26bpRAg/CQUVaRxd
fUI11CEY5wh+pOHceyL9NgjbqdoMPWJNECPWpu0f4wZTu1WrOG1WTy8Ub6t9Tj6S
Ur8r86kQqVcwOG99B+Vb69TnV85HsBoOAmxJTiE=
-----END CERTIFICATE-----
